ARM GAS  C:\Users\EA527~1.IVA\AppData\Local\Temp\ccwS67DV.s 			page 1


   1              		.syntax unified
   2              		.cpu cortex-m3
   3              		.fpu softvfp
   4              		.eabi_attribute 20, 1
   5              		.eabi_attribute 21, 1
   6              		.eabi_attribute 23, 3
   7              		.eabi_attribute 24, 1
   8              		.eabi_attribute 25, 1
   9              		.eabi_attribute 26, 1
  10              		.eabi_attribute 30, 1
  11              		.eabi_attribute 34, 1
  12              		.eabi_attribute 18, 4
  13              		.thumb
  14              		.syntax unified
  15              		.file	"Boundary8bit.c"
  16              		.text
  17              	.Ltext0:
  18              		.cfi_sections	.debug_frame
  19              		.section	.text.Boundary8bit_Enable,"ax",%progbits
  20              		.align	2
  21              		.global	Boundary8bit_Enable
  22              		.thumb
  23              		.thumb_func
  24              		.type	Boundary8bit_Enable, %function
  25              	Boundary8bit_Enable:
  26              	.LFB1:
  27              		.file 1 "Generated_Source\\PSoC5\\Boundary8bit.c"
   1:Generated_Source\PSoC5/Boundary8bit.c **** /*******************************************************************************
   2:Generated_Source\PSoC5/Boundary8bit.c **** * File Name: Boundary8bit.c  
   3:Generated_Source\PSoC5/Boundary8bit.c **** * Version 3.0
   4:Generated_Source\PSoC5/Boundary8bit.c **** *
   5:Generated_Source\PSoC5/Boundary8bit.c **** *  Description:
   6:Generated_Source\PSoC5/Boundary8bit.c **** *     The Counter component consists of a 8, 16, 24 or 32-bit counter with
   7:Generated_Source\PSoC5/Boundary8bit.c **** *     a selectable period between 2 and 2^Width - 1.  
   8:Generated_Source\PSoC5/Boundary8bit.c **** *
   9:Generated_Source\PSoC5/Boundary8bit.c **** *   Note:
  10:Generated_Source\PSoC5/Boundary8bit.c **** *     None
  11:Generated_Source\PSoC5/Boundary8bit.c **** *
  12:Generated_Source\PSoC5/Boundary8bit.c **** ********************************************************************************
  13:Generated_Source\PSoC5/Boundary8bit.c **** * Copyright 2008-2012, Cypress Semiconductor Corporation.  All rights reserved.
  14:Generated_Source\PSoC5/Boundary8bit.c **** * You may use this file only in accordance with the license, terms, conditions, 
  15:Generated_Source\PSoC5/Boundary8bit.c **** * disclaimers, and limitations in the end user license agreement accompanying 
  16:Generated_Source\PSoC5/Boundary8bit.c **** * the software package with which this file was provided.
  17:Generated_Source\PSoC5/Boundary8bit.c **** *******************************************************************************/
  18:Generated_Source\PSoC5/Boundary8bit.c **** 
  19:Generated_Source\PSoC5/Boundary8bit.c **** #include "Boundary8bit.h"
  20:Generated_Source\PSoC5/Boundary8bit.c **** 
  21:Generated_Source\PSoC5/Boundary8bit.c **** uint8 Boundary8bit_initVar = 0u;
  22:Generated_Source\PSoC5/Boundary8bit.c **** 
  23:Generated_Source\PSoC5/Boundary8bit.c **** 
  24:Generated_Source\PSoC5/Boundary8bit.c **** /*******************************************************************************
  25:Generated_Source\PSoC5/Boundary8bit.c **** * Function Name: Boundary8bit_Init
  26:Generated_Source\PSoC5/Boundary8bit.c **** ********************************************************************************
  27:Generated_Source\PSoC5/Boundary8bit.c **** * Summary:
  28:Generated_Source\PSoC5/Boundary8bit.c **** *     Initialize to the schematic state
  29:Generated_Source\PSoC5/Boundary8bit.c **** * 
  30:Generated_Source\PSoC5/Boundary8bit.c **** * Parameters:  
ARM GAS  C:\Users\EA527~1.IVA\AppData\Local\Temp\ccwS67DV.s 			page 2


  31:Generated_Source\PSoC5/Boundary8bit.c **** *  void  
  32:Generated_Source\PSoC5/Boundary8bit.c **** *
  33:Generated_Source\PSoC5/Boundary8bit.c **** * Return: 
  34:Generated_Source\PSoC5/Boundary8bit.c **** *  void
  35:Generated_Source\PSoC5/Boundary8bit.c **** *
  36:Generated_Source\PSoC5/Boundary8bit.c **** *******************************************************************************/
  37:Generated_Source\PSoC5/Boundary8bit.c **** void Boundary8bit_Init(void) 
  38:Generated_Source\PSoC5/Boundary8bit.c **** {
  39:Generated_Source\PSoC5/Boundary8bit.c ****         #if (!Boundary8bit_UsingFixedFunction && !Boundary8bit_ControlRegRemoved)
  40:Generated_Source\PSoC5/Boundary8bit.c ****             uint8 ctrl;
  41:Generated_Source\PSoC5/Boundary8bit.c ****         #endif /* (!Boundary8bit_UsingFixedFunction && !Boundary8bit_ControlRegRemoved) */
  42:Generated_Source\PSoC5/Boundary8bit.c ****         
  43:Generated_Source\PSoC5/Boundary8bit.c ****         #if(!Boundary8bit_UsingFixedFunction) 
  44:Generated_Source\PSoC5/Boundary8bit.c ****             /* Interrupt State Backup for Critical Region*/
  45:Generated_Source\PSoC5/Boundary8bit.c ****             uint8 Boundary8bit_interruptState;
  46:Generated_Source\PSoC5/Boundary8bit.c ****         #endif /* (!Boundary8bit_UsingFixedFunction) */
  47:Generated_Source\PSoC5/Boundary8bit.c ****         
  48:Generated_Source\PSoC5/Boundary8bit.c ****         #if (Boundary8bit_UsingFixedFunction)
  49:Generated_Source\PSoC5/Boundary8bit.c ****             /* Clear all bits but the enable bit (if it's already set for Timer operation */
  50:Generated_Source\PSoC5/Boundary8bit.c ****             Boundary8bit_CONTROL &= Boundary8bit_CTRL_ENABLE;
  51:Generated_Source\PSoC5/Boundary8bit.c ****             
  52:Generated_Source\PSoC5/Boundary8bit.c ****             /* Clear the mode bits for continuous run mode */
  53:Generated_Source\PSoC5/Boundary8bit.c ****             #if (CY_PSOC5A)
  54:Generated_Source\PSoC5/Boundary8bit.c ****                 Boundary8bit_CONTROL2 &= ((uint8)(~Boundary8bit_CTRL_MODE_MASK));
  55:Generated_Source\PSoC5/Boundary8bit.c ****             #endif /* (CY_PSOC5A) */
  56:Generated_Source\PSoC5/Boundary8bit.c ****             #if (CY_PSOC3 || CY_PSOC5LP)
  57:Generated_Source\PSoC5/Boundary8bit.c ****                 Boundary8bit_CONTROL3 &= ((uint8)(~Boundary8bit_CTRL_MODE_MASK));                
  58:Generated_Source\PSoC5/Boundary8bit.c ****             #endif /* (CY_PSOC3 || CY_PSOC5LP) */
  59:Generated_Source\PSoC5/Boundary8bit.c ****             /* Check if One Shot mode is enabled i.e. RunMode !=0*/
  60:Generated_Source\PSoC5/Boundary8bit.c ****             #if (Boundary8bit_RunModeUsed != 0x0u)
  61:Generated_Source\PSoC5/Boundary8bit.c ****                 /* Set 3rd bit of Control register to enable one shot mode */
  62:Generated_Source\PSoC5/Boundary8bit.c ****                 Boundary8bit_CONTROL |= Boundary8bit_ONESHOT;
  63:Generated_Source\PSoC5/Boundary8bit.c ****             #endif /* (Boundary8bit_RunModeUsed != 0x0u) */
  64:Generated_Source\PSoC5/Boundary8bit.c ****             
  65:Generated_Source\PSoC5/Boundary8bit.c ****             /* Set the IRQ to use the status register interrupts */
  66:Generated_Source\PSoC5/Boundary8bit.c ****             Boundary8bit_CONTROL2 |= Boundary8bit_CTRL2_IRQ_SEL;
  67:Generated_Source\PSoC5/Boundary8bit.c ****             
  68:Generated_Source\PSoC5/Boundary8bit.c ****             /* Clear and Set SYNCTC and SYNCCMP bits of RT1 register */
  69:Generated_Source\PSoC5/Boundary8bit.c ****             Boundary8bit_RT1 &= ((uint8)(~Boundary8bit_RT1_MASK));
  70:Generated_Source\PSoC5/Boundary8bit.c ****             Boundary8bit_RT1 |= Boundary8bit_SYNC;     
  71:Generated_Source\PSoC5/Boundary8bit.c ****                     
  72:Generated_Source\PSoC5/Boundary8bit.c ****             /*Enable DSI Sync all all inputs of the Timer*/
  73:Generated_Source\PSoC5/Boundary8bit.c ****             Boundary8bit_RT1 &= ((uint8)(~Boundary8bit_SYNCDSI_MASK));
  74:Generated_Source\PSoC5/Boundary8bit.c ****             Boundary8bit_RT1 |= Boundary8bit_SYNCDSI_EN;
  75:Generated_Source\PSoC5/Boundary8bit.c **** 
  76:Generated_Source\PSoC5/Boundary8bit.c ****         #else
  77:Generated_Source\PSoC5/Boundary8bit.c ****             #if(!Boundary8bit_ControlRegRemoved)
  78:Generated_Source\PSoC5/Boundary8bit.c ****             /* Set the default compare mode defined in the parameter */
  79:Generated_Source\PSoC5/Boundary8bit.c ****             ctrl = Boundary8bit_CONTROL & ((uint8)(~Boundary8bit_CTRL_CMPMODE_MASK));
  80:Generated_Source\PSoC5/Boundary8bit.c ****             Boundary8bit_CONTROL = ctrl | Boundary8bit_DEFAULT_COMPARE_MODE;
  81:Generated_Source\PSoC5/Boundary8bit.c ****             
  82:Generated_Source\PSoC5/Boundary8bit.c ****             /* Set the default capture mode defined in the parameter */
  83:Generated_Source\PSoC5/Boundary8bit.c ****             ctrl = Boundary8bit_CONTROL & ((uint8)(~Boundary8bit_CTRL_CAPMODE_MASK));
  84:Generated_Source\PSoC5/Boundary8bit.c ****             
  85:Generated_Source\PSoC5/Boundary8bit.c ****             #if( 0 != Boundary8bit_CAPTURE_MODE_CONF)
  86:Generated_Source\PSoC5/Boundary8bit.c ****                 Boundary8bit_CONTROL = ctrl | Boundary8bit_DEFAULT_CAPTURE_MODE;
  87:Generated_Source\PSoC5/Boundary8bit.c ****             #else
ARM GAS  C:\Users\EA527~1.IVA\AppData\Local\Temp\ccwS67DV.s 			page 3


  88:Generated_Source\PSoC5/Boundary8bit.c ****                 Boundary8bit_CONTROL = ctrl;
  89:Generated_Source\PSoC5/Boundary8bit.c ****             #endif /* 0 != Boundary8bit_CAPTURE_MODE */ 
  90:Generated_Source\PSoC5/Boundary8bit.c ****             
  91:Generated_Source\PSoC5/Boundary8bit.c ****             #endif /* (!Boundary8bit_ControlRegRemoved) */
  92:Generated_Source\PSoC5/Boundary8bit.c ****         #endif /* (Boundary8bit_UsingFixedFunction) */
  93:Generated_Source\PSoC5/Boundary8bit.c ****         
  94:Generated_Source\PSoC5/Boundary8bit.c ****         /* Clear all data in the FIFO's */
  95:Generated_Source\PSoC5/Boundary8bit.c ****         #if (!Boundary8bit_UsingFixedFunction)
  96:Generated_Source\PSoC5/Boundary8bit.c ****             Boundary8bit_ClearFIFO();
  97:Generated_Source\PSoC5/Boundary8bit.c ****         #endif /* (!Boundary8bit_UsingFixedFunction) */
  98:Generated_Source\PSoC5/Boundary8bit.c ****         
  99:Generated_Source\PSoC5/Boundary8bit.c ****         /* Set Initial values from Configuration */
 100:Generated_Source\PSoC5/Boundary8bit.c ****         Boundary8bit_WritePeriod(Boundary8bit_INIT_PERIOD_VALUE);
 101:Generated_Source\PSoC5/Boundary8bit.c ****         #if (!(Boundary8bit_UsingFixedFunction && (CY_PSOC5A)))
 102:Generated_Source\PSoC5/Boundary8bit.c ****             Boundary8bit_WriteCounter(Boundary8bit_INIT_COUNTER_VALUE);
 103:Generated_Source\PSoC5/Boundary8bit.c ****         #endif /* (!(Boundary8bit_UsingFixedFunction && (CY_PSOC5A))) */
 104:Generated_Source\PSoC5/Boundary8bit.c ****         Boundary8bit_SetInterruptMode(Boundary8bit_INIT_INTERRUPTS_MASK);
 105:Generated_Source\PSoC5/Boundary8bit.c ****         
 106:Generated_Source\PSoC5/Boundary8bit.c ****         #if (!Boundary8bit_UsingFixedFunction)
 107:Generated_Source\PSoC5/Boundary8bit.c ****             /* Read the status register to clear the unwanted interrupts */
 108:Generated_Source\PSoC5/Boundary8bit.c ****             (void)Boundary8bit_ReadStatusRegister();
 109:Generated_Source\PSoC5/Boundary8bit.c ****             /* Set the compare value (only available to non-fixed function implementation */
 110:Generated_Source\PSoC5/Boundary8bit.c ****             Boundary8bit_WriteCompare(Boundary8bit_INIT_COMPARE_VALUE);
 111:Generated_Source\PSoC5/Boundary8bit.c ****             /* Use the interrupt output of the status register for IRQ output */
 112:Generated_Source\PSoC5/Boundary8bit.c ****             
 113:Generated_Source\PSoC5/Boundary8bit.c ****             /* CyEnterCriticalRegion and CyExitCriticalRegion are used to mark following region cri
 114:Generated_Source\PSoC5/Boundary8bit.c ****             /* Enter Critical Region*/
 115:Generated_Source\PSoC5/Boundary8bit.c ****             Boundary8bit_interruptState = CyEnterCriticalSection();
 116:Generated_Source\PSoC5/Boundary8bit.c ****             
 117:Generated_Source\PSoC5/Boundary8bit.c ****             Boundary8bit_STATUS_AUX_CTRL |= Boundary8bit_STATUS_ACTL_INT_EN_MASK;
 118:Generated_Source\PSoC5/Boundary8bit.c ****             
 119:Generated_Source\PSoC5/Boundary8bit.c ****             /* Exit Critical Region*/
 120:Generated_Source\PSoC5/Boundary8bit.c ****             CyExitCriticalSection(Boundary8bit_interruptState);
 121:Generated_Source\PSoC5/Boundary8bit.c ****             
 122:Generated_Source\PSoC5/Boundary8bit.c ****         #endif /* (!Boundary8bit_UsingFixedFunction) */
 123:Generated_Source\PSoC5/Boundary8bit.c **** }
 124:Generated_Source\PSoC5/Boundary8bit.c **** 
 125:Generated_Source\PSoC5/Boundary8bit.c **** 
 126:Generated_Source\PSoC5/Boundary8bit.c **** /*******************************************************************************
 127:Generated_Source\PSoC5/Boundary8bit.c **** * Function Name: Boundary8bit_Enable
 128:Generated_Source\PSoC5/Boundary8bit.c **** ********************************************************************************
 129:Generated_Source\PSoC5/Boundary8bit.c **** * Summary:
 130:Generated_Source\PSoC5/Boundary8bit.c **** *     Enable the Counter
 131:Generated_Source\PSoC5/Boundary8bit.c **** * 
 132:Generated_Source\PSoC5/Boundary8bit.c **** * Parameters:  
 133:Generated_Source\PSoC5/Boundary8bit.c **** *  void  
 134:Generated_Source\PSoC5/Boundary8bit.c **** *
 135:Generated_Source\PSoC5/Boundary8bit.c **** * Return: 
 136:Generated_Source\PSoC5/Boundary8bit.c **** *  void
 137:Generated_Source\PSoC5/Boundary8bit.c **** *
 138:Generated_Source\PSoC5/Boundary8bit.c **** * Side Effects: 
 139:Generated_Source\PSoC5/Boundary8bit.c **** *   If the Enable mode is set to Hardware only then this function has no effect 
 140:Generated_Source\PSoC5/Boundary8bit.c **** *   on the operation of the counter.
 141:Generated_Source\PSoC5/Boundary8bit.c **** *
 142:Generated_Source\PSoC5/Boundary8bit.c **** *******************************************************************************/
 143:Generated_Source\PSoC5/Boundary8bit.c **** void Boundary8bit_Enable(void) 
 144:Generated_Source\PSoC5/Boundary8bit.c **** {
ARM GAS  C:\Users\EA527~1.IVA\AppData\Local\Temp\ccwS67DV.s 			page 4


  28              		.loc 1 144 0
  29              		.cfi_startproc
  30              		@ args = 0, pretend = 0, frame = 0
  31              		@ frame_needed = 0, uses_anonymous_args = 0
  32              		@ link register save eliminated.
 145:Generated_Source\PSoC5/Boundary8bit.c ****     /* Globally Enable the Fixed Function Block chosen */
 146:Generated_Source\PSoC5/Boundary8bit.c ****     #if (Boundary8bit_UsingFixedFunction)
 147:Generated_Source\PSoC5/Boundary8bit.c ****         Boundary8bit_GLOBAL_ENABLE |= Boundary8bit_BLOCK_EN_MASK;
  33              		.loc 1 147 0
  34 0000 084A     		ldr	r2, .L2
  35 0002 1378     		ldrb	r3, [r2]	@ zero_extendqisi2
  36 0004 43F00103 		orr	r3, r3, #1
  37 0008 1370     		strb	r3, [r2]
 148:Generated_Source\PSoC5/Boundary8bit.c ****         Boundary8bit_GLOBAL_STBY_ENABLE |= Boundary8bit_BLOCK_STBY_EN_MASK;
  38              		.loc 1 148 0
  39 000a 1032     		adds	r2, r2, #16
  40 000c 1378     		ldrb	r3, [r2]	@ zero_extendqisi2
  41 000e 43F00103 		orr	r3, r3, #1
  42 0012 1370     		strb	r3, [r2]
 149:Generated_Source\PSoC5/Boundary8bit.c ****     #endif /* (Boundary8bit_UsingFixedFunction) */  
 150:Generated_Source\PSoC5/Boundary8bit.c ****         
 151:Generated_Source\PSoC5/Boundary8bit.c ****     /* Enable the counter from the control register  */
 152:Generated_Source\PSoC5/Boundary8bit.c ****     /* If Fixed Function then make sure Mode is set correctly */
 153:Generated_Source\PSoC5/Boundary8bit.c ****     /* else make sure reset is clear */
 154:Generated_Source\PSoC5/Boundary8bit.c ****     #if(!Boundary8bit_ControlRegRemoved || Boundary8bit_UsingFixedFunction)
 155:Generated_Source\PSoC5/Boundary8bit.c ****         Boundary8bit_CONTROL |= Boundary8bit_CTRL_ENABLE;                
  43              		.loc 1 155 0
  44 0014 02F64D32 		addw	r2, r2, #2893
  45 0018 1378     		ldrb	r3, [r2]	@ zero_extendqisi2
  46 001a 43F00103 		orr	r3, r3, #1
  47 001e 1370     		strb	r3, [r2]
  48 0020 7047     		bx	lr
  49              	.L3:
  50 0022 00BF     		.align	2
  51              	.L2:
  52 0024 A3430040 		.word	1073759139
  53              		.cfi_endproc
  54              	.LFE1:
  55              		.size	Boundary8bit_Enable, .-Boundary8bit_Enable
  56              		.section	.text.Boundary8bit_Stop,"ax",%progbits
  57              		.align	2
  58              		.global	Boundary8bit_Stop
  59              		.thumb
  60              		.thumb_func
  61              		.type	Boundary8bit_Stop, %function
  62              	Boundary8bit_Stop:
  63              	.LFB3:
 156:Generated_Source\PSoC5/Boundary8bit.c ****     #endif /* (!Boundary8bit_ControlRegRemoved || Boundary8bit_UsingFixedFunction) */
 157:Generated_Source\PSoC5/Boundary8bit.c ****     
 158:Generated_Source\PSoC5/Boundary8bit.c **** }
 159:Generated_Source\PSoC5/Boundary8bit.c **** 
 160:Generated_Source\PSoC5/Boundary8bit.c **** 
 161:Generated_Source\PSoC5/Boundary8bit.c **** /*******************************************************************************
 162:Generated_Source\PSoC5/Boundary8bit.c **** * Function Name: Boundary8bit_Start
 163:Generated_Source\PSoC5/Boundary8bit.c **** ********************************************************************************
 164:Generated_Source\PSoC5/Boundary8bit.c **** * Summary:
 165:Generated_Source\PSoC5/Boundary8bit.c **** *  Enables the counter for operation 
ARM GAS  C:\Users\EA527~1.IVA\AppData\Local\Temp\ccwS67DV.s 			page 5


 166:Generated_Source\PSoC5/Boundary8bit.c **** *
 167:Generated_Source\PSoC5/Boundary8bit.c **** * Parameters:  
 168:Generated_Source\PSoC5/Boundary8bit.c **** *  void  
 169:Generated_Source\PSoC5/Boundary8bit.c **** *
 170:Generated_Source\PSoC5/Boundary8bit.c **** * Return: 
 171:Generated_Source\PSoC5/Boundary8bit.c **** *  void
 172:Generated_Source\PSoC5/Boundary8bit.c **** *
 173:Generated_Source\PSoC5/Boundary8bit.c **** * Global variables:
 174:Generated_Source\PSoC5/Boundary8bit.c **** *  Boundary8bit_initVar: Is modified when this function is called for the  
 175:Generated_Source\PSoC5/Boundary8bit.c **** *   first time. Is used to ensure that initialization happens only once.
 176:Generated_Source\PSoC5/Boundary8bit.c **** *
 177:Generated_Source\PSoC5/Boundary8bit.c **** *******************************************************************************/
 178:Generated_Source\PSoC5/Boundary8bit.c **** void Boundary8bit_Start(void) 
 179:Generated_Source\PSoC5/Boundary8bit.c **** {
 180:Generated_Source\PSoC5/Boundary8bit.c ****     if(Boundary8bit_initVar == 0u)
 181:Generated_Source\PSoC5/Boundary8bit.c ****     {
 182:Generated_Source\PSoC5/Boundary8bit.c ****         Boundary8bit_Init();
 183:Generated_Source\PSoC5/Boundary8bit.c ****         
 184:Generated_Source\PSoC5/Boundary8bit.c ****         Boundary8bit_initVar = 1u; /* Clear this bit for Initialization */        
 185:Generated_Source\PSoC5/Boundary8bit.c ****     }
 186:Generated_Source\PSoC5/Boundary8bit.c ****     
 187:Generated_Source\PSoC5/Boundary8bit.c ****     /* Enable the Counter */
 188:Generated_Source\PSoC5/Boundary8bit.c ****     Boundary8bit_Enable();        
 189:Generated_Source\PSoC5/Boundary8bit.c **** }
 190:Generated_Source\PSoC5/Boundary8bit.c **** 
 191:Generated_Source\PSoC5/Boundary8bit.c **** 
 192:Generated_Source\PSoC5/Boundary8bit.c **** /*******************************************************************************
 193:Generated_Source\PSoC5/Boundary8bit.c **** * Function Name: Boundary8bit_Stop
 194:Generated_Source\PSoC5/Boundary8bit.c **** ********************************************************************************
 195:Generated_Source\PSoC5/Boundary8bit.c **** * Summary:
 196:Generated_Source\PSoC5/Boundary8bit.c **** * Halts the counter, but does not change any modes or disable interrupts.
 197:Generated_Source\PSoC5/Boundary8bit.c **** *
 198:Generated_Source\PSoC5/Boundary8bit.c **** * Parameters:  
 199:Generated_Source\PSoC5/Boundary8bit.c **** *  void  
 200:Generated_Source\PSoC5/Boundary8bit.c **** *
 201:Generated_Source\PSoC5/Boundary8bit.c **** * Return: 
 202:Generated_Source\PSoC5/Boundary8bit.c **** *  void
 203:Generated_Source\PSoC5/Boundary8bit.c **** *
 204:Generated_Source\PSoC5/Boundary8bit.c **** * Side Effects: If the Enable mode is set to Hardware only then this function
 205:Generated_Source\PSoC5/Boundary8bit.c **** *               has no effect on the operation of the counter.
 206:Generated_Source\PSoC5/Boundary8bit.c **** *
 207:Generated_Source\PSoC5/Boundary8bit.c **** *******************************************************************************/
 208:Generated_Source\PSoC5/Boundary8bit.c **** void Boundary8bit_Stop(void) 
 209:Generated_Source\PSoC5/Boundary8bit.c **** {
  64              		.loc 1 209 0
  65              		.cfi_startproc
  66              		@ args = 0, pretend = 0, frame = 0
  67              		@ frame_needed = 0, uses_anonymous_args = 0
  68              		@ link register save eliminated.
 210:Generated_Source\PSoC5/Boundary8bit.c ****     /* Disable Counter */
 211:Generated_Source\PSoC5/Boundary8bit.c ****     #if(!Boundary8bit_ControlRegRemoved || Boundary8bit_UsingFixedFunction)
 212:Generated_Source\PSoC5/Boundary8bit.c ****         Boundary8bit_CONTROL &= ((uint8)(~Boundary8bit_CTRL_ENABLE));        
  69              		.loc 1 212 0
  70 0000 084A     		ldr	r2, .L5
  71 0002 1378     		ldrb	r3, [r2]	@ zero_extendqisi2
  72 0004 03F0FE03 		and	r3, r3, #254
  73 0008 1370     		strb	r3, [r2]
ARM GAS  C:\Users\EA527~1.IVA\AppData\Local\Temp\ccwS67DV.s 			page 6


 213:Generated_Source\PSoC5/Boundary8bit.c ****     #endif /* (!Boundary8bit_ControlRegRemoved || Boundary8bit_UsingFixedFunction) */
 214:Generated_Source\PSoC5/Boundary8bit.c ****     
 215:Generated_Source\PSoC5/Boundary8bit.c ****     /* Globally disable the Fixed Function Block chosen */
 216:Generated_Source\PSoC5/Boundary8bit.c ****     #if (Boundary8bit_UsingFixedFunction)
 217:Generated_Source\PSoC5/Boundary8bit.c ****         Boundary8bit_GLOBAL_ENABLE &= ((uint8)(~Boundary8bit_BLOCK_EN_MASK));
  74              		.loc 1 217 0
  75 000a A2F65D32 		subw	r2, r2, #2909
  76 000e 1378     		ldrb	r3, [r2]	@ zero_extendqisi2
  77 0010 03F0FE03 		and	r3, r3, #254
  78 0014 1370     		strb	r3, [r2]
 218:Generated_Source\PSoC5/Boundary8bit.c ****         Boundary8bit_GLOBAL_STBY_ENABLE &= ((uint8)(~Boundary8bit_BLOCK_STBY_EN_MASK));
  79              		.loc 1 218 0
  80 0016 1032     		adds	r2, r2, #16
  81 0018 1378     		ldrb	r3, [r2]	@ zero_extendqisi2
  82 001a 03F0FE03 		and	r3, r3, #254
  83 001e 1370     		strb	r3, [r2]
  84 0020 7047     		bx	lr
  85              	.L6:
  86 0022 00BF     		.align	2
  87              	.L5:
  88 0024 004F0040 		.word	1073762048
  89              		.cfi_endproc
  90              	.LFE3:
  91              		.size	Boundary8bit_Stop, .-Boundary8bit_Stop
  92              		.section	.text.Boundary8bit_SetInterruptMode,"ax",%progbits
  93              		.align	2
  94              		.global	Boundary8bit_SetInterruptMode
  95              		.thumb
  96              		.thumb_func
  97              		.type	Boundary8bit_SetInterruptMode, %function
  98              	Boundary8bit_SetInterruptMode:
  99              	.LFB4:
 219:Generated_Source\PSoC5/Boundary8bit.c ****     #endif /* (Boundary8bit_UsingFixedFunction) */
 220:Generated_Source\PSoC5/Boundary8bit.c **** }
 221:Generated_Source\PSoC5/Boundary8bit.c **** 
 222:Generated_Source\PSoC5/Boundary8bit.c **** 
 223:Generated_Source\PSoC5/Boundary8bit.c **** /*******************************************************************************
 224:Generated_Source\PSoC5/Boundary8bit.c **** * Function Name: Boundary8bit_SetInterruptMode
 225:Generated_Source\PSoC5/Boundary8bit.c **** ********************************************************************************
 226:Generated_Source\PSoC5/Boundary8bit.c **** * Summary:
 227:Generated_Source\PSoC5/Boundary8bit.c **** * Configures which interrupt sources are enabled to generate the final interrupt
 228:Generated_Source\PSoC5/Boundary8bit.c **** *
 229:Generated_Source\PSoC5/Boundary8bit.c **** * Parameters:  
 230:Generated_Source\PSoC5/Boundary8bit.c **** *  InterruptsMask: This parameter is an or'd collection of the status bits
 231:Generated_Source\PSoC5/Boundary8bit.c **** *                   which will be allowed to generate the counters interrupt.   
 232:Generated_Source\PSoC5/Boundary8bit.c **** *
 233:Generated_Source\PSoC5/Boundary8bit.c **** * Return: 
 234:Generated_Source\PSoC5/Boundary8bit.c **** *  void
 235:Generated_Source\PSoC5/Boundary8bit.c **** *
 236:Generated_Source\PSoC5/Boundary8bit.c **** *******************************************************************************/
 237:Generated_Source\PSoC5/Boundary8bit.c **** void Boundary8bit_SetInterruptMode(uint8 interruptsMask) 
 238:Generated_Source\PSoC5/Boundary8bit.c **** {
 100              		.loc 1 238 0
 101              		.cfi_startproc
 102              		@ args = 0, pretend = 0, frame = 0
 103              		@ frame_needed = 0, uses_anonymous_args = 0
 104              		@ link register save eliminated.
ARM GAS  C:\Users\EA527~1.IVA\AppData\Local\Temp\ccwS67DV.s 			page 7


 105              	.LVL0:
 239:Generated_Source\PSoC5/Boundary8bit.c ****     Boundary8bit_STATUS_MASK = interruptsMask;
 106              		.loc 1 239 0
 107 0000 014B     		ldr	r3, .L8
 108 0002 1870     		strb	r0, [r3]
 109 0004 7047     		bx	lr
 110              	.L9:
 111 0006 00BF     		.align	2
 112              	.L8:
 113 0008 034F0040 		.word	1073762051
 114              		.cfi_endproc
 115              	.LFE4:
 116              		.size	Boundary8bit_SetInterruptMode, .-Boundary8bit_SetInterruptMode
 117              		.section	.text.Boundary8bit_ReadStatusRegister,"ax",%progbits
 118              		.align	2
 119              		.global	Boundary8bit_ReadStatusRegister
 120              		.thumb
 121              		.thumb_func
 122              		.type	Boundary8bit_ReadStatusRegister, %function
 123              	Boundary8bit_ReadStatusRegister:
 124              	.LFB5:
 240:Generated_Source\PSoC5/Boundary8bit.c **** }
 241:Generated_Source\PSoC5/Boundary8bit.c **** 
 242:Generated_Source\PSoC5/Boundary8bit.c **** 
 243:Generated_Source\PSoC5/Boundary8bit.c **** /*******************************************************************************
 244:Generated_Source\PSoC5/Boundary8bit.c **** * Function Name: Boundary8bit_ReadStatusRegister
 245:Generated_Source\PSoC5/Boundary8bit.c **** ********************************************************************************
 246:Generated_Source\PSoC5/Boundary8bit.c **** * Summary:
 247:Generated_Source\PSoC5/Boundary8bit.c **** *   Reads the status register and returns it's state. This function should use
 248:Generated_Source\PSoC5/Boundary8bit.c **** *       defined types for the bit-field information as the bits in this
 249:Generated_Source\PSoC5/Boundary8bit.c **** *       register may be permuteable.
 250:Generated_Source\PSoC5/Boundary8bit.c **** *
 251:Generated_Source\PSoC5/Boundary8bit.c **** * Parameters:  
 252:Generated_Source\PSoC5/Boundary8bit.c **** *  void
 253:Generated_Source\PSoC5/Boundary8bit.c **** *
 254:Generated_Source\PSoC5/Boundary8bit.c **** * Return: 
 255:Generated_Source\PSoC5/Boundary8bit.c **** *  (uint8) The contents of the status register
 256:Generated_Source\PSoC5/Boundary8bit.c **** *
 257:Generated_Source\PSoC5/Boundary8bit.c **** * Side Effects:
 258:Generated_Source\PSoC5/Boundary8bit.c **** *   Status register bits may be clear on read. 
 259:Generated_Source\PSoC5/Boundary8bit.c **** *
 260:Generated_Source\PSoC5/Boundary8bit.c **** *******************************************************************************/
 261:Generated_Source\PSoC5/Boundary8bit.c **** uint8   Boundary8bit_ReadStatusRegister(void) 
 262:Generated_Source\PSoC5/Boundary8bit.c **** {
 125              		.loc 1 262 0
 126              		.cfi_startproc
 127              		@ args = 0, pretend = 0, frame = 0
 128              		@ frame_needed = 0, uses_anonymous_args = 0
 129              		@ link register save eliminated.
 263:Generated_Source\PSoC5/Boundary8bit.c ****     return Boundary8bit_STATUS;
 130              		.loc 1 263 0
 131 0000 014B     		ldr	r3, .L11
 132 0002 1878     		ldrb	r0, [r3]	@ zero_extendqisi2
 264:Generated_Source\PSoC5/Boundary8bit.c **** }
 133              		.loc 1 264 0
 134 0004 7047     		bx	lr
 135              	.L12:
ARM GAS  C:\Users\EA527~1.IVA\AppData\Local\Temp\ccwS67DV.s 			page 8


 136 0006 00BF     		.align	2
 137              	.L11:
 138 0008 034F0040 		.word	1073762051
 139              		.cfi_endproc
 140              	.LFE5:
 141              		.size	Boundary8bit_ReadStatusRegister, .-Boundary8bit_ReadStatusRegister
 142              		.section	.text.Boundary8bit_ReadControlRegister,"ax",%progbits
 143              		.align	2
 144              		.global	Boundary8bit_ReadControlRegister
 145              		.thumb
 146              		.thumb_func
 147              		.type	Boundary8bit_ReadControlRegister, %function
 148              	Boundary8bit_ReadControlRegister:
 149              	.LFB6:
 265:Generated_Source\PSoC5/Boundary8bit.c **** 
 266:Generated_Source\PSoC5/Boundary8bit.c **** 
 267:Generated_Source\PSoC5/Boundary8bit.c **** #if(!Boundary8bit_ControlRegRemoved)
 268:Generated_Source\PSoC5/Boundary8bit.c **** /*******************************************************************************
 269:Generated_Source\PSoC5/Boundary8bit.c **** * Function Name: Boundary8bit_ReadControlRegister
 270:Generated_Source\PSoC5/Boundary8bit.c **** ********************************************************************************
 271:Generated_Source\PSoC5/Boundary8bit.c **** * Summary:
 272:Generated_Source\PSoC5/Boundary8bit.c **** *   Reads the control register and returns it's state. This function should use
 273:Generated_Source\PSoC5/Boundary8bit.c **** *       defined types for the bit-field information as the bits in this
 274:Generated_Source\PSoC5/Boundary8bit.c **** *       register may be permuteable.
 275:Generated_Source\PSoC5/Boundary8bit.c **** *
 276:Generated_Source\PSoC5/Boundary8bit.c **** * Parameters:  
 277:Generated_Source\PSoC5/Boundary8bit.c **** *  void
 278:Generated_Source\PSoC5/Boundary8bit.c **** *
 279:Generated_Source\PSoC5/Boundary8bit.c **** * Return: 
 280:Generated_Source\PSoC5/Boundary8bit.c **** *  (uint8) The contents of the control register
 281:Generated_Source\PSoC5/Boundary8bit.c **** *
 282:Generated_Source\PSoC5/Boundary8bit.c **** *******************************************************************************/
 283:Generated_Source\PSoC5/Boundary8bit.c **** uint8   Boundary8bit_ReadControlRegister(void) 
 284:Generated_Source\PSoC5/Boundary8bit.c **** {
 150              		.loc 1 284 0
 151              		.cfi_startproc
 152              		@ args = 0, pretend = 0, frame = 0
 153              		@ frame_needed = 0, uses_anonymous_args = 0
 154              		@ link register save eliminated.
 285:Generated_Source\PSoC5/Boundary8bit.c ****     return Boundary8bit_CONTROL;
 155              		.loc 1 285 0
 156 0000 014B     		ldr	r3, .L14
 157 0002 1878     		ldrb	r0, [r3]	@ zero_extendqisi2
 286:Generated_Source\PSoC5/Boundary8bit.c **** }
 158              		.loc 1 286 0
 159 0004 7047     		bx	lr
 160              	.L15:
 161 0006 00BF     		.align	2
 162              	.L14:
 163 0008 004F0040 		.word	1073762048
 164              		.cfi_endproc
 165              	.LFE6:
 166              		.size	Boundary8bit_ReadControlRegister, .-Boundary8bit_ReadControlRegister
 167              		.section	.text.Boundary8bit_WriteControlRegister,"ax",%progbits
 168              		.align	2
 169              		.global	Boundary8bit_WriteControlRegister
 170              		.thumb
ARM GAS  C:\Users\EA527~1.IVA\AppData\Local\Temp\ccwS67DV.s 			page 9


 171              		.thumb_func
 172              		.type	Boundary8bit_WriteControlRegister, %function
 173              	Boundary8bit_WriteControlRegister:
 174              	.LFB7:
 287:Generated_Source\PSoC5/Boundary8bit.c **** 
 288:Generated_Source\PSoC5/Boundary8bit.c **** 
 289:Generated_Source\PSoC5/Boundary8bit.c **** /*******************************************************************************
 290:Generated_Source\PSoC5/Boundary8bit.c **** * Function Name: Boundary8bit_WriteControlRegister
 291:Generated_Source\PSoC5/Boundary8bit.c **** ********************************************************************************
 292:Generated_Source\PSoC5/Boundary8bit.c **** * Summary:
 293:Generated_Source\PSoC5/Boundary8bit.c **** *   Sets the bit-field of the control register.  This function should use
 294:Generated_Source\PSoC5/Boundary8bit.c **** *       defined types for the bit-field information as the bits in this
 295:Generated_Source\PSoC5/Boundary8bit.c **** *       register may be permuteable.
 296:Generated_Source\PSoC5/Boundary8bit.c **** *
 297:Generated_Source\PSoC5/Boundary8bit.c **** * Parameters:  
 298:Generated_Source\PSoC5/Boundary8bit.c **** *  void
 299:Generated_Source\PSoC5/Boundary8bit.c **** *
 300:Generated_Source\PSoC5/Boundary8bit.c **** * Return: 
 301:Generated_Source\PSoC5/Boundary8bit.c **** *  (uint8) The contents of the control register
 302:Generated_Source\PSoC5/Boundary8bit.c **** *
 303:Generated_Source\PSoC5/Boundary8bit.c **** *******************************************************************************/
 304:Generated_Source\PSoC5/Boundary8bit.c **** void    Boundary8bit_WriteControlRegister(uint8 control) 
 305:Generated_Source\PSoC5/Boundary8bit.c **** {
 175              		.loc 1 305 0
 176              		.cfi_startproc
 177              		@ args = 0, pretend = 0, frame = 0
 178              		@ frame_needed = 0, uses_anonymous_args = 0
 179              		@ link register save eliminated.
 180              	.LVL1:
 306:Generated_Source\PSoC5/Boundary8bit.c ****     Boundary8bit_CONTROL = control;
 181              		.loc 1 306 0
 182 0000 014B     		ldr	r3, .L17
 183 0002 1870     		strb	r0, [r3]
 184 0004 7047     		bx	lr
 185              	.L18:
 186 0006 00BF     		.align	2
 187              	.L17:
 188 0008 004F0040 		.word	1073762048
 189              		.cfi_endproc
 190              	.LFE7:
 191              		.size	Boundary8bit_WriteControlRegister, .-Boundary8bit_WriteControlRegister
 192              		.section	.text.Boundary8bit_WriteCounter,"ax",%progbits
 193              		.align	2
 194              		.global	Boundary8bit_WriteCounter
 195              		.thumb
 196              		.thumb_func
 197              		.type	Boundary8bit_WriteCounter, %function
 198              	Boundary8bit_WriteCounter:
 199              	.LFB8:
 307:Generated_Source\PSoC5/Boundary8bit.c **** }
 308:Generated_Source\PSoC5/Boundary8bit.c **** 
 309:Generated_Source\PSoC5/Boundary8bit.c **** #endif  /* (!Boundary8bit_ControlRegRemoved) */
 310:Generated_Source\PSoC5/Boundary8bit.c **** 
 311:Generated_Source\PSoC5/Boundary8bit.c **** 
 312:Generated_Source\PSoC5/Boundary8bit.c **** #if (!(Boundary8bit_UsingFixedFunction && (CY_PSOC5A)))
 313:Generated_Source\PSoC5/Boundary8bit.c **** /*******************************************************************************
 314:Generated_Source\PSoC5/Boundary8bit.c **** * Function Name: Boundary8bit_WriteCounter
ARM GAS  C:\Users\EA527~1.IVA\AppData\Local\Temp\ccwS67DV.s 			page 10


 315:Generated_Source\PSoC5/Boundary8bit.c **** ********************************************************************************
 316:Generated_Source\PSoC5/Boundary8bit.c **** * Summary:
 317:Generated_Source\PSoC5/Boundary8bit.c **** *   This funtion is used to set the counter to a specific value
 318:Generated_Source\PSoC5/Boundary8bit.c **** *
 319:Generated_Source\PSoC5/Boundary8bit.c **** * Parameters:  
 320:Generated_Source\PSoC5/Boundary8bit.c **** *  counter:  New counter value. 
 321:Generated_Source\PSoC5/Boundary8bit.c **** *
 322:Generated_Source\PSoC5/Boundary8bit.c **** * Return: 
 323:Generated_Source\PSoC5/Boundary8bit.c **** *  void 
 324:Generated_Source\PSoC5/Boundary8bit.c **** *
 325:Generated_Source\PSoC5/Boundary8bit.c **** *******************************************************************************/
 326:Generated_Source\PSoC5/Boundary8bit.c **** void Boundary8bit_WriteCounter(uint8 counter) \
 327:Generated_Source\PSoC5/Boundary8bit.c ****                                    
 328:Generated_Source\PSoC5/Boundary8bit.c **** {
 200              		.loc 1 328 0
 201              		.cfi_startproc
 202              		@ args = 0, pretend = 0, frame = 0
 203              		@ frame_needed = 0, uses_anonymous_args = 0
 204              	.LVL2:
 205 0000 10B5     		push	{r4, lr}
 206              		.cfi_def_cfa_offset 8
 207              		.cfi_offset 4, -8
 208              		.cfi_offset 14, -4
 209 0002 0446     		mov	r4, r0
 329:Generated_Source\PSoC5/Boundary8bit.c ****     #if(Boundary8bit_UsingFixedFunction)
 330:Generated_Source\PSoC5/Boundary8bit.c ****         /* assert if block is already enabled */
 331:Generated_Source\PSoC5/Boundary8bit.c ****         CYASSERT (0u == (Boundary8bit_GLOBAL_ENABLE & Boundary8bit_BLOCK_EN_MASK));
 210              		.loc 1 331 0
 211 0004 0A4B     		ldr	r3, .L22
 212 0006 1B78     		ldrb	r3, [r3]	@ zero_extendqisi2
 213 0008 13F0010F 		tst	r3, #1
 214 000c 02D0     		beq	.L20
 215              		.loc 1 331 0 is_stmt 0 discriminator 1
 216 000e 0020     		movs	r0, #0
 217              	.LVL3:
 218 0010 FFF7FEFF 		bl	CyHalt
 219              	.LVL4:
 220              	.L20:
 332:Generated_Source\PSoC5/Boundary8bit.c ****         /* If block is disabled, enable it and then write the counter */
 333:Generated_Source\PSoC5/Boundary8bit.c ****         Boundary8bit_GLOBAL_ENABLE |= Boundary8bit_BLOCK_EN_MASK;
 221              		.loc 1 333 0 is_stmt 1
 222 0014 064B     		ldr	r3, .L22
 223 0016 1A78     		ldrb	r2, [r3]	@ zero_extendqisi2
 224 0018 42F00102 		orr	r2, r2, #1
 225 001c 1A70     		strb	r2, [r3]
 334:Generated_Source\PSoC5/Boundary8bit.c ****         CY_SET_REG16(Boundary8bit_COUNTER_LSB_PTR, (uint16)counter);
 226              		.loc 1 334 0
 227 001e A4B2     		uxth	r4, r4
 228 0020 044A     		ldr	r2, .L22+4
 229 0022 1480     		strh	r4, [r2]	@ movhi
 335:Generated_Source\PSoC5/Boundary8bit.c ****         Boundary8bit_GLOBAL_ENABLE &= ((uint8)(~Boundary8bit_BLOCK_EN_MASK));
 230              		.loc 1 335 0
 231 0024 1A78     		ldrb	r2, [r3]	@ zero_extendqisi2
 232 0026 02F0FE02 		and	r2, r2, #254
 233 002a 1A70     		strb	r2, [r3]
 234 002c 10BD     		pop	{r4, pc}
 235              	.L23:
ARM GAS  C:\Users\EA527~1.IVA\AppData\Local\Temp\ccwS67DV.s 			page 11


 236 002e 00BF     		.align	2
 237              	.L22:
 238 0030 A3430040 		.word	1073759139
 239 0034 064F0040 		.word	1073762054
 240              		.cfi_endproc
 241              	.LFE8:
 242              		.size	Boundary8bit_WriteCounter, .-Boundary8bit_WriteCounter
 243              		.section	.text.Boundary8bit_ReadCounter,"ax",%progbits
 244              		.align	2
 245              		.global	Boundary8bit_ReadCounter
 246              		.thumb
 247              		.thumb_func
 248              		.type	Boundary8bit_ReadCounter, %function
 249              	Boundary8bit_ReadCounter:
 250              	.LFB9:
 336:Generated_Source\PSoC5/Boundary8bit.c ****     #else
 337:Generated_Source\PSoC5/Boundary8bit.c ****         CY_SET_REG8(Boundary8bit_COUNTER_LSB_PTR, counter);
 338:Generated_Source\PSoC5/Boundary8bit.c ****     #endif /* (Boundary8bit_UsingFixedFunction) */
 339:Generated_Source\PSoC5/Boundary8bit.c **** }
 340:Generated_Source\PSoC5/Boundary8bit.c **** #endif /* (!(Boundary8bit_UsingFixedFunction && (CY_PSOC5A))) */
 341:Generated_Source\PSoC5/Boundary8bit.c **** 
 342:Generated_Source\PSoC5/Boundary8bit.c **** 
 343:Generated_Source\PSoC5/Boundary8bit.c **** /*******************************************************************************
 344:Generated_Source\PSoC5/Boundary8bit.c **** * Function Name: Boundary8bit_ReadCounter
 345:Generated_Source\PSoC5/Boundary8bit.c **** ********************************************************************************
 346:Generated_Source\PSoC5/Boundary8bit.c **** * Summary:
 347:Generated_Source\PSoC5/Boundary8bit.c **** * Returns the current value of the counter.  It doesn't matter
 348:Generated_Source\PSoC5/Boundary8bit.c **** * if the counter is enabled or running.
 349:Generated_Source\PSoC5/Boundary8bit.c **** *
 350:Generated_Source\PSoC5/Boundary8bit.c **** * Parameters:  
 351:Generated_Source\PSoC5/Boundary8bit.c **** *  void:  
 352:Generated_Source\PSoC5/Boundary8bit.c **** *
 353:Generated_Source\PSoC5/Boundary8bit.c **** * Return: 
 354:Generated_Source\PSoC5/Boundary8bit.c **** *  (uint8) The present value of the counter.
 355:Generated_Source\PSoC5/Boundary8bit.c **** *
 356:Generated_Source\PSoC5/Boundary8bit.c **** *******************************************************************************/
 357:Generated_Source\PSoC5/Boundary8bit.c **** uint8 Boundary8bit_ReadCounter(void) 
 358:Generated_Source\PSoC5/Boundary8bit.c **** {
 251              		.loc 1 358 0
 252              		.cfi_startproc
 253              		@ args = 0, pretend = 0, frame = 0
 254              		@ frame_needed = 0, uses_anonymous_args = 0
 255              		@ link register save eliminated.
 359:Generated_Source\PSoC5/Boundary8bit.c ****     /* Force capture by reading Accumulator */
 360:Generated_Source\PSoC5/Boundary8bit.c ****     /* Must first do a software capture to be able to read the counter */
 361:Generated_Source\PSoC5/Boundary8bit.c ****     /* It is up to the user code to make sure there isn't already captured data in the FIFO */
 362:Generated_Source\PSoC5/Boundary8bit.c ****     #if(Boundary8bit_UsingFixedFunction)
 363:Generated_Source\PSoC5/Boundary8bit.c **** 		(void)CY_GET_REG16(Boundary8bit_COUNTER_LSB_PTR);
 256              		.loc 1 363 0
 257 0000 024B     		ldr	r3, .L25
 258 0002 1B88     		ldrh	r3, [r3]
 364:Generated_Source\PSoC5/Boundary8bit.c **** 	#else
 365:Generated_Source\PSoC5/Boundary8bit.c **** 		(void)CY_GET_REG8(Boundary8bit_COUNTER_LSB_PTR_8BIT);
 366:Generated_Source\PSoC5/Boundary8bit.c **** 	#endif/* (Boundary8bit_UsingFixedFunction) */
 367:Generated_Source\PSoC5/Boundary8bit.c ****     
 368:Generated_Source\PSoC5/Boundary8bit.c ****     /* Read the data from the FIFO (or capture register for Fixed Function)*/
 369:Generated_Source\PSoC5/Boundary8bit.c ****     #if(Boundary8bit_UsingFixedFunction)
ARM GAS  C:\Users\EA527~1.IVA\AppData\Local\Temp\ccwS67DV.s 			page 12


 370:Generated_Source\PSoC5/Boundary8bit.c ****         return ((uint8)CY_GET_REG16(Boundary8bit_STATICCOUNT_LSB_PTR));
 259              		.loc 1 370 0
 260 0004 024B     		ldr	r3, .L25+4
 261 0006 1888     		ldrh	r0, [r3]
 371:Generated_Source\PSoC5/Boundary8bit.c ****     #else
 372:Generated_Source\PSoC5/Boundary8bit.c ****         return (CY_GET_REG8(Boundary8bit_STATICCOUNT_LSB_PTR));
 373:Generated_Source\PSoC5/Boundary8bit.c ****     #endif /* (Boundary8bit_UsingFixedFunction) */
 374:Generated_Source\PSoC5/Boundary8bit.c **** }
 262              		.loc 1 374 0
 263 0008 C0B2     		uxtb	r0, r0
 264 000a 7047     		bx	lr
 265              	.L26:
 266              		.align	2
 267              	.L25:
 268 000c 064F0040 		.word	1073762054
 269 0010 084F0040 		.word	1073762056
 270              		.cfi_endproc
 271              	.LFE9:
 272              		.size	Boundary8bit_ReadCounter, .-Boundary8bit_ReadCounter
 273              		.section	.text.Boundary8bit_ReadCapture,"ax",%progbits
 274              		.align	2
 275              		.global	Boundary8bit_ReadCapture
 276              		.thumb
 277              		.thumb_func
 278              		.type	Boundary8bit_ReadCapture, %function
 279              	Boundary8bit_ReadCapture:
 280              	.LFB10:
 375:Generated_Source\PSoC5/Boundary8bit.c **** 
 376:Generated_Source\PSoC5/Boundary8bit.c **** 
 377:Generated_Source\PSoC5/Boundary8bit.c **** /*******************************************************************************
 378:Generated_Source\PSoC5/Boundary8bit.c **** * Function Name: Boundary8bit_ReadCapture
 379:Generated_Source\PSoC5/Boundary8bit.c **** ********************************************************************************
 380:Generated_Source\PSoC5/Boundary8bit.c **** * Summary:
 381:Generated_Source\PSoC5/Boundary8bit.c **** *   This function returns the last value captured.
 382:Generated_Source\PSoC5/Boundary8bit.c **** *
 383:Generated_Source\PSoC5/Boundary8bit.c **** * Parameters:  
 384:Generated_Source\PSoC5/Boundary8bit.c **** *  void
 385:Generated_Source\PSoC5/Boundary8bit.c **** *
 386:Generated_Source\PSoC5/Boundary8bit.c **** * Return: 
 387:Generated_Source\PSoC5/Boundary8bit.c **** *  (uint8) Present Capture value.
 388:Generated_Source\PSoC5/Boundary8bit.c **** *
 389:Generated_Source\PSoC5/Boundary8bit.c **** *******************************************************************************/
 390:Generated_Source\PSoC5/Boundary8bit.c **** uint8 Boundary8bit_ReadCapture(void) 
 391:Generated_Source\PSoC5/Boundary8bit.c **** {
 281              		.loc 1 391 0
 282              		.cfi_startproc
 283              		@ args = 0, pretend = 0, frame = 0
 284              		@ frame_needed = 0, uses_anonymous_args = 0
 285              		@ link register save eliminated.
 392:Generated_Source\PSoC5/Boundary8bit.c ****     #if(Boundary8bit_UsingFixedFunction)
 393:Generated_Source\PSoC5/Boundary8bit.c ****         return ((uint8)CY_GET_REG16(Boundary8bit_STATICCOUNT_LSB_PTR));
 286              		.loc 1 393 0
 287 0000 014B     		ldr	r3, .L28
 288 0002 1888     		ldrh	r0, [r3]
 394:Generated_Source\PSoC5/Boundary8bit.c ****     #else
 395:Generated_Source\PSoC5/Boundary8bit.c ****         return (CY_GET_REG8(Boundary8bit_STATICCOUNT_LSB_PTR));
 396:Generated_Source\PSoC5/Boundary8bit.c ****     #endif /* (Boundary8bit_UsingFixedFunction) */
ARM GAS  C:\Users\EA527~1.IVA\AppData\Local\Temp\ccwS67DV.s 			page 13


 397:Generated_Source\PSoC5/Boundary8bit.c **** }
 289              		.loc 1 397 0
 290 0004 C0B2     		uxtb	r0, r0
 291 0006 7047     		bx	lr
 292              	.L29:
 293              		.align	2
 294              	.L28:
 295 0008 084F0040 		.word	1073762056
 296              		.cfi_endproc
 297              	.LFE10:
 298              		.size	Boundary8bit_ReadCapture, .-Boundary8bit_ReadCapture
 299              		.section	.text.Boundary8bit_WritePeriod,"ax",%progbits
 300              		.align	2
 301              		.global	Boundary8bit_WritePeriod
 302              		.thumb
 303              		.thumb_func
 304              		.type	Boundary8bit_WritePeriod, %function
 305              	Boundary8bit_WritePeriod:
 306              	.LFB11:
 398:Generated_Source\PSoC5/Boundary8bit.c **** 
 399:Generated_Source\PSoC5/Boundary8bit.c **** 
 400:Generated_Source\PSoC5/Boundary8bit.c **** /*******************************************************************************
 401:Generated_Source\PSoC5/Boundary8bit.c **** * Function Name: Boundary8bit_WritePeriod
 402:Generated_Source\PSoC5/Boundary8bit.c **** ********************************************************************************
 403:Generated_Source\PSoC5/Boundary8bit.c **** * Summary:
 404:Generated_Source\PSoC5/Boundary8bit.c **** * Changes the period of the counter.  The new period 
 405:Generated_Source\PSoC5/Boundary8bit.c **** * will be loaded the next time terminal count is detected.
 406:Generated_Source\PSoC5/Boundary8bit.c **** *
 407:Generated_Source\PSoC5/Boundary8bit.c **** * Parameters:  
 408:Generated_Source\PSoC5/Boundary8bit.c **** *  period: (uint8) A value of 0 will result in
 409:Generated_Source\PSoC5/Boundary8bit.c **** *         the counter remaining at zero.  
 410:Generated_Source\PSoC5/Boundary8bit.c **** *
 411:Generated_Source\PSoC5/Boundary8bit.c **** * Return: 
 412:Generated_Source\PSoC5/Boundary8bit.c **** *  void
 413:Generated_Source\PSoC5/Boundary8bit.c **** *
 414:Generated_Source\PSoC5/Boundary8bit.c **** *******************************************************************************/
 415:Generated_Source\PSoC5/Boundary8bit.c **** void Boundary8bit_WritePeriod(uint8 period) 
 416:Generated_Source\PSoC5/Boundary8bit.c **** {
 307              		.loc 1 416 0
 308              		.cfi_startproc
 309              		@ args = 0, pretend = 0, frame = 0
 310              		@ frame_needed = 0, uses_anonymous_args = 0
 311              		@ link register save eliminated.
 312              	.LVL5:
 417:Generated_Source\PSoC5/Boundary8bit.c ****     #if(Boundary8bit_UsingFixedFunction)
 418:Generated_Source\PSoC5/Boundary8bit.c ****         CY_SET_REG16(Boundary8bit_PERIOD_LSB_PTR,(uint16)period);
 313              		.loc 1 418 0
 314 0000 014B     		ldr	r3, .L31
 315 0002 1880     		strh	r0, [r3]	@ movhi
 316 0004 7047     		bx	lr
 317              	.L32:
 318 0006 00BF     		.align	2
 319              	.L31:
 320 0008 044F0040 		.word	1073762052
 321              		.cfi_endproc
 322              	.LFE11:
 323              		.size	Boundary8bit_WritePeriod, .-Boundary8bit_WritePeriod
ARM GAS  C:\Users\EA527~1.IVA\AppData\Local\Temp\ccwS67DV.s 			page 14


 324              		.section	.text.Boundary8bit_Init,"ax",%progbits
 325              		.align	2
 326              		.global	Boundary8bit_Init
 327              		.thumb
 328              		.thumb_func
 329              		.type	Boundary8bit_Init, %function
 330              	Boundary8bit_Init:
 331              	.LFB0:
  38:Generated_Source\PSoC5/Boundary8bit.c ****         #if (!Boundary8bit_UsingFixedFunction && !Boundary8bit_ControlRegRemoved)
 332              		.loc 1 38 0
 333              		.cfi_startproc
 334              		@ args = 0, pretend = 0, frame = 0
 335              		@ frame_needed = 0, uses_anonymous_args = 0
 336 0000 08B5     		push	{r3, lr}
 337              		.cfi_def_cfa_offset 8
 338              		.cfi_offset 3, -8
 339              		.cfi_offset 14, -4
  50:Generated_Source\PSoC5/Boundary8bit.c ****             
 340              		.loc 1 50 0
 341 0002 154A     		ldr	r2, .L35
 342 0004 1378     		ldrb	r3, [r2]	@ zero_extendqisi2
 343 0006 03F00103 		and	r3, r3, #1
 344 000a 1370     		strb	r3, [r2]
  57:Generated_Source\PSoC5/Boundary8bit.c ****             #endif /* (CY_PSOC3 || CY_PSOC5LP) */
 345              		.loc 1 57 0
 346 000c 0232     		adds	r2, r2, #2
 347 000e 1378     		ldrb	r3, [r2]	@ zero_extendqisi2
 348 0010 03F0FC03 		and	r3, r3, #252
 349 0014 1370     		strb	r3, [r2]
  66:Generated_Source\PSoC5/Boundary8bit.c ****             
 350              		.loc 1 66 0
 351 0016 013A     		subs	r2, r2, #1
 352 0018 1378     		ldrb	r3, [r2]	@ zero_extendqisi2
 353 001a 43F00103 		orr	r3, r3, #1
 354 001e 1370     		strb	r3, [r2]
  69:Generated_Source\PSoC5/Boundary8bit.c ****             Boundary8bit_RT1 |= Boundary8bit_SYNC;     
 355              		.loc 1 69 0
 356 0020 0E4B     		ldr	r3, .L35+4
 357 0022 1A78     		ldrb	r2, [r3]	@ zero_extendqisi2
 358 0024 02F0CF02 		and	r2, r2, #207
 359 0028 1A70     		strb	r2, [r3]
  70:Generated_Source\PSoC5/Boundary8bit.c ****                     
 360              		.loc 1 70 0
 361 002a 1A78     		ldrb	r2, [r3]	@ zero_extendqisi2
 362 002c 42F03002 		orr	r2, r2, #48
 363 0030 1A70     		strb	r2, [r3]
  73:Generated_Source\PSoC5/Boundary8bit.c ****             Boundary8bit_RT1 |= Boundary8bit_SYNCDSI_EN;
 364              		.loc 1 73 0
 365 0032 1A78     		ldrb	r2, [r3]	@ zero_extendqisi2
 366 0034 02F0F002 		and	r2, r2, #240
 367 0038 1A70     		strb	r2, [r3]
  74:Generated_Source\PSoC5/Boundary8bit.c **** 
 368              		.loc 1 74 0
 369 003a 1A78     		ldrb	r2, [r3]	@ zero_extendqisi2
 370 003c 42F00F02 		orr	r2, r2, #15
 371 0040 1A70     		strb	r2, [r3]
 100:Generated_Source\PSoC5/Boundary8bit.c ****         #if (!(Boundary8bit_UsingFixedFunction && (CY_PSOC5A)))
ARM GAS  C:\Users\EA527~1.IVA\AppData\Local\Temp\ccwS67DV.s 			page 15


 372              		.loc 1 100 0
 373 0042 0720     		movs	r0, #7
 374 0044 FFF7FEFF 		bl	Boundary8bit_WritePeriod
 375              	.LVL6:
 102:Generated_Source\PSoC5/Boundary8bit.c ****         #endif /* (!(Boundary8bit_UsingFixedFunction && (CY_PSOC5A))) */
 376              		.loc 1 102 0
 377 0048 0020     		movs	r0, #0
 378 004a FFF7FEFF 		bl	Boundary8bit_WriteCounter
 379              	.LVL7:
 104:Generated_Source\PSoC5/Boundary8bit.c ****         
 380              		.loc 1 104 0
 381 004e 0020     		movs	r0, #0
 382 0050 FFF7FEFF 		bl	Boundary8bit_SetInterruptMode
 383              	.LVL8:
 384 0054 08BD     		pop	{r3, pc}
 385              	.L36:
 386 0056 00BF     		.align	2
 387              	.L35:
 388 0058 004F0040 		.word	1073762048
 389 005c 0B4F0040 		.word	1073762059
 390              		.cfi_endproc
 391              	.LFE0:
 392              		.size	Boundary8bit_Init, .-Boundary8bit_Init
 393              		.section	.text.Boundary8bit_Start,"ax",%progbits
 394              		.align	2
 395              		.global	Boundary8bit_Start
 396              		.thumb
 397              		.thumb_func
 398              		.type	Boundary8bit_Start, %function
 399              	Boundary8bit_Start:
 400              	.LFB2:
 179:Generated_Source\PSoC5/Boundary8bit.c ****     if(Boundary8bit_initVar == 0u)
 401              		.loc 1 179 0
 402              		.cfi_startproc
 403              		@ args = 0, pretend = 0, frame = 0
 404              		@ frame_needed = 0, uses_anonymous_args = 0
 405 0000 08B5     		push	{r3, lr}
 406              		.cfi_def_cfa_offset 8
 407              		.cfi_offset 3, -8
 408              		.cfi_offset 14, -4
 180:Generated_Source\PSoC5/Boundary8bit.c ****     {
 409              		.loc 1 180 0
 410 0002 054B     		ldr	r3, .L40
 411 0004 1B78     		ldrb	r3, [r3]	@ zero_extendqisi2
 412 0006 23B9     		cbnz	r3, .L38
 182:Generated_Source\PSoC5/Boundary8bit.c ****         
 413              		.loc 1 182 0
 414 0008 FFF7FEFF 		bl	Boundary8bit_Init
 415              	.LVL9:
 184:Generated_Source\PSoC5/Boundary8bit.c ****     }
 416              		.loc 1 184 0
 417 000c 0122     		movs	r2, #1
 418 000e 024B     		ldr	r3, .L40
 419 0010 1A70     		strb	r2, [r3]
 420              	.L38:
 188:Generated_Source\PSoC5/Boundary8bit.c **** }
 421              		.loc 1 188 0
ARM GAS  C:\Users\EA527~1.IVA\AppData\Local\Temp\ccwS67DV.s 			page 16


 422 0012 FFF7FEFF 		bl	Boundary8bit_Enable
 423              	.LVL10:
 424 0016 08BD     		pop	{r3, pc}
 425              	.L41:
 426              		.align	2
 427              	.L40:
 428 0018 00000000 		.word	.LANCHOR0
 429              		.cfi_endproc
 430              	.LFE2:
 431              		.size	Boundary8bit_Start, .-Boundary8bit_Start
 432              		.section	.text.Boundary8bit_ReadPeriod,"ax",%progbits
 433              		.align	2
 434              		.global	Boundary8bit_ReadPeriod
 435              		.thumb
 436              		.thumb_func
 437              		.type	Boundary8bit_ReadPeriod, %function
 438              	Boundary8bit_ReadPeriod:
 439              	.LFB12:
 419:Generated_Source\PSoC5/Boundary8bit.c ****     #else
 420:Generated_Source\PSoC5/Boundary8bit.c ****         CY_SET_REG8(Boundary8bit_PERIOD_LSB_PTR, period);
 421:Generated_Source\PSoC5/Boundary8bit.c ****     #endif /* (Boundary8bit_UsingFixedFunction) */
 422:Generated_Source\PSoC5/Boundary8bit.c **** }
 423:Generated_Source\PSoC5/Boundary8bit.c **** 
 424:Generated_Source\PSoC5/Boundary8bit.c **** 
 425:Generated_Source\PSoC5/Boundary8bit.c **** /*******************************************************************************
 426:Generated_Source\PSoC5/Boundary8bit.c **** * Function Name: Boundary8bit_ReadPeriod
 427:Generated_Source\PSoC5/Boundary8bit.c **** ********************************************************************************
 428:Generated_Source\PSoC5/Boundary8bit.c **** * Summary:
 429:Generated_Source\PSoC5/Boundary8bit.c **** * Reads the current period value without affecting counter operation.
 430:Generated_Source\PSoC5/Boundary8bit.c **** *
 431:Generated_Source\PSoC5/Boundary8bit.c **** * Parameters:  
 432:Generated_Source\PSoC5/Boundary8bit.c **** *  void:  
 433:Generated_Source\PSoC5/Boundary8bit.c **** *
 434:Generated_Source\PSoC5/Boundary8bit.c **** * Return: 
 435:Generated_Source\PSoC5/Boundary8bit.c **** *  (uint8) Present period value.
 436:Generated_Source\PSoC5/Boundary8bit.c **** *
 437:Generated_Source\PSoC5/Boundary8bit.c **** *******************************************************************************/
 438:Generated_Source\PSoC5/Boundary8bit.c **** uint8 Boundary8bit_ReadPeriod(void) 
 439:Generated_Source\PSoC5/Boundary8bit.c **** {
 440              		.loc 1 439 0
 441              		.cfi_startproc
 442              		@ args = 0, pretend = 0, frame = 0
 443              		@ frame_needed = 0, uses_anonymous_args = 0
 444              		@ link register save eliminated.
 440:Generated_Source\PSoC5/Boundary8bit.c ****     #if(Boundary8bit_UsingFixedFunction)
 441:Generated_Source\PSoC5/Boundary8bit.c ****         return ((uint8)CY_GET_REG16(Boundary8bit_PERIOD_LSB_PTR));
 445              		.loc 1 441 0
 446 0000 014B     		ldr	r3, .L43
 447 0002 1888     		ldrh	r0, [r3]
 442:Generated_Source\PSoC5/Boundary8bit.c ****     #else
 443:Generated_Source\PSoC5/Boundary8bit.c ****         return (CY_GET_REG8(Boundary8bit_PERIOD_LSB_PTR));
 444:Generated_Source\PSoC5/Boundary8bit.c ****     #endif /* (Boundary8bit_UsingFixedFunction) */
 445:Generated_Source\PSoC5/Boundary8bit.c **** }
 448              		.loc 1 445 0
 449 0004 C0B2     		uxtb	r0, r0
 450 0006 7047     		bx	lr
 451              	.L44:
ARM GAS  C:\Users\EA527~1.IVA\AppData\Local\Temp\ccwS67DV.s 			page 17


 452              		.align	2
 453              	.L43:
 454 0008 044F0040 		.word	1073762052
 455              		.cfi_endproc
 456              	.LFE12:
 457              		.size	Boundary8bit_ReadPeriod, .-Boundary8bit_ReadPeriod
 458              		.global	Boundary8bit_initVar
 459              		.bss
 460              		.set	.LANCHOR0,. + 0
 461              		.type	Boundary8bit_initVar, %object
 462              		.size	Boundary8bit_initVar, 1
 463              	Boundary8bit_initVar:
 464 0000 00       		.space	1
 465              		.text
 466              	.Letext0:
 467              		.file 2 "Generated_Source\\PSoC5\\cytypes.h"
 468              		.file 3 "Generated_Source\\PSoC5\\CyLib.h"