ARM GAS  C:\Users\EA527~1.IVA\AppData\Local\Temp\ccYNl4Ax.s 			page 1


   1              		.syntax unified
   2              		.cpu cortex-m3
   3              		.fpu softvfp
   4              		.eabi_attribute 20, 1
   5              		.eabi_attribute 21, 1
   6              		.eabi_attribute 23, 3
   7              		.eabi_attribute 24, 1
   8              		.eabi_attribute 25, 1
   9              		.eabi_attribute 26, 1
  10              		.eabi_attribute 30, 1
  11              		.eabi_attribute 34, 1
  12              		.eabi_attribute 18, 4
  13              		.thumb
  14              		.syntax unified
  15              		.file	"cap_comp_tc.c"
  16              		.text
  17              	.Ltext0:
  18              		.cfi_sections	.debug_frame
  19              		.global	__aeabi_ldivmod
  20              		.section	.text.convert_to_utc,"ax",%progbits
  21              		.align	2
  22              		.global	convert_to_utc
  23              		.thumb
  24              		.thumb_func
  25              		.type	convert_to_utc, %function
  26              	convert_to_utc:
  27              	.LFB64:
  28              		.file 1 "Generated_Source\\PSoC5\\cap_comp_tc.c"
   1:Generated_Source\PSoC5/cap_comp_tc.c **** /*******************************************************************************
   2:Generated_Source\PSoC5/cap_comp_tc.c **** * File Name: cap_comp_tc.c  
   3:Generated_Source\PSoC5/cap_comp_tc.c **** * Version 1.70
   4:Generated_Source\PSoC5/cap_comp_tc.c **** *
   5:Generated_Source\PSoC5/cap_comp_tc.c **** *  Description:
   6:Generated_Source\PSoC5/cap_comp_tc.c **** *   API for controlling the state of an interrupt.
   7:Generated_Source\PSoC5/cap_comp_tc.c **** *
   8:Generated_Source\PSoC5/cap_comp_tc.c **** *
   9:Generated_Source\PSoC5/cap_comp_tc.c **** *  Note:
  10:Generated_Source\PSoC5/cap_comp_tc.c **** *
  11:Generated_Source\PSoC5/cap_comp_tc.c **** ********************************************************************************
  12:Generated_Source\PSoC5/cap_comp_tc.c **** * Copyright 2008-2015, Cypress Semiconductor Corporation.  All rights reserved.
  13:Generated_Source\PSoC5/cap_comp_tc.c **** * You may use this file only in accordance with the license, terms, conditions, 
  14:Generated_Source\PSoC5/cap_comp_tc.c **** * disclaimers, and limitations in the end user license agreement accompanying 
  15:Generated_Source\PSoC5/cap_comp_tc.c **** * the software package with which this file was provided.
  16:Generated_Source\PSoC5/cap_comp_tc.c **** *******************************************************************************/
  17:Generated_Source\PSoC5/cap_comp_tc.c **** 
  18:Generated_Source\PSoC5/cap_comp_tc.c **** 
  19:Generated_Source\PSoC5/cap_comp_tc.c **** #include <cydevice_trm.h>
  20:Generated_Source\PSoC5/cap_comp_tc.c **** #include <CyLib.h>
  21:Generated_Source\PSoC5/cap_comp_tc.c **** #include <cap_comp_tc.h>
  22:Generated_Source\PSoC5/cap_comp_tc.c **** #include "cyapicallbacks.h"
  23:Generated_Source\PSoC5/cap_comp_tc.c **** 
  24:Generated_Source\PSoC5/cap_comp_tc.c **** #if !defined(cap_comp_tc__REMOVED) /* Check for removal by optimization */
  25:Generated_Source\PSoC5/cap_comp_tc.c **** 
  26:Generated_Source\PSoC5/cap_comp_tc.c **** /*******************************************************************************
  27:Generated_Source\PSoC5/cap_comp_tc.c **** *  Place your includes, defines and code here 
  28:Generated_Source\PSoC5/cap_comp_tc.c **** ********************************************************************************/
  29:Generated_Source\PSoC5/cap_comp_tc.c **** /* `#START cap_comp_tc_intc` */
ARM GAS  C:\Users\EA527~1.IVA\AppData\Local\Temp\ccYNl4Ax.s 			page 2


  30:Generated_Source\PSoC5/cap_comp_tc.c **** #include <global.h>
  31:Generated_Source\PSoC5/cap_comp_tc.c ****     
  32:Generated_Source\PSoC5/cap_comp_tc.c **** long long convert_to_utc (uint32 high, uint32 low) {
  29              		.loc 1 32 0
  30              		.cfi_startproc
  31              		@ args = 0, pretend = 0, frame = 0
  32              		@ frame_needed = 0, uses_anonymous_args = 0
  33              	.LVL0:
  34 0000 38B5     		push	{r3, r4, r5, lr}
  35              		.cfi_def_cfa_offset 16
  36              		.cfi_offset 3, -16
  37              		.cfi_offset 4, -12
  38              		.cfi_offset 5, -8
  39              		.cfi_offset 14, -4
  33:Generated_Source\PSoC5/cap_comp_tc.c ****     long long result = (((long long)high << usec_counter_Resolution) + low);
  40              		.loc 1 33 0
  41 0002 050A     		lsrs	r5, r0, #8
  42 0004 0406     		lsls	r4, r0, #24
  43 0006 6418     		adds	r4, r4, r1
  44 0008 45F10005 		adc	r5, r5, #0
  45              	.LVL1:
  34:Generated_Source\PSoC5/cap_comp_tc.c ****     result >>= 11;
  46              		.loc 1 34 0
  47 000c E00A     		lsrs	r0, r4, #11
  48              	.LVL2:
  35:Generated_Source\PSoC5/cap_comp_tc.c ****     result /= 1000;
  49              		.loc 1 35 0
  50 000e 4FF47A72 		mov	r2, #1000
  51 0012 0023     		movs	r3, #0
  52 0014 40EA4550 		orr	r0, r0, r5, lsl #21
  53              	.LVL3:
  54 0018 E912     		asrs	r1, r5, #11
  55              	.LVL4:
  56 001a FFF7FEFF 		bl	__aeabi_ldivmod
  57              	.LVL5:
  36:Generated_Source\PSoC5/cap_comp_tc.c ****     result >>= 11;    
  58              		.loc 1 36 0
  59 001e C00A     		lsrs	r0, r0, #11
  60              	.LVL6:
  37:Generated_Source\PSoC5/cap_comp_tc.c ****     return result;
  38:Generated_Source\PSoC5/cap_comp_tc.c **** }
  61              		.loc 1 38 0
  62 0020 40EA4150 		orr	r0, r0, r1, lsl #21
  63              	.LVL7:
  64 0024 C912     		asrs	r1, r1, #11
  65 0026 38BD     		pop	{r3, r4, r5, pc}
  66              		.cfi_endproc
  67              	.LFE64:
  68              		.size	convert_to_utc, .-convert_to_utc
  69              		.section	.text.convert_utc_to,"ax",%progbits
  70              		.align	2
  71              		.global	convert_utc_to
  72              		.thumb
  73              		.thumb_func
  74              		.type	convert_utc_to, %function
  75              	convert_utc_to:
  76              	.LFB65:
ARM GAS  C:\Users\EA527~1.IVA\AppData\Local\Temp\ccYNl4Ax.s 			page 3


  39:Generated_Source\PSoC5/cap_comp_tc.c **** 
  40:Generated_Source\PSoC5/cap_comp_tc.c ****  long long convert_utc_to (uint32 sec){
  77              		.loc 1 40 0
  78              		.cfi_startproc
  79              		@ args = 0, pretend = 0, frame = 0
  80              		@ frame_needed = 0, uses_anonymous_args = 0
  81              		@ link register save eliminated.
  82              	.LVL8:
  83 0000 10B4     		push	{r4}
  84              		.cfi_def_cfa_offset 4
  85              		.cfi_offset 4, -4
  41:Generated_Source\PSoC5/cap_comp_tc.c ****     long long result = sec >> 2;
  86              		.loc 1 41 0
  87 0002 8408     		lsrs	r4, r0, #2
  88              	.LVL9:
  42:Generated_Source\PSoC5/cap_comp_tc.c ****     result *= 1000;
  89              		.loc 1 42 0
  90 0004 A000     		lsls	r0, r4, #2
  91              	.LVL10:
  92 0006 0021     		movs	r1, #0
  93 0008 4B01     		lsls	r3, r1, #5
  94 000a 43EAD063 		orr	r3, r3, r0, lsr #27
  95 000e 4201     		lsls	r2, r0, #5
  96 0010 121A     		subs	r2, r2, r0
  97 0012 63EB0103 		sbc	r3, r3, r1
  98 0016 1019     		adds	r0, r2, r4
  99 0018 43F10001 		adc	r1, r3, #0
 100 001c CB00     		lsls	r3, r1, #3
 101 001e 43EA5073 		orr	r3, r3, r0, lsr #29
 102 0022 C200     		lsls	r2, r0, #3
 103 0024 1046     		mov	r0, r2
 104 0026 1946     		mov	r1, r3
 105              	.LVL11:
  43:Generated_Source\PSoC5/cap_comp_tc.c ****     return result;
  44:Generated_Source\PSoC5/cap_comp_tc.c **** }
 106              		.loc 1 44 0
 107 0028 10BC     		pop	{r4}
 108              		.cfi_restore 4
 109              		.cfi_def_cfa_offset 0
 110 002a 7047     		bx	lr
 111              		.cfi_endproc
 112              	.LFE65:
 113              		.size	convert_utc_to, .-convert_utc_to
 114              		.section	.text.compare_service,"ax",%progbits
 115              		.align	2
 116              		.global	compare_service
 117              		.thumb
 118              		.thumb_func
 119              		.type	compare_service, %function
 120              	compare_service:
 121              	.LFB66:
  45:Generated_Source\PSoC5/cap_comp_tc.c ****     
  46:Generated_Source\PSoC5/cap_comp_tc.c **** void compare_service(uint32 tmp) 
  47:Generated_Source\PSoC5/cap_comp_tc.c **** {
 122              		.loc 1 47 0
 123              		.cfi_startproc
 124              		@ args = 0, pretend = 0, frame = 0
ARM GAS  C:\Users\EA527~1.IVA\AppData\Local\Temp\ccYNl4Ax.s 			page 4


 125              		@ frame_needed = 0, uses_anonymous_args = 0
 126              	.LVL12:
 127 0000 38B5     		push	{r3, r4, r5, lr}
 128              		.cfi_def_cfa_offset 16
 129              		.cfi_offset 3, -16
 130              		.cfi_offset 4, -12
 131              		.cfi_offset 5, -8
 132              		.cfi_offset 14, -4
  48:Generated_Source\PSoC5/cap_comp_tc.c ****     if ((tmp & usec_counter_STATUS_CMP) != 0)
 133              		.loc 1 48 0
 134 0002 10F0010F 		tst	r0, #1
 135 0006 23D0     		beq	.L6
 136              	.LBB2:
  49:Generated_Source\PSoC5/cap_comp_tc.c ****     {
  50:Generated_Source\PSoC5/cap_comp_tc.c ****         uint32 capture_high, capture_low1, capture_low2; 
  51:Generated_Source\PSoC5/cap_comp_tc.c ****         uint32 compare =  capture_low2 = usec_counter_ReadCompare();
 137              		.loc 1 51 0
 138 0008 FFF7FEFF 		bl	usec_counter_ReadCompare
 139              	.LVL13:
 140 000c 0446     		mov	r4, r0
 141              	.LVL14:
  52:Generated_Source\PSoC5/cap_comp_tc.c ****         compare += incr_compare;
 142              		.loc 1 52 0
 143 000e 124B     		ldr	r3, .L11
 144 0010 1868     		ldr	r0, [r3]
 145              	.LVL15:
 146 0012 2044     		add	r0, r0, r4
 147              	.LVL16:
  53:Generated_Source\PSoC5/cap_comp_tc.c ****         compare &= (1 << usec_counter_Resolution)-1;
  54:Generated_Source\PSoC5/cap_comp_tc.c ****         usec_counter_WriteCompare(compare); 
 148              		.loc 1 54 0
 149 0014 20F07F40 		bic	r0, r0, #-16777216
 150              	.LVL17:
 151 0018 FFF7FEFF 		bl	usec_counter_WriteCompare
 152              	.LVL18:
  55:Generated_Source\PSoC5/cap_comp_tc.c ****         if (capture_flag == 0)
 153              		.loc 1 55 0
 154 001c 0F4B     		ldr	r3, .L11+4
 155 001e 1B68     		ldr	r3, [r3]
 156 0020 83B9     		cbnz	r3, .L7
 157 0022 00E0     		b	.L8
 158              	.LVL19:
 159              	.L9:
  56:Generated_Source\PSoC5/cap_comp_tc.c ****         {
  57:Generated_Source\PSoC5/cap_comp_tc.c ****             do{
  58:Generated_Source\PSoC5/cap_comp_tc.c ****                 capture_low1 = capture_low2;
  59:Generated_Source\PSoC5/cap_comp_tc.c ****                 capture_high = sec_counter_ReadCapture();
  60:Generated_Source\PSoC5/cap_comp_tc.c ****                 capture_low2 = usec_counter_ReadCapture();
 160              		.loc 1 60 0
 161 0024 0446     		mov	r4, r0
 162              	.LVL20:
 163              	.L8:
  59:Generated_Source\PSoC5/cap_comp_tc.c ****                 capture_low2 = usec_counter_ReadCapture();
 164              		.loc 1 59 0 discriminator 1
 165 0026 FFF7FEFF 		bl	sec_counter_ReadCapture
 166              	.LVL21:
 167 002a 0546     		mov	r5, r0
ARM GAS  C:\Users\EA527~1.IVA\AppData\Local\Temp\ccYNl4Ax.s 			page 5


 168              	.LVL22:
 169              		.loc 1 60 0 discriminator 1
 170 002c FFF7FEFF 		bl	usec_counter_ReadCapture
 171              	.LVL23:
  61:Generated_Source\PSoC5/cap_comp_tc.c ****             } while (capture_low1 > capture_low2);
 172              		.loc 1 61 0 discriminator 1
 173 0030 8442     		cmp	r4, r0
 174 0032 F7D8     		bhi	.L9
  62:Generated_Source\PSoC5/cap_comp_tc.c ****             utc_time = convert_to_utc(capture_high , capture_low1);
 175              		.loc 1 62 0
 176 0034 2146     		mov	r1, r4
 177 0036 2846     		mov	r0, r5
 178              	.LVL24:
 179 0038 FFF7FEFF 		bl	convert_to_utc
 180              	.LVL25:
 181 003c 084B     		ldr	r3, .L11+8
 182 003e C3E90001 		strd	r0, [r3]
 183 0042 05E0     		b	.L6
 184              	.LVL26:
 185              	.L7:
  63:Generated_Source\PSoC5/cap_comp_tc.c ****         }
  64:Generated_Source\PSoC5/cap_comp_tc.c ****         else utc_time = pps_time;
 186              		.loc 1 64 0
 187 0044 074B     		ldr	r3, .L11+12
 188 0046 D3E90001 		ldrd	r0, [r3]
 189 004a 054B     		ldr	r3, .L11+8
 190 004c C3E90001 		strd	r0, [r3]
 191              	.LVL27:
 192              	.L6:
 193              	.LBE2:
  65:Generated_Source\PSoC5/cap_comp_tc.c ****     }
  66:Generated_Source\PSoC5/cap_comp_tc.c ****     capture_flag = 0;
 194              		.loc 1 66 0
 195 0050 0022     		movs	r2, #0
 196 0052 024B     		ldr	r3, .L11+4
 197 0054 1A60     		str	r2, [r3]
 198 0056 38BD     		pop	{r3, r4, r5, pc}
 199              	.L12:
 200              		.align	2
 201              	.L11:
 202 0058 00000000 		.word	incr_compare
 203 005c 00000000 		.word	capture_flag
 204 0060 00000000 		.word	utc_time
 205 0064 00000000 		.word	pps_time
 206              		.cfi_endproc
 207              	.LFE66:
 208              		.size	compare_service, .-compare_service
 209              		.section	.text.cap_comp_tc_SetVector,"ax",%progbits
 210              		.align	2
 211              		.global	cap_comp_tc_SetVector
 212              		.thumb
 213              		.thumb_func
 214              		.type	cap_comp_tc_SetVector, %function
 215              	cap_comp_tc_SetVector:
 216              	.LFB71:
  67:Generated_Source\PSoC5/cap_comp_tc.c **** }
  68:Generated_Source\PSoC5/cap_comp_tc.c **** 
ARM GAS  C:\Users\EA527~1.IVA\AppData\Local\Temp\ccYNl4Ax.s 			page 6


  69:Generated_Source\PSoC5/cap_comp_tc.c **** /* `#END` */
  70:Generated_Source\PSoC5/cap_comp_tc.c **** 
  71:Generated_Source\PSoC5/cap_comp_tc.c **** #ifndef CYINT_IRQ_BASE
  72:Generated_Source\PSoC5/cap_comp_tc.c **** #define CYINT_IRQ_BASE      16
  73:Generated_Source\PSoC5/cap_comp_tc.c **** #endif /* CYINT_IRQ_BASE */
  74:Generated_Source\PSoC5/cap_comp_tc.c **** #ifndef CYINT_VECT_TABLE
  75:Generated_Source\PSoC5/cap_comp_tc.c **** #define CYINT_VECT_TABLE    ((cyisraddress **) CYREG_NVIC_VECT_OFFSET)
  76:Generated_Source\PSoC5/cap_comp_tc.c **** #endif /* CYINT_VECT_TABLE */
  77:Generated_Source\PSoC5/cap_comp_tc.c **** 
  78:Generated_Source\PSoC5/cap_comp_tc.c **** /* Declared in startup, used to set unused interrupts to. */
  79:Generated_Source\PSoC5/cap_comp_tc.c **** CY_ISR_PROTO(IntDefaultHandler);
  80:Generated_Source\PSoC5/cap_comp_tc.c **** 
  81:Generated_Source\PSoC5/cap_comp_tc.c **** 
  82:Generated_Source\PSoC5/cap_comp_tc.c **** /*******************************************************************************
  83:Generated_Source\PSoC5/cap_comp_tc.c **** * Function Name: cap_comp_tc_Start
  84:Generated_Source\PSoC5/cap_comp_tc.c **** ********************************************************************************
  85:Generated_Source\PSoC5/cap_comp_tc.c **** *
  86:Generated_Source\PSoC5/cap_comp_tc.c **** * Summary:
  87:Generated_Source\PSoC5/cap_comp_tc.c **** *  Set up the interrupt and enable it. This function disables the interrupt, 
  88:Generated_Source\PSoC5/cap_comp_tc.c **** *  sets the default interrupt vector, sets the priority from the value in the
  89:Generated_Source\PSoC5/cap_comp_tc.c **** *  Design Wide Resources Interrupt Editor, then enables the interrupt to the 
  90:Generated_Source\PSoC5/cap_comp_tc.c **** *  interrupt controller.
  91:Generated_Source\PSoC5/cap_comp_tc.c **** *
  92:Generated_Source\PSoC5/cap_comp_tc.c **** * Parameters:  
  93:Generated_Source\PSoC5/cap_comp_tc.c **** *   None
  94:Generated_Source\PSoC5/cap_comp_tc.c **** *
  95:Generated_Source\PSoC5/cap_comp_tc.c **** * Return:
  96:Generated_Source\PSoC5/cap_comp_tc.c **** *   None
  97:Generated_Source\PSoC5/cap_comp_tc.c **** *
  98:Generated_Source\PSoC5/cap_comp_tc.c **** *******************************************************************************/
  99:Generated_Source\PSoC5/cap_comp_tc.c **** void cap_comp_tc_Start(void)
 100:Generated_Source\PSoC5/cap_comp_tc.c **** {
 101:Generated_Source\PSoC5/cap_comp_tc.c ****     /* For all we know the interrupt is active. */
 102:Generated_Source\PSoC5/cap_comp_tc.c ****     cap_comp_tc_Disable();
 103:Generated_Source\PSoC5/cap_comp_tc.c **** 
 104:Generated_Source\PSoC5/cap_comp_tc.c ****     /* Set the ISR to point to the cap_comp_tc Interrupt. */
 105:Generated_Source\PSoC5/cap_comp_tc.c ****     cap_comp_tc_SetVector(&cap_comp_tc_Interrupt);
 106:Generated_Source\PSoC5/cap_comp_tc.c **** 
 107:Generated_Source\PSoC5/cap_comp_tc.c ****     /* Set the priority. */
 108:Generated_Source\PSoC5/cap_comp_tc.c ****     cap_comp_tc_SetPriority((uint8)cap_comp_tc_INTC_PRIOR_NUMBER);
 109:Generated_Source\PSoC5/cap_comp_tc.c **** 
 110:Generated_Source\PSoC5/cap_comp_tc.c ****     /* Enable it. */
 111:Generated_Source\PSoC5/cap_comp_tc.c ****     cap_comp_tc_Enable();
 112:Generated_Source\PSoC5/cap_comp_tc.c **** }
 113:Generated_Source\PSoC5/cap_comp_tc.c **** 
 114:Generated_Source\PSoC5/cap_comp_tc.c **** 
 115:Generated_Source\PSoC5/cap_comp_tc.c **** /*******************************************************************************
 116:Generated_Source\PSoC5/cap_comp_tc.c **** * Function Name: cap_comp_tc_StartEx
 117:Generated_Source\PSoC5/cap_comp_tc.c **** ********************************************************************************
 118:Generated_Source\PSoC5/cap_comp_tc.c **** *
 119:Generated_Source\PSoC5/cap_comp_tc.c **** * Summary:
 120:Generated_Source\PSoC5/cap_comp_tc.c **** *  Sets up the interrupt and enables it. This function disables the interrupt,
 121:Generated_Source\PSoC5/cap_comp_tc.c **** *  sets the interrupt vector based on the address passed in, sets the priority 
 122:Generated_Source\PSoC5/cap_comp_tc.c **** *  from the value in the Design Wide Resources Interrupt Editor, then enables 
 123:Generated_Source\PSoC5/cap_comp_tc.c **** *  the interrupt to the interrupt controller.
 124:Generated_Source\PSoC5/cap_comp_tc.c **** *  
 125:Generated_Source\PSoC5/cap_comp_tc.c **** *  When defining ISR functions, the CY_ISR and CY_ISR_PROTO macros should be 
ARM GAS  C:\Users\EA527~1.IVA\AppData\Local\Temp\ccYNl4Ax.s 			page 7


 126:Generated_Source\PSoC5/cap_comp_tc.c **** *  used to provide consistent definition across compilers:
 127:Generated_Source\PSoC5/cap_comp_tc.c **** *  
 128:Generated_Source\PSoC5/cap_comp_tc.c **** *  Function definition example:
 129:Generated_Source\PSoC5/cap_comp_tc.c **** *   CY_ISR(MyISR)
 130:Generated_Source\PSoC5/cap_comp_tc.c **** *   {
 131:Generated_Source\PSoC5/cap_comp_tc.c **** *   }
 132:Generated_Source\PSoC5/cap_comp_tc.c **** *   Function prototype example:
 133:Generated_Source\PSoC5/cap_comp_tc.c **** *   CY_ISR_PROTO(MyISR);
 134:Generated_Source\PSoC5/cap_comp_tc.c **** *
 135:Generated_Source\PSoC5/cap_comp_tc.c **** * Parameters:  
 136:Generated_Source\PSoC5/cap_comp_tc.c **** *   address: Address of the ISR to set in the interrupt vector table.
 137:Generated_Source\PSoC5/cap_comp_tc.c **** *
 138:Generated_Source\PSoC5/cap_comp_tc.c **** * Return:
 139:Generated_Source\PSoC5/cap_comp_tc.c **** *   None
 140:Generated_Source\PSoC5/cap_comp_tc.c **** *
 141:Generated_Source\PSoC5/cap_comp_tc.c **** *******************************************************************************/
 142:Generated_Source\PSoC5/cap_comp_tc.c **** void cap_comp_tc_StartEx(cyisraddress address)
 143:Generated_Source\PSoC5/cap_comp_tc.c **** {
 144:Generated_Source\PSoC5/cap_comp_tc.c ****     /* For all we know the interrupt is active. */
 145:Generated_Source\PSoC5/cap_comp_tc.c ****     cap_comp_tc_Disable();
 146:Generated_Source\PSoC5/cap_comp_tc.c **** 
 147:Generated_Source\PSoC5/cap_comp_tc.c ****     /* Set the ISR to point to the cap_comp_tc Interrupt. */
 148:Generated_Source\PSoC5/cap_comp_tc.c ****     cap_comp_tc_SetVector(address);
 149:Generated_Source\PSoC5/cap_comp_tc.c **** 
 150:Generated_Source\PSoC5/cap_comp_tc.c ****     /* Set the priority. */
 151:Generated_Source\PSoC5/cap_comp_tc.c ****     cap_comp_tc_SetPriority((uint8)cap_comp_tc_INTC_PRIOR_NUMBER);
 152:Generated_Source\PSoC5/cap_comp_tc.c **** 
 153:Generated_Source\PSoC5/cap_comp_tc.c ****     /* Enable it. */
 154:Generated_Source\PSoC5/cap_comp_tc.c ****     cap_comp_tc_Enable();
 155:Generated_Source\PSoC5/cap_comp_tc.c **** }
 156:Generated_Source\PSoC5/cap_comp_tc.c **** 
 157:Generated_Source\PSoC5/cap_comp_tc.c **** 
 158:Generated_Source\PSoC5/cap_comp_tc.c **** /*******************************************************************************
 159:Generated_Source\PSoC5/cap_comp_tc.c **** * Function Name: cap_comp_tc_Stop
 160:Generated_Source\PSoC5/cap_comp_tc.c **** ********************************************************************************
 161:Generated_Source\PSoC5/cap_comp_tc.c **** *
 162:Generated_Source\PSoC5/cap_comp_tc.c **** * Summary:
 163:Generated_Source\PSoC5/cap_comp_tc.c **** *   Disables and removes the interrupt.
 164:Generated_Source\PSoC5/cap_comp_tc.c **** *
 165:Generated_Source\PSoC5/cap_comp_tc.c **** * Parameters:  
 166:Generated_Source\PSoC5/cap_comp_tc.c **** *   None
 167:Generated_Source\PSoC5/cap_comp_tc.c **** *
 168:Generated_Source\PSoC5/cap_comp_tc.c **** * Return:
 169:Generated_Source\PSoC5/cap_comp_tc.c **** *   None
 170:Generated_Source\PSoC5/cap_comp_tc.c **** *
 171:Generated_Source\PSoC5/cap_comp_tc.c **** *******************************************************************************/
 172:Generated_Source\PSoC5/cap_comp_tc.c **** void cap_comp_tc_Stop(void)
 173:Generated_Source\PSoC5/cap_comp_tc.c **** {
 174:Generated_Source\PSoC5/cap_comp_tc.c ****     /* Disable this interrupt. */
 175:Generated_Source\PSoC5/cap_comp_tc.c ****     cap_comp_tc_Disable();
 176:Generated_Source\PSoC5/cap_comp_tc.c **** 
 177:Generated_Source\PSoC5/cap_comp_tc.c ****     /* Set the ISR to point to the passive one. */
 178:Generated_Source\PSoC5/cap_comp_tc.c ****     cap_comp_tc_SetVector(&IntDefaultHandler);
 179:Generated_Source\PSoC5/cap_comp_tc.c **** }
 180:Generated_Source\PSoC5/cap_comp_tc.c **** 
 181:Generated_Source\PSoC5/cap_comp_tc.c **** 
 182:Generated_Source\PSoC5/cap_comp_tc.c **** /*******************************************************************************
ARM GAS  C:\Users\EA527~1.IVA\AppData\Local\Temp\ccYNl4Ax.s 			page 8


 183:Generated_Source\PSoC5/cap_comp_tc.c **** * Function Name: cap_comp_tc_Interrupt
 184:Generated_Source\PSoC5/cap_comp_tc.c **** ********************************************************************************
 185:Generated_Source\PSoC5/cap_comp_tc.c **** *
 186:Generated_Source\PSoC5/cap_comp_tc.c **** * Summary:
 187:Generated_Source\PSoC5/cap_comp_tc.c **** *   The default Interrupt Service Routine for cap_comp_tc.
 188:Generated_Source\PSoC5/cap_comp_tc.c **** *
 189:Generated_Source\PSoC5/cap_comp_tc.c **** *   Add custom code between the coments to keep the next version of this file
 190:Generated_Source\PSoC5/cap_comp_tc.c **** *   from over writting your code.
 191:Generated_Source\PSoC5/cap_comp_tc.c **** *
 192:Generated_Source\PSoC5/cap_comp_tc.c **** * Parameters:  
 193:Generated_Source\PSoC5/cap_comp_tc.c **** *
 194:Generated_Source\PSoC5/cap_comp_tc.c **** * Return:
 195:Generated_Source\PSoC5/cap_comp_tc.c **** *   None
 196:Generated_Source\PSoC5/cap_comp_tc.c **** *
 197:Generated_Source\PSoC5/cap_comp_tc.c **** *******************************************************************************/
 198:Generated_Source\PSoC5/cap_comp_tc.c **** CY_ISR(cap_comp_tc_Interrupt)
 199:Generated_Source\PSoC5/cap_comp_tc.c **** {
 200:Generated_Source\PSoC5/cap_comp_tc.c ****     #ifdef cap_comp_tc_INTERRUPT_INTERRUPT_CALLBACK
 201:Generated_Source\PSoC5/cap_comp_tc.c ****         cap_comp_tc_Interrupt_InterruptCallback();
 202:Generated_Source\PSoC5/cap_comp_tc.c ****     #endif /* cap_comp_tc_INTERRUPT_INTERRUPT_CALLBACK */ 
 203:Generated_Source\PSoC5/cap_comp_tc.c **** 
 204:Generated_Source\PSoC5/cap_comp_tc.c ****     /*  Place your Interrupt code here. */
 205:Generated_Source\PSoC5/cap_comp_tc.c ****     /* `#START cap_comp_tc_Interrupt` */
 206:Generated_Source\PSoC5/cap_comp_tc.c ****     uint32 capture_high, capture_low2;
 207:Generated_Source\PSoC5/cap_comp_tc.c ****     cap_comp_tc_ClearPending();
 208:Generated_Source\PSoC5/cap_comp_tc.c ****     
 209:Generated_Source\PSoC5/cap_comp_tc.c ****     uint32 tmp = usec_counter_ReadStatusRegister();
 210:Generated_Source\PSoC5/cap_comp_tc.c ****         
 211:Generated_Source\PSoC5/cap_comp_tc.c ****     if ((tmp & usec_counter_STATUS_CAPTURE) != 0)
 212:Generated_Source\PSoC5/cap_comp_tc.c ****     {
 213:Generated_Source\PSoC5/cap_comp_tc.c ****         Control_Capture_Write(1);
 214:Generated_Source\PSoC5/cap_comp_tc.c ****         Control_Capture_Write(0);
 215:Generated_Source\PSoC5/cap_comp_tc.c ****         capture_flag = 1;
 216:Generated_Source\PSoC5/cap_comp_tc.c ****         capture_high = sec_counter_ReadCapture();
 217:Generated_Source\PSoC5/cap_comp_tc.c ****         capture_low2 = usec_counter_ReadCapture();
 218:Generated_Source\PSoC5/cap_comp_tc.c ****         pps_time = convert_to_utc(capture_high , capture_low2);
 219:Generated_Source\PSoC5/cap_comp_tc.c ****     }    
 220:Generated_Source\PSoC5/cap_comp_tc.c ****     compare_service(tmp);    
 221:Generated_Source\PSoC5/cap_comp_tc.c ****     
 222:Generated_Source\PSoC5/cap_comp_tc.c ****     /* `#END` */
 223:Generated_Source\PSoC5/cap_comp_tc.c **** }
 224:Generated_Source\PSoC5/cap_comp_tc.c **** 
 225:Generated_Source\PSoC5/cap_comp_tc.c **** 
 226:Generated_Source\PSoC5/cap_comp_tc.c **** /*******************************************************************************
 227:Generated_Source\PSoC5/cap_comp_tc.c **** * Function Name: cap_comp_tc_SetVector
 228:Generated_Source\PSoC5/cap_comp_tc.c **** ********************************************************************************
 229:Generated_Source\PSoC5/cap_comp_tc.c **** *
 230:Generated_Source\PSoC5/cap_comp_tc.c **** * Summary:
 231:Generated_Source\PSoC5/cap_comp_tc.c **** *   Change the ISR vector for the Interrupt. Note calling cap_comp_tc_Start
 232:Generated_Source\PSoC5/cap_comp_tc.c **** *   will override any effect this method would have had. To set the vector 
 233:Generated_Source\PSoC5/cap_comp_tc.c **** *   before the component has been started use cap_comp_tc_StartEx instead.
 234:Generated_Source\PSoC5/cap_comp_tc.c **** * 
 235:Generated_Source\PSoC5/cap_comp_tc.c **** *   When defining ISR functions, the CY_ISR and CY_ISR_PROTO macros should be 
 236:Generated_Source\PSoC5/cap_comp_tc.c **** *   used to provide consistent definition across compilers:
 237:Generated_Source\PSoC5/cap_comp_tc.c **** *
 238:Generated_Source\PSoC5/cap_comp_tc.c **** *   Function definition example:
 239:Generated_Source\PSoC5/cap_comp_tc.c **** *   CY_ISR(MyISR)
ARM GAS  C:\Users\EA527~1.IVA\AppData\Local\Temp\ccYNl4Ax.s 			page 9


 240:Generated_Source\PSoC5/cap_comp_tc.c **** *   {
 241:Generated_Source\PSoC5/cap_comp_tc.c **** *   }
 242:Generated_Source\PSoC5/cap_comp_tc.c **** *
 243:Generated_Source\PSoC5/cap_comp_tc.c **** *   Function prototype example:
 244:Generated_Source\PSoC5/cap_comp_tc.c **** *     CY_ISR_PROTO(MyISR);
 245:Generated_Source\PSoC5/cap_comp_tc.c **** *
 246:Generated_Source\PSoC5/cap_comp_tc.c **** * Parameters:
 247:Generated_Source\PSoC5/cap_comp_tc.c **** *   address: Address of the ISR to set in the interrupt vector table.
 248:Generated_Source\PSoC5/cap_comp_tc.c **** *
 249:Generated_Source\PSoC5/cap_comp_tc.c **** * Return:
 250:Generated_Source\PSoC5/cap_comp_tc.c **** *   None
 251:Generated_Source\PSoC5/cap_comp_tc.c **** *
 252:Generated_Source\PSoC5/cap_comp_tc.c **** *******************************************************************************/
 253:Generated_Source\PSoC5/cap_comp_tc.c **** void cap_comp_tc_SetVector(cyisraddress address)
 254:Generated_Source\PSoC5/cap_comp_tc.c **** {
 217              		.loc 1 254 0
 218              		.cfi_startproc
 219              		@ args = 0, pretend = 0, frame = 0
 220              		@ frame_needed = 0, uses_anonymous_args = 0
 221              		@ link register save eliminated.
 222              	.LVL28:
 255:Generated_Source\PSoC5/cap_comp_tc.c ****     cyisraddress * ramVectorTable;
 256:Generated_Source\PSoC5/cap_comp_tc.c **** 
 257:Generated_Source\PSoC5/cap_comp_tc.c ****     ramVectorTable = (cyisraddress *) *CYINT_VECT_TABLE;
 223              		.loc 1 257 0
 224 0000 014B     		ldr	r3, .L14
 225 0002 1B68     		ldr	r3, [r3]
 226              	.LVL29:
 258:Generated_Source\PSoC5/cap_comp_tc.c **** 
 259:Generated_Source\PSoC5/cap_comp_tc.c ****     ramVectorTable[CYINT_IRQ_BASE + (uint32)cap_comp_tc__INTC_NUMBER] = address;
 227              		.loc 1 259 0
 228 0004 5864     		str	r0, [r3, #68]
 229 0006 7047     		bx	lr
 230              	.L15:
 231              		.align	2
 232              	.L14:
 233 0008 08ED00E0 		.word	-536810232
 234              		.cfi_endproc
 235              	.LFE71:
 236              		.size	cap_comp_tc_SetVector, .-cap_comp_tc_SetVector
 237              		.section	.text.cap_comp_tc_GetVector,"ax",%progbits
 238              		.align	2
 239              		.global	cap_comp_tc_GetVector
 240              		.thumb
 241              		.thumb_func
 242              		.type	cap_comp_tc_GetVector, %function
 243              	cap_comp_tc_GetVector:
 244              	.LFB72:
 260:Generated_Source\PSoC5/cap_comp_tc.c **** }
 261:Generated_Source\PSoC5/cap_comp_tc.c **** 
 262:Generated_Source\PSoC5/cap_comp_tc.c **** 
 263:Generated_Source\PSoC5/cap_comp_tc.c **** /*******************************************************************************
 264:Generated_Source\PSoC5/cap_comp_tc.c **** * Function Name: cap_comp_tc_GetVector
 265:Generated_Source\PSoC5/cap_comp_tc.c **** ********************************************************************************
 266:Generated_Source\PSoC5/cap_comp_tc.c **** *
 267:Generated_Source\PSoC5/cap_comp_tc.c **** * Summary:
 268:Generated_Source\PSoC5/cap_comp_tc.c **** *   Gets the "address" of the current ISR vector for the Interrupt.
ARM GAS  C:\Users\EA527~1.IVA\AppData\Local\Temp\ccYNl4Ax.s 			page 10


 269:Generated_Source\PSoC5/cap_comp_tc.c **** *
 270:Generated_Source\PSoC5/cap_comp_tc.c **** * Parameters:
 271:Generated_Source\PSoC5/cap_comp_tc.c **** *   None
 272:Generated_Source\PSoC5/cap_comp_tc.c **** *
 273:Generated_Source\PSoC5/cap_comp_tc.c **** * Return:
 274:Generated_Source\PSoC5/cap_comp_tc.c **** *   Address of the ISR in the interrupt vector table.
 275:Generated_Source\PSoC5/cap_comp_tc.c **** *
 276:Generated_Source\PSoC5/cap_comp_tc.c **** *******************************************************************************/
 277:Generated_Source\PSoC5/cap_comp_tc.c **** cyisraddress cap_comp_tc_GetVector(void)
 278:Generated_Source\PSoC5/cap_comp_tc.c **** {
 245              		.loc 1 278 0
 246              		.cfi_startproc
 247              		@ args = 0, pretend = 0, frame = 0
 248              		@ frame_needed = 0, uses_anonymous_args = 0
 249              		@ link register save eliminated.
 279:Generated_Source\PSoC5/cap_comp_tc.c ****     cyisraddress * ramVectorTable;
 280:Generated_Source\PSoC5/cap_comp_tc.c **** 
 281:Generated_Source\PSoC5/cap_comp_tc.c ****     ramVectorTable = (cyisraddress *) *CYINT_VECT_TABLE;
 250              		.loc 1 281 0
 251 0000 014B     		ldr	r3, .L17
 252 0002 1B68     		ldr	r3, [r3]
 253              	.LVL30:
 282:Generated_Source\PSoC5/cap_comp_tc.c **** 
 283:Generated_Source\PSoC5/cap_comp_tc.c ****     return ramVectorTable[CYINT_IRQ_BASE + (uint32)cap_comp_tc__INTC_NUMBER];
 284:Generated_Source\PSoC5/cap_comp_tc.c **** }
 254              		.loc 1 284 0
 255 0004 586C     		ldr	r0, [r3, #68]
 256 0006 7047     		bx	lr
 257              	.L18:
 258              		.align	2
 259              	.L17:
 260 0008 08ED00E0 		.word	-536810232
 261              		.cfi_endproc
 262              	.LFE72:
 263              		.size	cap_comp_tc_GetVector, .-cap_comp_tc_GetVector
 264              		.section	.text.cap_comp_tc_SetPriority,"ax",%progbits
 265              		.align	2
 266              		.global	cap_comp_tc_SetPriority
 267              		.thumb
 268              		.thumb_func
 269              		.type	cap_comp_tc_SetPriority, %function
 270              	cap_comp_tc_SetPriority:
 271              	.LFB73:
 285:Generated_Source\PSoC5/cap_comp_tc.c **** 
 286:Generated_Source\PSoC5/cap_comp_tc.c **** 
 287:Generated_Source\PSoC5/cap_comp_tc.c **** /*******************************************************************************
 288:Generated_Source\PSoC5/cap_comp_tc.c **** * Function Name: cap_comp_tc_SetPriority
 289:Generated_Source\PSoC5/cap_comp_tc.c **** ********************************************************************************
 290:Generated_Source\PSoC5/cap_comp_tc.c **** *
 291:Generated_Source\PSoC5/cap_comp_tc.c **** * Summary:
 292:Generated_Source\PSoC5/cap_comp_tc.c **** *   Sets the Priority of the Interrupt. 
 293:Generated_Source\PSoC5/cap_comp_tc.c **** *
 294:Generated_Source\PSoC5/cap_comp_tc.c **** *   Note calling cap_comp_tc_Start or cap_comp_tc_StartEx will 
 295:Generated_Source\PSoC5/cap_comp_tc.c **** *   override any effect this API would have had. This API should only be called
 296:Generated_Source\PSoC5/cap_comp_tc.c **** *   after cap_comp_tc_Start or cap_comp_tc_StartEx has been called. 
 297:Generated_Source\PSoC5/cap_comp_tc.c **** *   To set the initial priority for the component, use the Design-Wide Resources
 298:Generated_Source\PSoC5/cap_comp_tc.c **** *   Interrupt Editor.
ARM GAS  C:\Users\EA527~1.IVA\AppData\Local\Temp\ccYNl4Ax.s 			page 11


 299:Generated_Source\PSoC5/cap_comp_tc.c **** *
 300:Generated_Source\PSoC5/cap_comp_tc.c **** *   Note This API has no effect on Non-maskable interrupt NMI).
 301:Generated_Source\PSoC5/cap_comp_tc.c **** *
 302:Generated_Source\PSoC5/cap_comp_tc.c **** * Parameters:
 303:Generated_Source\PSoC5/cap_comp_tc.c **** *   priority: Priority of the interrupt, 0 being the highest priority
 304:Generated_Source\PSoC5/cap_comp_tc.c **** *             PSoC 3 and PSoC 5LP: Priority is from 0 to 7.
 305:Generated_Source\PSoC5/cap_comp_tc.c **** *             PSoC 4: Priority is from 0 to 3.
 306:Generated_Source\PSoC5/cap_comp_tc.c **** *
 307:Generated_Source\PSoC5/cap_comp_tc.c **** * Return:
 308:Generated_Source\PSoC5/cap_comp_tc.c **** *   None
 309:Generated_Source\PSoC5/cap_comp_tc.c **** *
 310:Generated_Source\PSoC5/cap_comp_tc.c **** *******************************************************************************/
 311:Generated_Source\PSoC5/cap_comp_tc.c **** void cap_comp_tc_SetPriority(uint8 priority)
 312:Generated_Source\PSoC5/cap_comp_tc.c **** {
 272              		.loc 1 312 0
 273              		.cfi_startproc
 274              		@ args = 0, pretend = 0, frame = 0
 275              		@ frame_needed = 0, uses_anonymous_args = 0
 276              		@ link register save eliminated.
 277              	.LVL31:
 313:Generated_Source\PSoC5/cap_comp_tc.c ****     *cap_comp_tc_INTC_PRIOR = priority << 5;
 278              		.loc 1 313 0
 279 0000 4001     		lsls	r0, r0, #5
 280              	.LVL32:
 281 0002 C0B2     		uxtb	r0, r0
 282 0004 014B     		ldr	r3, .L20
 283 0006 1870     		strb	r0, [r3]
 284 0008 7047     		bx	lr
 285              	.L21:
 286 000a 00BF     		.align	2
 287              	.L20:
 288 000c 01E400E0 		.word	-536812543
 289              		.cfi_endproc
 290              	.LFE73:
 291              		.size	cap_comp_tc_SetPriority, .-cap_comp_tc_SetPriority
 292              		.section	.text.cap_comp_tc_GetPriority,"ax",%progbits
 293              		.align	2
 294              		.global	cap_comp_tc_GetPriority
 295              		.thumb
 296              		.thumb_func
 297              		.type	cap_comp_tc_GetPriority, %function
 298              	cap_comp_tc_GetPriority:
 299              	.LFB74:
 314:Generated_Source\PSoC5/cap_comp_tc.c **** }
 315:Generated_Source\PSoC5/cap_comp_tc.c **** 
 316:Generated_Source\PSoC5/cap_comp_tc.c **** 
 317:Generated_Source\PSoC5/cap_comp_tc.c **** /*******************************************************************************
 318:Generated_Source\PSoC5/cap_comp_tc.c **** * Function Name: cap_comp_tc_GetPriority
 319:Generated_Source\PSoC5/cap_comp_tc.c **** ********************************************************************************
 320:Generated_Source\PSoC5/cap_comp_tc.c **** *
 321:Generated_Source\PSoC5/cap_comp_tc.c **** * Summary:
 322:Generated_Source\PSoC5/cap_comp_tc.c **** *   Gets the Priority of the Interrupt.
 323:Generated_Source\PSoC5/cap_comp_tc.c **** *
 324:Generated_Source\PSoC5/cap_comp_tc.c **** * Parameters:
 325:Generated_Source\PSoC5/cap_comp_tc.c **** *   None
 326:Generated_Source\PSoC5/cap_comp_tc.c **** *
 327:Generated_Source\PSoC5/cap_comp_tc.c **** * Return:
ARM GAS  C:\Users\EA527~1.IVA\AppData\Local\Temp\ccYNl4Ax.s 			page 12


 328:Generated_Source\PSoC5/cap_comp_tc.c **** *   Priority of the interrupt, 0 being the highest priority
 329:Generated_Source\PSoC5/cap_comp_tc.c **** *    PSoC 3 and PSoC 5LP: Priority is from 0 to 7.
 330:Generated_Source\PSoC5/cap_comp_tc.c **** *    PSoC 4: Priority is from 0 to 3.
 331:Generated_Source\PSoC5/cap_comp_tc.c **** *
 332:Generated_Source\PSoC5/cap_comp_tc.c **** *******************************************************************************/
 333:Generated_Source\PSoC5/cap_comp_tc.c **** uint8 cap_comp_tc_GetPriority(void)
 334:Generated_Source\PSoC5/cap_comp_tc.c **** {
 300              		.loc 1 334 0
 301              		.cfi_startproc
 302              		@ args = 0, pretend = 0, frame = 0
 303              		@ frame_needed = 0, uses_anonymous_args = 0
 304              		@ link register save eliminated.
 335:Generated_Source\PSoC5/cap_comp_tc.c ****     uint8 priority;
 336:Generated_Source\PSoC5/cap_comp_tc.c **** 
 337:Generated_Source\PSoC5/cap_comp_tc.c **** 
 338:Generated_Source\PSoC5/cap_comp_tc.c ****     priority = *cap_comp_tc_INTC_PRIOR >> 5;
 305              		.loc 1 338 0
 306 0000 014B     		ldr	r3, .L23
 307 0002 1878     		ldrb	r0, [r3]	@ zero_extendqisi2
 308              	.LVL33:
 339:Generated_Source\PSoC5/cap_comp_tc.c **** 
 340:Generated_Source\PSoC5/cap_comp_tc.c ****     return priority;
 341:Generated_Source\PSoC5/cap_comp_tc.c **** }
 309              		.loc 1 341 0
 310 0004 4009     		lsrs	r0, r0, #5
 311              	.LVL34:
 312 0006 7047     		bx	lr
 313              	.L24:
 314              		.align	2
 315              	.L23:
 316 0008 01E400E0 		.word	-536812543
 317              		.cfi_endproc
 318              	.LFE74:
 319              		.size	cap_comp_tc_GetPriority, .-cap_comp_tc_GetPriority
 320              		.section	.text.cap_comp_tc_Enable,"ax",%progbits
 321              		.align	2
 322              		.global	cap_comp_tc_Enable
 323              		.thumb
 324              		.thumb_func
 325              		.type	cap_comp_tc_Enable, %function
 326              	cap_comp_tc_Enable:
 327              	.LFB75:
 342:Generated_Source\PSoC5/cap_comp_tc.c **** 
 343:Generated_Source\PSoC5/cap_comp_tc.c **** 
 344:Generated_Source\PSoC5/cap_comp_tc.c **** /*******************************************************************************
 345:Generated_Source\PSoC5/cap_comp_tc.c **** * Function Name: cap_comp_tc_Enable
 346:Generated_Source\PSoC5/cap_comp_tc.c **** ********************************************************************************
 347:Generated_Source\PSoC5/cap_comp_tc.c **** *
 348:Generated_Source\PSoC5/cap_comp_tc.c **** * Summary:
 349:Generated_Source\PSoC5/cap_comp_tc.c **** *   Enables the interrupt to the interrupt controller. Do not call this function
 350:Generated_Source\PSoC5/cap_comp_tc.c **** *   unless ISR_Start() has been called or the functionality of the ISR_Start() 
 351:Generated_Source\PSoC5/cap_comp_tc.c **** *   function, which sets the vector and the priority, has been called.
 352:Generated_Source\PSoC5/cap_comp_tc.c **** *
 353:Generated_Source\PSoC5/cap_comp_tc.c **** * Parameters:
 354:Generated_Source\PSoC5/cap_comp_tc.c **** *   None
 355:Generated_Source\PSoC5/cap_comp_tc.c **** *
 356:Generated_Source\PSoC5/cap_comp_tc.c **** * Return:
ARM GAS  C:\Users\EA527~1.IVA\AppData\Local\Temp\ccYNl4Ax.s 			page 13


 357:Generated_Source\PSoC5/cap_comp_tc.c **** *   None
 358:Generated_Source\PSoC5/cap_comp_tc.c **** *
 359:Generated_Source\PSoC5/cap_comp_tc.c **** *******************************************************************************/
 360:Generated_Source\PSoC5/cap_comp_tc.c **** void cap_comp_tc_Enable(void)
 361:Generated_Source\PSoC5/cap_comp_tc.c **** {
 328              		.loc 1 361 0
 329              		.cfi_startproc
 330              		@ args = 0, pretend = 0, frame = 0
 331              		@ frame_needed = 0, uses_anonymous_args = 0
 332              		@ link register save eliminated.
 362:Generated_Source\PSoC5/cap_comp_tc.c ****     /* Enable the general interrupt. */
 363:Generated_Source\PSoC5/cap_comp_tc.c ****     *cap_comp_tc_INTC_SET_EN = cap_comp_tc__INTC_MASK;
 333              		.loc 1 363 0
 334 0000 0222     		movs	r2, #2
 335 0002 014B     		ldr	r3, .L26
 336 0004 1A60     		str	r2, [r3]
 337 0006 7047     		bx	lr
 338              	.L27:
 339              		.align	2
 340              	.L26:
 341 0008 00E100E0 		.word	-536813312
 342              		.cfi_endproc
 343              	.LFE75:
 344              		.size	cap_comp_tc_Enable, .-cap_comp_tc_Enable
 345              		.section	.text.cap_comp_tc_GetState,"ax",%progbits
 346              		.align	2
 347              		.global	cap_comp_tc_GetState
 348              		.thumb
 349              		.thumb_func
 350              		.type	cap_comp_tc_GetState, %function
 351              	cap_comp_tc_GetState:
 352              	.LFB76:
 364:Generated_Source\PSoC5/cap_comp_tc.c **** }
 365:Generated_Source\PSoC5/cap_comp_tc.c **** 
 366:Generated_Source\PSoC5/cap_comp_tc.c **** 
 367:Generated_Source\PSoC5/cap_comp_tc.c **** /*******************************************************************************
 368:Generated_Source\PSoC5/cap_comp_tc.c **** * Function Name: cap_comp_tc_GetState
 369:Generated_Source\PSoC5/cap_comp_tc.c **** ********************************************************************************
 370:Generated_Source\PSoC5/cap_comp_tc.c **** *
 371:Generated_Source\PSoC5/cap_comp_tc.c **** * Summary:
 372:Generated_Source\PSoC5/cap_comp_tc.c **** *   Gets the state (enabled, disabled) of the Interrupt.
 373:Generated_Source\PSoC5/cap_comp_tc.c **** *
 374:Generated_Source\PSoC5/cap_comp_tc.c **** * Parameters:
 375:Generated_Source\PSoC5/cap_comp_tc.c **** *   None
 376:Generated_Source\PSoC5/cap_comp_tc.c **** *
 377:Generated_Source\PSoC5/cap_comp_tc.c **** * Return:
 378:Generated_Source\PSoC5/cap_comp_tc.c **** *   1 if enabled, 0 if disabled.
 379:Generated_Source\PSoC5/cap_comp_tc.c **** *
 380:Generated_Source\PSoC5/cap_comp_tc.c **** *******************************************************************************/
 381:Generated_Source\PSoC5/cap_comp_tc.c **** uint8 cap_comp_tc_GetState(void)
 382:Generated_Source\PSoC5/cap_comp_tc.c **** {
 353              		.loc 1 382 0
 354              		.cfi_startproc
 355              		@ args = 0, pretend = 0, frame = 0
 356              		@ frame_needed = 0, uses_anonymous_args = 0
 357              		@ link register save eliminated.
 383:Generated_Source\PSoC5/cap_comp_tc.c ****     /* Get the state of the general interrupt. */
ARM GAS  C:\Users\EA527~1.IVA\AppData\Local\Temp\ccYNl4Ax.s 			page 14


 384:Generated_Source\PSoC5/cap_comp_tc.c ****     return ((*cap_comp_tc_INTC_SET_EN & (uint32)cap_comp_tc__INTC_MASK) != 0u) ? 1u:0u;
 358              		.loc 1 384 0
 359 0000 044B     		ldr	r3, .L31
 360 0002 1B68     		ldr	r3, [r3]
 361 0004 13F0020F 		tst	r3, #2
 362 0008 01D0     		beq	.L30
 363 000a 0120     		movs	r0, #1
 364 000c 7047     		bx	lr
 365              	.L30:
 366 000e 0020     		movs	r0, #0
 385:Generated_Source\PSoC5/cap_comp_tc.c **** }
 367              		.loc 1 385 0
 368 0010 7047     		bx	lr
 369              	.L32:
 370 0012 00BF     		.align	2
 371              	.L31:
 372 0014 00E100E0 		.word	-536813312
 373              		.cfi_endproc
 374              	.LFE76:
 375              		.size	cap_comp_tc_GetState, .-cap_comp_tc_GetState
 376              		.section	.text.cap_comp_tc_Disable,"ax",%progbits
 377              		.align	2
 378              		.global	cap_comp_tc_Disable
 379              		.thumb
 380              		.thumb_func
 381              		.type	cap_comp_tc_Disable, %function
 382              	cap_comp_tc_Disable:
 383              	.LFB77:
 386:Generated_Source\PSoC5/cap_comp_tc.c **** 
 387:Generated_Source\PSoC5/cap_comp_tc.c **** 
 388:Generated_Source\PSoC5/cap_comp_tc.c **** /*******************************************************************************
 389:Generated_Source\PSoC5/cap_comp_tc.c **** * Function Name: cap_comp_tc_Disable
 390:Generated_Source\PSoC5/cap_comp_tc.c **** ********************************************************************************
 391:Generated_Source\PSoC5/cap_comp_tc.c **** *
 392:Generated_Source\PSoC5/cap_comp_tc.c **** * Summary:
 393:Generated_Source\PSoC5/cap_comp_tc.c **** *   Disables the Interrupt in the interrupt controller.
 394:Generated_Source\PSoC5/cap_comp_tc.c **** *
 395:Generated_Source\PSoC5/cap_comp_tc.c **** * Parameters:
 396:Generated_Source\PSoC5/cap_comp_tc.c **** *   None
 397:Generated_Source\PSoC5/cap_comp_tc.c **** *
 398:Generated_Source\PSoC5/cap_comp_tc.c **** * Return:
 399:Generated_Source\PSoC5/cap_comp_tc.c **** *   None
 400:Generated_Source\PSoC5/cap_comp_tc.c **** *
 401:Generated_Source\PSoC5/cap_comp_tc.c **** *******************************************************************************/
 402:Generated_Source\PSoC5/cap_comp_tc.c **** void cap_comp_tc_Disable(void)
 403:Generated_Source\PSoC5/cap_comp_tc.c **** {
 384              		.loc 1 403 0
 385              		.cfi_startproc
 386              		@ args = 0, pretend = 0, frame = 0
 387              		@ frame_needed = 0, uses_anonymous_args = 0
 388              		@ link register save eliminated.
 404:Generated_Source\PSoC5/cap_comp_tc.c ****     /* Disable the general interrupt. */
 405:Generated_Source\PSoC5/cap_comp_tc.c ****     *cap_comp_tc_INTC_CLR_EN = cap_comp_tc__INTC_MASK;
 389              		.loc 1 405 0
 390 0000 0222     		movs	r2, #2
 391 0002 014B     		ldr	r3, .L34
 392 0004 1A60     		str	r2, [r3]
ARM GAS  C:\Users\EA527~1.IVA\AppData\Local\Temp\ccYNl4Ax.s 			page 15


 393 0006 7047     		bx	lr
 394              	.L35:
 395              		.align	2
 396              	.L34:
 397 0008 80E100E0 		.word	-536813184
 398              		.cfi_endproc
 399              	.LFE77:
 400              		.size	cap_comp_tc_Disable, .-cap_comp_tc_Disable
 401              		.section	.text.cap_comp_tc_Start,"ax",%progbits
 402              		.align	2
 403              		.global	cap_comp_tc_Start
 404              		.thumb
 405              		.thumb_func
 406              		.type	cap_comp_tc_Start, %function
 407              	cap_comp_tc_Start:
 408              	.LFB67:
 100:Generated_Source\PSoC5/cap_comp_tc.c ****     /* For all we know the interrupt is active. */
 409              		.loc 1 100 0
 410              		.cfi_startproc
 411              		@ args = 0, pretend = 0, frame = 0
 412              		@ frame_needed = 0, uses_anonymous_args = 0
 413 0000 08B5     		push	{r3, lr}
 414              		.cfi_def_cfa_offset 8
 415              		.cfi_offset 3, -8
 416              		.cfi_offset 14, -4
 102:Generated_Source\PSoC5/cap_comp_tc.c **** 
 417              		.loc 1 102 0
 418 0002 FFF7FEFF 		bl	cap_comp_tc_Disable
 419              	.LVL35:
 105:Generated_Source\PSoC5/cap_comp_tc.c **** 
 420              		.loc 1 105 0
 421 0006 0448     		ldr	r0, .L38
 422 0008 FFF7FEFF 		bl	cap_comp_tc_SetVector
 423              	.LVL36:
 108:Generated_Source\PSoC5/cap_comp_tc.c **** 
 424              		.loc 1 108 0
 425 000c 0720     		movs	r0, #7
 426 000e FFF7FEFF 		bl	cap_comp_tc_SetPriority
 427              	.LVL37:
 111:Generated_Source\PSoC5/cap_comp_tc.c **** }
 428              		.loc 1 111 0
 429 0012 FFF7FEFF 		bl	cap_comp_tc_Enable
 430              	.LVL38:
 431 0016 08BD     		pop	{r3, pc}
 432              	.L39:
 433              		.align	2
 434              	.L38:
 435 0018 00000000 		.word	cap_comp_tc_Interrupt
 436              		.cfi_endproc
 437              	.LFE67:
 438              		.size	cap_comp_tc_Start, .-cap_comp_tc_Start
 439              		.section	.text.cap_comp_tc_StartEx,"ax",%progbits
 440              		.align	2
 441              		.global	cap_comp_tc_StartEx
 442              		.thumb
 443              		.thumb_func
 444              		.type	cap_comp_tc_StartEx, %function
ARM GAS  C:\Users\EA527~1.IVA\AppData\Local\Temp\ccYNl4Ax.s 			page 16


 445              	cap_comp_tc_StartEx:
 446              	.LFB68:
 143:Generated_Source\PSoC5/cap_comp_tc.c ****     /* For all we know the interrupt is active. */
 447              		.loc 1 143 0
 448              		.cfi_startproc
 449              		@ args = 0, pretend = 0, frame = 0
 450              		@ frame_needed = 0, uses_anonymous_args = 0
 451              	.LVL39:
 452 0000 10B5     		push	{r4, lr}
 453              		.cfi_def_cfa_offset 8
 454              		.cfi_offset 4, -8
 455              		.cfi_offset 14, -4
 456 0002 0446     		mov	r4, r0
 145:Generated_Source\PSoC5/cap_comp_tc.c **** 
 457              		.loc 1 145 0
 458 0004 FFF7FEFF 		bl	cap_comp_tc_Disable
 459              	.LVL40:
 148:Generated_Source\PSoC5/cap_comp_tc.c **** 
 460              		.loc 1 148 0
 461 0008 2046     		mov	r0, r4
 462 000a FFF7FEFF 		bl	cap_comp_tc_SetVector
 463              	.LVL41:
 151:Generated_Source\PSoC5/cap_comp_tc.c **** 
 464              		.loc 1 151 0
 465 000e 0720     		movs	r0, #7
 466 0010 FFF7FEFF 		bl	cap_comp_tc_SetPriority
 467              	.LVL42:
 154:Generated_Source\PSoC5/cap_comp_tc.c **** }
 468              		.loc 1 154 0
 469 0014 FFF7FEFF 		bl	cap_comp_tc_Enable
 470              	.LVL43:
 471 0018 10BD     		pop	{r4, pc}
 472              		.cfi_endproc
 473              	.LFE68:
 474              		.size	cap_comp_tc_StartEx, .-cap_comp_tc_StartEx
 475 001a 00BF     		.section	.text.cap_comp_tc_Stop,"ax",%progbits
 476              		.align	2
 477              		.global	cap_comp_tc_Stop
 478              		.thumb
 479              		.thumb_func
 480              		.type	cap_comp_tc_Stop, %function
 481              	cap_comp_tc_Stop:
 482              	.LFB69:
 173:Generated_Source\PSoC5/cap_comp_tc.c ****     /* Disable this interrupt. */
 483              		.loc 1 173 0
 484              		.cfi_startproc
 485              		@ args = 0, pretend = 0, frame = 0
 486              		@ frame_needed = 0, uses_anonymous_args = 0
 487 0000 08B5     		push	{r3, lr}
 488              		.cfi_def_cfa_offset 8
 489              		.cfi_offset 3, -8
 490              		.cfi_offset 14, -4
 175:Generated_Source\PSoC5/cap_comp_tc.c **** 
 491              		.loc 1 175 0
 492 0002 FFF7FEFF 		bl	cap_comp_tc_Disable
 493              	.LVL44:
 178:Generated_Source\PSoC5/cap_comp_tc.c **** }
ARM GAS  C:\Users\EA527~1.IVA\AppData\Local\Temp\ccYNl4Ax.s 			page 17


 494              		.loc 1 178 0
 495 0006 0248     		ldr	r0, .L44
 496 0008 FFF7FEFF 		bl	cap_comp_tc_SetVector
 497              	.LVL45:
 498 000c 08BD     		pop	{r3, pc}
 499              	.L45:
 500 000e 00BF     		.align	2
 501              	.L44:
 502 0010 00000000 		.word	IntDefaultHandler
 503              		.cfi_endproc
 504              	.LFE69:
 505              		.size	cap_comp_tc_Stop, .-cap_comp_tc_Stop
 506              		.section	.text.cap_comp_tc_SetPending,"ax",%progbits
 507              		.align	2
 508              		.global	cap_comp_tc_SetPending
 509              		.thumb
 510              		.thumb_func
 511              		.type	cap_comp_tc_SetPending, %function
 512              	cap_comp_tc_SetPending:
 513              	.LFB78:
 406:Generated_Source\PSoC5/cap_comp_tc.c **** }
 407:Generated_Source\PSoC5/cap_comp_tc.c **** 
 408:Generated_Source\PSoC5/cap_comp_tc.c **** 
 409:Generated_Source\PSoC5/cap_comp_tc.c **** /*******************************************************************************
 410:Generated_Source\PSoC5/cap_comp_tc.c **** * Function Name: cap_comp_tc_SetPending
 411:Generated_Source\PSoC5/cap_comp_tc.c **** ********************************************************************************
 412:Generated_Source\PSoC5/cap_comp_tc.c **** *
 413:Generated_Source\PSoC5/cap_comp_tc.c **** * Summary:
 414:Generated_Source\PSoC5/cap_comp_tc.c **** *   Causes the Interrupt to enter the pending state, a software method of
 415:Generated_Source\PSoC5/cap_comp_tc.c **** *   generating the interrupt.
 416:Generated_Source\PSoC5/cap_comp_tc.c **** *
 417:Generated_Source\PSoC5/cap_comp_tc.c **** * Parameters:
 418:Generated_Source\PSoC5/cap_comp_tc.c **** *   None
 419:Generated_Source\PSoC5/cap_comp_tc.c **** *
 420:Generated_Source\PSoC5/cap_comp_tc.c **** * Return:
 421:Generated_Source\PSoC5/cap_comp_tc.c **** *   None
 422:Generated_Source\PSoC5/cap_comp_tc.c **** *
 423:Generated_Source\PSoC5/cap_comp_tc.c **** * Side Effects:
 424:Generated_Source\PSoC5/cap_comp_tc.c **** *   If interrupts are enabled and the interrupt is set up properly, the ISR is
 425:Generated_Source\PSoC5/cap_comp_tc.c **** *   entered (depending on the priority of this interrupt and other pending 
 426:Generated_Source\PSoC5/cap_comp_tc.c **** *   interrupts).
 427:Generated_Source\PSoC5/cap_comp_tc.c **** *
 428:Generated_Source\PSoC5/cap_comp_tc.c **** *******************************************************************************/
 429:Generated_Source\PSoC5/cap_comp_tc.c **** void cap_comp_tc_SetPending(void)
 430:Generated_Source\PSoC5/cap_comp_tc.c **** {
 514              		.loc 1 430 0
 515              		.cfi_startproc
 516              		@ args = 0, pretend = 0, frame = 0
 517              		@ frame_needed = 0, uses_anonymous_args = 0
 518              		@ link register save eliminated.
 431:Generated_Source\PSoC5/cap_comp_tc.c ****     *cap_comp_tc_INTC_SET_PD = cap_comp_tc__INTC_MASK;
 519              		.loc 1 431 0
 520 0000 0222     		movs	r2, #2
 521 0002 014B     		ldr	r3, .L47
 522 0004 1A60     		str	r2, [r3]
 523 0006 7047     		bx	lr
 524              	.L48:
ARM GAS  C:\Users\EA527~1.IVA\AppData\Local\Temp\ccYNl4Ax.s 			page 18


 525              		.align	2
 526              	.L47:
 527 0008 00E200E0 		.word	-536813056
 528              		.cfi_endproc
 529              	.LFE78:
 530              		.size	cap_comp_tc_SetPending, .-cap_comp_tc_SetPending
 531              		.section	.text.cap_comp_tc_ClearPending,"ax",%progbits
 532              		.align	2
 533              		.global	cap_comp_tc_ClearPending
 534              		.thumb
 535              		.thumb_func
 536              		.type	cap_comp_tc_ClearPending, %function
 537              	cap_comp_tc_ClearPending:
 538              	.LFB79:
 432:Generated_Source\PSoC5/cap_comp_tc.c **** }
 433:Generated_Source\PSoC5/cap_comp_tc.c **** 
 434:Generated_Source\PSoC5/cap_comp_tc.c **** 
 435:Generated_Source\PSoC5/cap_comp_tc.c **** /*******************************************************************************
 436:Generated_Source\PSoC5/cap_comp_tc.c **** * Function Name: cap_comp_tc_ClearPending
 437:Generated_Source\PSoC5/cap_comp_tc.c **** ********************************************************************************
 438:Generated_Source\PSoC5/cap_comp_tc.c **** *
 439:Generated_Source\PSoC5/cap_comp_tc.c **** * Summary:
 440:Generated_Source\PSoC5/cap_comp_tc.c **** *   Clears a pending interrupt in the interrupt controller.
 441:Generated_Source\PSoC5/cap_comp_tc.c **** *
 442:Generated_Source\PSoC5/cap_comp_tc.c **** *   Note Some interrupt sources are clear-on-read and require the block 
 443:Generated_Source\PSoC5/cap_comp_tc.c **** *   interrupt/status register to be read/cleared with the appropriate block API 
 444:Generated_Source\PSoC5/cap_comp_tc.c **** *   (GPIO, UART, and so on). Otherwise the ISR will continue to remain in 
 445:Generated_Source\PSoC5/cap_comp_tc.c **** *   pending state even though the interrupt itself is cleared using this API.
 446:Generated_Source\PSoC5/cap_comp_tc.c **** *
 447:Generated_Source\PSoC5/cap_comp_tc.c **** * Parameters:
 448:Generated_Source\PSoC5/cap_comp_tc.c **** *   None
 449:Generated_Source\PSoC5/cap_comp_tc.c **** *
 450:Generated_Source\PSoC5/cap_comp_tc.c **** * Return:
 451:Generated_Source\PSoC5/cap_comp_tc.c **** *   None
 452:Generated_Source\PSoC5/cap_comp_tc.c **** *
 453:Generated_Source\PSoC5/cap_comp_tc.c **** *******************************************************************************/
 454:Generated_Source\PSoC5/cap_comp_tc.c **** void cap_comp_tc_ClearPending(void)
 455:Generated_Source\PSoC5/cap_comp_tc.c **** {
 539              		.loc 1 455 0
 540              		.cfi_startproc
 541              		@ args = 0, pretend = 0, frame = 0
 542              		@ frame_needed = 0, uses_anonymous_args = 0
 543              		@ link register save eliminated.
 456:Generated_Source\PSoC5/cap_comp_tc.c ****     *cap_comp_tc_INTC_CLR_PD = cap_comp_tc__INTC_MASK;
 544              		.loc 1 456 0
 545 0000 0222     		movs	r2, #2
 546 0002 014B     		ldr	r3, .L50
 547 0004 1A60     		str	r2, [r3]
 548 0006 7047     		bx	lr
 549              	.L51:
 550              		.align	2
 551              	.L50:
 552 0008 80E200E0 		.word	-536812928
 553              		.cfi_endproc
 554              	.LFE79:
 555              		.size	cap_comp_tc_ClearPending, .-cap_comp_tc_ClearPending
 556              		.section	.text.cap_comp_tc_Interrupt,"ax",%progbits
ARM GAS  C:\Users\EA527~1.IVA\AppData\Local\Temp\ccYNl4Ax.s 			page 19


 557              		.align	2
 558              		.global	cap_comp_tc_Interrupt
 559              		.thumb
 560              		.thumb_func
 561              		.type	cap_comp_tc_Interrupt, %function
 562              	cap_comp_tc_Interrupt:
 563              	.LFB70:
 199:Generated_Source\PSoC5/cap_comp_tc.c ****     #ifdef cap_comp_tc_INTERRUPT_INTERRUPT_CALLBACK
 564              		.loc 1 199 0
 565              		.cfi_startproc
 566              		@ args = 0, pretend = 0, frame = 0
 567              		@ frame_needed = 0, uses_anonymous_args = 0
 568 0000 38B5     		push	{r3, r4, r5, lr}
 569              		.cfi_def_cfa_offset 16
 570              		.cfi_offset 3, -16
 571              		.cfi_offset 4, -12
 572              		.cfi_offset 5, -8
 573              		.cfi_offset 14, -4
 207:Generated_Source\PSoC5/cap_comp_tc.c ****     
 574              		.loc 1 207 0
 575 0002 FFF7FEFF 		bl	cap_comp_tc_ClearPending
 576              	.LVL46:
 209:Generated_Source\PSoC5/cap_comp_tc.c ****         
 577              		.loc 1 209 0
 578 0006 FFF7FEFF 		bl	usec_counter_ReadStatusRegister
 579              	.LVL47:
 580 000a 0446     		mov	r4, r0
 581              	.LVL48:
 211:Generated_Source\PSoC5/cap_comp_tc.c ****     {
 582              		.loc 1 211 0
 583 000c 10F0100F 		tst	r0, #16
 584 0010 14D0     		beq	.L53
 213:Generated_Source\PSoC5/cap_comp_tc.c ****         Control_Capture_Write(0);
 585              		.loc 1 213 0
 586 0012 0120     		movs	r0, #1
 587              	.LVL49:
 588 0014 FFF7FEFF 		bl	Control_Capture_Write
 589              	.LVL50:
 214:Generated_Source\PSoC5/cap_comp_tc.c ****         capture_flag = 1;
 590              		.loc 1 214 0
 591 0018 0020     		movs	r0, #0
 592 001a FFF7FEFF 		bl	Control_Capture_Write
 593              	.LVL51:
 215:Generated_Source\PSoC5/cap_comp_tc.c ****         capture_high = sec_counter_ReadCapture();
 594              		.loc 1 215 0
 595 001e 0122     		movs	r2, #1
 596 0020 084B     		ldr	r3, .L55
 597 0022 1A60     		str	r2, [r3]
 216:Generated_Source\PSoC5/cap_comp_tc.c ****         capture_low2 = usec_counter_ReadCapture();
 598              		.loc 1 216 0
 599 0024 FFF7FEFF 		bl	sec_counter_ReadCapture
 600              	.LVL52:
 601 0028 0546     		mov	r5, r0
 602              	.LVL53:
 217:Generated_Source\PSoC5/cap_comp_tc.c ****         pps_time = convert_to_utc(capture_high , capture_low2);
 603              		.loc 1 217 0
 604 002a FFF7FEFF 		bl	usec_counter_ReadCapture
ARM GAS  C:\Users\EA527~1.IVA\AppData\Local\Temp\ccYNl4Ax.s 			page 20


 605              	.LVL54:
 218:Generated_Source\PSoC5/cap_comp_tc.c ****     }    
 606              		.loc 1 218 0
 607 002e 0146     		mov	r1, r0
 608 0030 2846     		mov	r0, r5
 609              	.LVL55:
 610 0032 FFF7FEFF 		bl	convert_to_utc
 611              	.LVL56:
 612 0036 044B     		ldr	r3, .L55+4
 613 0038 C3E90001 		strd	r0, [r3]
 614              	.LVL57:
 615              	.L53:
 220:Generated_Source\PSoC5/cap_comp_tc.c ****     
 616              		.loc 1 220 0
 617 003c 2046     		mov	r0, r4
 618 003e FFF7FEFF 		bl	compare_service
 619              	.LVL58:
 620 0042 38BD     		pop	{r3, r4, r5, pc}
 621              	.LVL59:
 622              	.L56:
 623              		.align	2
 624              	.L55:
 625 0044 00000000 		.word	capture_flag
 626 0048 00000000 		.word	pps_time
 627              		.cfi_endproc
 628              	.LFE70:
 629              		.size	cap_comp_tc_Interrupt, .-cap_comp_tc_Interrupt
 630              		.text
 631              	.Letext0:
 632              		.file 2 "c:\\program files (x86)\\cypress\\psoc creator\\4.2\\psoc creator\\import\\gnu\\arm\\5.4.
 633              		.file 3 "c:\\program files (x86)\\cypress\\psoc creator\\4.2\\psoc creator\\import\\gnu\\arm\\5.4.
 634              		.file 4 "Generated_Source\\PSoC5/cytypes.h"
 635              		.file 5 "Generated_Source\\PSoC5/core_cm3.h"
 636              		.file 6 "./global.h"
 637              		.file 7 "Generated_Source\\PSoC5/usec_counter.h"
 638              		.file 8 "Generated_Source\\PSoC5/sec_counter.h"
 639              		.file 9 "Generated_Source\\PSoC5/Control_Capture.h"