ARM GAS  C:\Users\EA527~1.IVA\AppData\Local\Temp\cc55GI1c.s 			page 1


   1              		.syntax unified
   2              		.cpu cortex-m3
   3              		.fpu softvfp
   4              		.eabi_attribute 20, 1
   5              		.eabi_attribute 21, 1
   6              		.eabi_attribute 23, 3
   7              		.eabi_attribute 24, 1
   8              		.eabi_attribute 25, 1
   9              		.eabi_attribute 26, 1
  10              		.eabi_attribute 30, 1
  11              		.eabi_attribute 34, 1
  12              		.eabi_attribute 18, 4
  13              		.thumb
  14              		.syntax unified
  15              		.file	"Clock.c"
  16              		.text
  17              	.Ltext0:
  18              		.cfi_sections	.debug_frame
  19              		.section	.text.Strobe,"ax",%progbits
  20              		.align	2
  21              		.global	Strobe
  22              		.thumb
  23              		.thumb_func
  24              		.type	Strobe, %function
  25              	Strobe:
  26              	.LFB63:
  27              		.file 1 "Clock.c"
   1:Clock.c       **** /* ========================================
   2:Clock.c       ****  *
   3:Clock.c       ****  * Copyright YOUR COMPANY, THE YEAR
   4:Clock.c       ****  * All Rights Reserved
   5:Clock.c       ****  * UNPUBLISHED, LICENSED SOFTWARE.
   6:Clock.c       ****  *
   7:Clock.c       ****  * CONFIDENTIAL AND PROPRIETARY INFORMATION
   8:Clock.c       ****  * WHICH IS THE PROPERTY OF your company.
   9:Clock.c       ****  *
  10:Clock.c       ****  * ========================================
  11:Clock.c       **** */
  12:Clock.c       **** 
  13:Clock.c       **** #include <project.h>
  14:Clock.c       **** 
  15:Clock.c       **** void Strobe () {
  28              		.loc 1 15 0
  29              		.cfi_startproc
  30              		@ args = 0, pretend = 0, frame = 0
  31              		@ frame_needed = 0, uses_anonymous_args = 0
  32 0000 08B5     		push	{r3, lr}
  33              		.cfi_def_cfa_offset 8
  34              		.cfi_offset 3, -8
  35              		.cfi_offset 14, -4
  16:Clock.c       ****     Control_Period_Write(1);
  36              		.loc 1 16 0
  37 0002 0120     		movs	r0, #1
  38 0004 FFF7FEFF 		bl	Control_Period_Write
  39              	.LVL0:
  40              	.L2:
  17:Clock.c       ****     while ((Status_Period_Read()&1) == 0);
ARM GAS  C:\Users\EA527~1.IVA\AppData\Local\Temp\cc55GI1c.s 			page 2


  41              		.loc 1 17 0 discriminator 1
  42 0008 FFF7FEFF 		bl	Status_Period_Read
  43              	.LVL1:
  44 000c 10F0010F 		tst	r0, #1
  45 0010 FAD0     		beq	.L2
  18:Clock.c       ****     Control_Period_Write(0);
  46              		.loc 1 18 0
  47 0012 0020     		movs	r0, #0
  48 0014 FFF7FEFF 		bl	Control_Period_Write
  49              	.LVL2:
  50              	.L3:
  19:Clock.c       ****     while ((Status_Period_Read()&1) != 0);    
  51              		.loc 1 19 0 discriminator 1
  52 0018 FFF7FEFF 		bl	Status_Period_Read
  53              	.LVL3:
  54 001c 10F0010F 		tst	r0, #1
  55 0020 FAD1     		bne	.L3
  20:Clock.c       **** }
  56              		.loc 1 20 0
  57 0022 08BD     		pop	{r3, pc}
  58              		.cfi_endproc
  59              	.LFE63:
  60              		.size	Strobe, .-Strobe
  61              		.section	.text.UpdatePeriod,"ax",%progbits
  62              		.align	2
  63              		.global	UpdatePeriod
  64              		.thumb
  65              		.thumb_func
  66              		.type	UpdatePeriod, %function
  67              	UpdatePeriod:
  68              	.LFB64:
  21:Clock.c       **** 
  22:Clock.c       **** void UpdatePeriod(uint32 NewPeriod) {
  69              		.loc 1 22 0
  70              		.cfi_startproc
  71              		@ args = 0, pretend = 0, frame = 0
  72              		@ frame_needed = 0, uses_anonymous_args = 0
  73              	.LVL4:
  74 0000 08B5     		push	{r3, lr}
  75              		.cfi_def_cfa_offset 8
  76              		.cfi_offset 3, -8
  77              		.cfi_offset 14, -4
  23:Clock.c       ****     Period_WriteData(NewPeriod);
  78              		.loc 1 23 0
  79 0002 C0B2     		uxtb	r0, r0
  80              	.LVL5:
  81 0004 FFF7FEFF 		bl	Period_WriteData
  82              	.LVL6:
  24:Clock.c       ****     Strobe();    
  83              		.loc 1 24 0
  84 0008 FFF7FEFF 		bl	Strobe
  85              	.LVL7:
  86 000c 08BD     		pop	{r3, pc}
  87              		.cfi_endproc
  88              	.LFE64:
  89              		.size	UpdatePeriod, .-UpdatePeriod
  90 000e 00BF     		.text
ARM GAS  C:\Users\EA527~1.IVA\AppData\Local\Temp\cc55GI1c.s 			page 3


  91              	.Letext0:
  92              		.file 2 "c:\\program files (x86)\\cypress\\psoc creator\\4.2\\psoc creator\\import\\gnu\\arm\\5.4.
  93              		.file 3 "c:\\program files (x86)\\cypress\\psoc creator\\4.2\\psoc creator\\import\\gnu\\arm\\5.4.
  94              		.file 4 "Generated_Source\\PSoC5/cytypes.h"
  95              		.file 5 "Generated_Source\\PSoC5/Control_Period.h"
  96              		.file 6 "Generated_Source\\PSoC5/Status_Period.h"
  97              		.file 7 "Generated_Source\\PSoC5/Period.h"
  98              		.file 8 "Generated_Source\\PSoC5/core_cm3.h"