ARM GAS  C:\Users\EA527~1.IVA\AppData\Local\Temp\ccobbWkt.s 			page 1


   1              		.syntax unified
   2              		.cpu cortex-m3
   3              		.fpu softvfp
   4              		.eabi_attribute 20, 1
   5              		.eabi_attribute 21, 1
   6              		.eabi_attribute 23, 3
   7              		.eabi_attribute 24, 1
   8              		.eabi_attribute 25, 1
   9              		.eabi_attribute 26, 1
  10              		.eabi_attribute 30, 1
  11              		.eabi_attribute 34, 1
  12              		.eabi_attribute 18, 4
  13              		.thumb
  14              		.syntax unified
  15              		.file	"cyfitter_cfg.c"
  16              		.text
  17              	.Ltext0:
  18              		.cfi_sections	.debug_frame
  19              		.section	.text.CyClockStartupError,"ax",%progbits
  20              		.align	2
  21              		.thumb
  22              		.thumb_func
  23              		.type	CyClockStartupError, %function
  24              	CyClockStartupError:
  25              	.LFB3:
  26              		.file 1 "Generated_Source\\PSoC5\\cyfitter_cfg.c"
   1:Generated_Source\PSoC5/cyfitter_cfg.c **** 
   2:Generated_Source\PSoC5/cyfitter_cfg.c **** /*******************************************************************************
   3:Generated_Source\PSoC5/cyfitter_cfg.c **** * File Name: cyfitter_cfg.c
   4:Generated_Source\PSoC5/cyfitter_cfg.c **** * 
   5:Generated_Source\PSoC5/cyfitter_cfg.c **** * PSoC Creator  4.2
   6:Generated_Source\PSoC5/cyfitter_cfg.c **** *
   7:Generated_Source\PSoC5/cyfitter_cfg.c **** * Description:
   8:Generated_Source\PSoC5/cyfitter_cfg.c **** * This file contains device initialization code.
   9:Generated_Source\PSoC5/cyfitter_cfg.c **** * Except for the user defined sections in CyClockStartupError(), this file should not be modified.
  10:Generated_Source\PSoC5/cyfitter_cfg.c **** * This file is automatically generated by PSoC Creator.
  11:Generated_Source\PSoC5/cyfitter_cfg.c **** *
  12:Generated_Source\PSoC5/cyfitter_cfg.c **** ********************************************************************************
  13:Generated_Source\PSoC5/cyfitter_cfg.c **** * Copyright (c) 2007-2018 Cypress Semiconductor.  All rights reserved.
  14:Generated_Source\PSoC5/cyfitter_cfg.c **** * You may use this file only in accordance with the license, terms, conditions, 
  15:Generated_Source\PSoC5/cyfitter_cfg.c **** * disclaimers, and limitations in the end user license agreement accompanying 
  16:Generated_Source\PSoC5/cyfitter_cfg.c **** * the software package with which this file was provided.
  17:Generated_Source\PSoC5/cyfitter_cfg.c **** ********************************************************************************/
  18:Generated_Source\PSoC5/cyfitter_cfg.c **** 
  19:Generated_Source\PSoC5/cyfitter_cfg.c **** #include <string.h>
  20:Generated_Source\PSoC5/cyfitter_cfg.c **** #include "cytypes.h"
  21:Generated_Source\PSoC5/cyfitter_cfg.c **** #include "cydevice_trm.h"
  22:Generated_Source\PSoC5/cyfitter_cfg.c **** #include "cyfitter.h"
  23:Generated_Source\PSoC5/cyfitter_cfg.c **** #include "CyLib.h"
  24:Generated_Source\PSoC5/cyfitter_cfg.c **** #include "cyfitter_cfg.h"
  25:Generated_Source\PSoC5/cyfitter_cfg.c **** #include "cyapicallbacks.h"
  26:Generated_Source\PSoC5/cyfitter_cfg.c **** 
  27:Generated_Source\PSoC5/cyfitter_cfg.c **** #define CY_NEED_CYCLOCKSTARTUPERROR 1
  28:Generated_Source\PSoC5/cyfitter_cfg.c **** 
  29:Generated_Source\PSoC5/cyfitter_cfg.c **** 
  30:Generated_Source\PSoC5/cyfitter_cfg.c **** #if defined(__GNUC__) || defined(__ARMCC_VERSION)
  31:Generated_Source\PSoC5/cyfitter_cfg.c ****     #define CYPACKED 
ARM GAS  C:\Users\EA527~1.IVA\AppData\Local\Temp\ccobbWkt.s 			page 2


  32:Generated_Source\PSoC5/cyfitter_cfg.c ****     #define CYPACKED_ATTR __attribute__ ((packed))
  33:Generated_Source\PSoC5/cyfitter_cfg.c ****     #define CYALIGNED __attribute__ ((aligned))
  34:Generated_Source\PSoC5/cyfitter_cfg.c ****     #define CY_CFG_UNUSED __attribute__ ((unused))
  35:Generated_Source\PSoC5/cyfitter_cfg.c ****     #ifndef CY_CFG_SECTION
  36:Generated_Source\PSoC5/cyfitter_cfg.c ****         #define CY_CFG_SECTION __attribute__ ((section(".psocinit")))
  37:Generated_Source\PSoC5/cyfitter_cfg.c ****     #endif
  38:Generated_Source\PSoC5/cyfitter_cfg.c ****     
  39:Generated_Source\PSoC5/cyfitter_cfg.c ****     #if defined(__ARMCC_VERSION)
  40:Generated_Source\PSoC5/cyfitter_cfg.c ****         #define CY_CFG_MEMORY_BARRIER() __memory_changed()
  41:Generated_Source\PSoC5/cyfitter_cfg.c ****     #else
  42:Generated_Source\PSoC5/cyfitter_cfg.c ****         #define CY_CFG_MEMORY_BARRIER() __sync_synchronize()
  43:Generated_Source\PSoC5/cyfitter_cfg.c ****     #endif
  44:Generated_Source\PSoC5/cyfitter_cfg.c ****     
  45:Generated_Source\PSoC5/cyfitter_cfg.c **** #elif defined(__ICCARM__)
  46:Generated_Source\PSoC5/cyfitter_cfg.c ****     #include <intrinsics.h>
  47:Generated_Source\PSoC5/cyfitter_cfg.c **** 
  48:Generated_Source\PSoC5/cyfitter_cfg.c ****     #define CYPACKED __packed
  49:Generated_Source\PSoC5/cyfitter_cfg.c ****     #define CYPACKED_ATTR 
  50:Generated_Source\PSoC5/cyfitter_cfg.c ****     #define CYALIGNED _Pragma("data_alignment=4")
  51:Generated_Source\PSoC5/cyfitter_cfg.c ****     #define CY_CFG_UNUSED _Pragma("diag_suppress=Pe177")
  52:Generated_Source\PSoC5/cyfitter_cfg.c ****     #define CY_CFG_SECTION _Pragma("location=\".psocinit\"")
  53:Generated_Source\PSoC5/cyfitter_cfg.c ****     
  54:Generated_Source\PSoC5/cyfitter_cfg.c ****     #define CY_CFG_MEMORY_BARRIER() __DMB()
  55:Generated_Source\PSoC5/cyfitter_cfg.c ****     
  56:Generated_Source\PSoC5/cyfitter_cfg.c **** #else
  57:Generated_Source\PSoC5/cyfitter_cfg.c ****     #error Unsupported toolchain
  58:Generated_Source\PSoC5/cyfitter_cfg.c **** #endif
  59:Generated_Source\PSoC5/cyfitter_cfg.c **** 
  60:Generated_Source\PSoC5/cyfitter_cfg.c **** #ifndef CYCODE
  61:Generated_Source\PSoC5/cyfitter_cfg.c ****     #define CYCODE
  62:Generated_Source\PSoC5/cyfitter_cfg.c **** #endif
  63:Generated_Source\PSoC5/cyfitter_cfg.c **** #ifndef CYDATA
  64:Generated_Source\PSoC5/cyfitter_cfg.c ****     #define CYDATA
  65:Generated_Source\PSoC5/cyfitter_cfg.c **** #endif
  66:Generated_Source\PSoC5/cyfitter_cfg.c **** #ifndef CYFAR
  67:Generated_Source\PSoC5/cyfitter_cfg.c ****     #define CYFAR
  68:Generated_Source\PSoC5/cyfitter_cfg.c **** #endif
  69:Generated_Source\PSoC5/cyfitter_cfg.c **** #ifndef CYXDATA
  70:Generated_Source\PSoC5/cyfitter_cfg.c ****     #define CYXDATA
  71:Generated_Source\PSoC5/cyfitter_cfg.c **** #endif
  72:Generated_Source\PSoC5/cyfitter_cfg.c **** 
  73:Generated_Source\PSoC5/cyfitter_cfg.c **** 
  74:Generated_Source\PSoC5/cyfitter_cfg.c **** CY_CFG_UNUSED
  75:Generated_Source\PSoC5/cyfitter_cfg.c **** static void CYMEMZERO(void *s, size_t n);
  76:Generated_Source\PSoC5/cyfitter_cfg.c **** CY_CFG_UNUSED
  77:Generated_Source\PSoC5/cyfitter_cfg.c **** static void CYMEMZERO(void *s, size_t n)
  78:Generated_Source\PSoC5/cyfitter_cfg.c **** {
  79:Generated_Source\PSoC5/cyfitter_cfg.c **** 	(void)memset(s, 0, n);
  80:Generated_Source\PSoC5/cyfitter_cfg.c **** }
  81:Generated_Source\PSoC5/cyfitter_cfg.c **** CY_CFG_UNUSED
  82:Generated_Source\PSoC5/cyfitter_cfg.c **** static void CYCONFIGCPY(void *dest, const void *src, size_t n);
  83:Generated_Source\PSoC5/cyfitter_cfg.c **** CY_CFG_UNUSED
  84:Generated_Source\PSoC5/cyfitter_cfg.c **** static void CYCONFIGCPY(void *dest, const void *src, size_t n)
  85:Generated_Source\PSoC5/cyfitter_cfg.c **** {
  86:Generated_Source\PSoC5/cyfitter_cfg.c **** 	(void)memcpy(dest, src, n);
  87:Generated_Source\PSoC5/cyfitter_cfg.c **** }
  88:Generated_Source\PSoC5/cyfitter_cfg.c **** CY_CFG_UNUSED
ARM GAS  C:\Users\EA527~1.IVA\AppData\Local\Temp\ccobbWkt.s 			page 3


  89:Generated_Source\PSoC5/cyfitter_cfg.c **** static void CYCONFIGCPYCODE(void *dest, const void *src, size_t n);
  90:Generated_Source\PSoC5/cyfitter_cfg.c **** CY_CFG_UNUSED
  91:Generated_Source\PSoC5/cyfitter_cfg.c **** static void CYCONFIGCPYCODE(void *dest, const void *src, size_t n)
  92:Generated_Source\PSoC5/cyfitter_cfg.c **** {
  93:Generated_Source\PSoC5/cyfitter_cfg.c **** 	(void)memcpy(dest, src, n);
  94:Generated_Source\PSoC5/cyfitter_cfg.c **** }
  95:Generated_Source\PSoC5/cyfitter_cfg.c **** 
  96:Generated_Source\PSoC5/cyfitter_cfg.c **** 
  97:Generated_Source\PSoC5/cyfitter_cfg.c **** 
  98:Generated_Source\PSoC5/cyfitter_cfg.c **** 
  99:Generated_Source\PSoC5/cyfitter_cfg.c **** /* Clock startup error codes                                                   */
 100:Generated_Source\PSoC5/cyfitter_cfg.c **** #define CYCLOCKSTART_NO_ERROR    0u
 101:Generated_Source\PSoC5/cyfitter_cfg.c **** #define CYCLOCKSTART_XTAL_ERROR  1u
 102:Generated_Source\PSoC5/cyfitter_cfg.c **** #define CYCLOCKSTART_32KHZ_ERROR 2u
 103:Generated_Source\PSoC5/cyfitter_cfg.c **** #define CYCLOCKSTART_PLL_ERROR   3u
 104:Generated_Source\PSoC5/cyfitter_cfg.c **** #define CYCLOCKSTART_FLL_ERROR   4u
 105:Generated_Source\PSoC5/cyfitter_cfg.c **** #define CYCLOCKSTART_WCO_ERROR   5u
 106:Generated_Source\PSoC5/cyfitter_cfg.c **** 
 107:Generated_Source\PSoC5/cyfitter_cfg.c **** 
 108:Generated_Source\PSoC5/cyfitter_cfg.c **** #ifdef CY_NEED_CYCLOCKSTARTUPERROR
 109:Generated_Source\PSoC5/cyfitter_cfg.c **** /*******************************************************************************
 110:Generated_Source\PSoC5/cyfitter_cfg.c **** * Function Name: CyClockStartupError
 111:Generated_Source\PSoC5/cyfitter_cfg.c **** ********************************************************************************
 112:Generated_Source\PSoC5/cyfitter_cfg.c **** * Summary:
 113:Generated_Source\PSoC5/cyfitter_cfg.c **** *  If an error is encountered during clock configuration (crystal startup error,
 114:Generated_Source\PSoC5/cyfitter_cfg.c **** *  PLL lock error, etc.), the system will end up here.  Unless reimplemented by
 115:Generated_Source\PSoC5/cyfitter_cfg.c **** *  the customer, this function will stop in an infinite loop.
 116:Generated_Source\PSoC5/cyfitter_cfg.c **** *
 117:Generated_Source\PSoC5/cyfitter_cfg.c **** * Parameters:
 118:Generated_Source\PSoC5/cyfitter_cfg.c **** *   void
 119:Generated_Source\PSoC5/cyfitter_cfg.c **** *
 120:Generated_Source\PSoC5/cyfitter_cfg.c **** * Return:
 121:Generated_Source\PSoC5/cyfitter_cfg.c **** *   void
 122:Generated_Source\PSoC5/cyfitter_cfg.c **** *
 123:Generated_Source\PSoC5/cyfitter_cfg.c **** *******************************************************************************/
 124:Generated_Source\PSoC5/cyfitter_cfg.c **** CY_CFG_UNUSED
 125:Generated_Source\PSoC5/cyfitter_cfg.c **** static void CyClockStartupError(uint8 errorCode);
 126:Generated_Source\PSoC5/cyfitter_cfg.c **** CY_CFG_UNUSED
 127:Generated_Source\PSoC5/cyfitter_cfg.c **** static void CyClockStartupError(uint8 errorCode)
 128:Generated_Source\PSoC5/cyfitter_cfg.c **** {
  27              		.loc 1 128 0
  28              		.cfi_startproc
  29              		@ Volatile: function does not return.
  30              		@ args = 0, pretend = 0, frame = 0
  31              		@ frame_needed = 0, uses_anonymous_args = 0
  32              		@ link register save eliminated.
  33              	.LVL0:
  34              	.L2:
  35 0000 FEE7     		b	.L2
  36              		.cfi_endproc
  37              	.LFE3:
  38              		.size	CyClockStartupError, .-CyClockStartupError
  39 0002 00BF     		.section	.text.cfg_write_bytes32,"ax",%progbits
  40              		.align	2
  41              		.thumb
  42              		.thumb_func
  43              		.type	cfg_write_bytes32, %function
ARM GAS  C:\Users\EA527~1.IVA\AppData\Local\Temp\ccobbWkt.s 			page 4


  44              	cfg_write_bytes32:
  45              	.LFB4:
 129:Generated_Source\PSoC5/cyfitter_cfg.c ****     /* To remove the compiler warning if errorCode not used.                */
 130:Generated_Source\PSoC5/cyfitter_cfg.c ****     errorCode = errorCode;
 131:Generated_Source\PSoC5/cyfitter_cfg.c **** 
 132:Generated_Source\PSoC5/cyfitter_cfg.c ****     /* If we have a clock startup error (bad MHz crystal, PLL lock, etc.),  */
 133:Generated_Source\PSoC5/cyfitter_cfg.c ****     /* we will end up here to allow the customer to implement something to  */
 134:Generated_Source\PSoC5/cyfitter_cfg.c ****     /* deal with the clock condition.                                       */
 135:Generated_Source\PSoC5/cyfitter_cfg.c **** 
 136:Generated_Source\PSoC5/cyfitter_cfg.c **** #ifdef CY_CFG_CLOCK_STARTUP_ERROR_CALLBACK
 137:Generated_Source\PSoC5/cyfitter_cfg.c ****     CY_CFG_Clock_Startup_ErrorCallback();
 138:Generated_Source\PSoC5/cyfitter_cfg.c **** #else
 139:Generated_Source\PSoC5/cyfitter_cfg.c ****     /*  If not using CY_CFG_CLOCK_STARTUP_ERROR_CALLBACK, place your clock startup code here. */
 140:Generated_Source\PSoC5/cyfitter_cfg.c ****     /* `#START CyClockStartupError` */
 141:Generated_Source\PSoC5/cyfitter_cfg.c **** 
 142:Generated_Source\PSoC5/cyfitter_cfg.c **** 
 143:Generated_Source\PSoC5/cyfitter_cfg.c **** 
 144:Generated_Source\PSoC5/cyfitter_cfg.c ****     /* `#END` */
 145:Generated_Source\PSoC5/cyfitter_cfg.c **** 
 146:Generated_Source\PSoC5/cyfitter_cfg.c ****     while(1) {}
 147:Generated_Source\PSoC5/cyfitter_cfg.c **** #endif /* CY_CFG_CLOCK_STARTUP_ERROR_CALLBACK */
 148:Generated_Source\PSoC5/cyfitter_cfg.c **** }
 149:Generated_Source\PSoC5/cyfitter_cfg.c **** #endif
 150:Generated_Source\PSoC5/cyfitter_cfg.c **** 
 151:Generated_Source\PSoC5/cyfitter_cfg.c **** #define CY_CFG_BASE_ADDR_COUNT 41u
 152:Generated_Source\PSoC5/cyfitter_cfg.c **** CYPACKED typedef struct
 153:Generated_Source\PSoC5/cyfitter_cfg.c **** {
 154:Generated_Source\PSoC5/cyfitter_cfg.c **** 	uint8 offset;
 155:Generated_Source\PSoC5/cyfitter_cfg.c **** 	uint8 value;
 156:Generated_Source\PSoC5/cyfitter_cfg.c **** } CYPACKED_ATTR cy_cfg_addrvalue_t;
 157:Generated_Source\PSoC5/cyfitter_cfg.c **** 
 158:Generated_Source\PSoC5/cyfitter_cfg.c **** #define cy_cfg_addr_table ((const uint32 CYFAR *)0x48000000u)
 159:Generated_Source\PSoC5/cyfitter_cfg.c **** #define cy_cfg_data_table ((const cy_cfg_addrvalue_t CYFAR *)0x480000A4u)
 160:Generated_Source\PSoC5/cyfitter_cfg.c **** 
 161:Generated_Source\PSoC5/cyfitter_cfg.c **** /* UDB_0_2_0_CONFIG Address: CYDEV_UCFG_B0_P4_U1_BASE Size (bytes): 128 */
 162:Generated_Source\PSoC5/cyfitter_cfg.c **** #define BS_UDB_0_2_0_CONFIG_VAL ((const uint8 CYFAR *)0x48001140u)
 163:Generated_Source\PSoC5/cyfitter_cfg.c **** 
 164:Generated_Source\PSoC5/cyfitter_cfg.c **** /* UDB_0_1_0_CONFIG Address: CYDEV_UCFG_B1_P4_U1_BASE Size (bytes): 128 */
 165:Generated_Source\PSoC5/cyfitter_cfg.c **** #define BS_UDB_0_1_0_CONFIG_VAL ((const uint8 CYFAR *)0x480011C0u)
 166:Generated_Source\PSoC5/cyfitter_cfg.c **** 
 167:Generated_Source\PSoC5/cyfitter_cfg.c **** /* UCFG_BCTL0 Address: CYREG_BCTL0_MDCLK_EN Size (bytes): 16 */
 168:Generated_Source\PSoC5/cyfitter_cfg.c **** #define BS_UCFG_BCTL0_VAL ((const uint8 CYFAR *)0x48001240u)
 169:Generated_Source\PSoC5/cyfitter_cfg.c **** 
 170:Generated_Source\PSoC5/cyfitter_cfg.c **** /* IOPINS0_0 Address: CYREG_PRT0_DR Size (bytes): 10 */
 171:Generated_Source\PSoC5/cyfitter_cfg.c **** #define BS_IOPINS0_0_VAL ((const uint8 CYFAR *)0x48001250u)
 172:Generated_Source\PSoC5/cyfitter_cfg.c **** 
 173:Generated_Source\PSoC5/cyfitter_cfg.c **** /* IOPINS0_7 Address: CYREG_PRT12_DM0 Size (bytes): 8 */
 174:Generated_Source\PSoC5/cyfitter_cfg.c **** #define BS_IOPINS0_7_VAL ((const uint8 CYFAR *)0x4800125Cu)
 175:Generated_Source\PSoC5/cyfitter_cfg.c **** 
 176:Generated_Source\PSoC5/cyfitter_cfg.c **** /* IOPINS1_7 Address: CYREG_PRT12_DM0 + 0x00000009u Size (bytes): 5 */
 177:Generated_Source\PSoC5/cyfitter_cfg.c **** #define BS_IOPINS1_7_VAL ((const uint8 CYFAR *)0x48001264u)
 178:Generated_Source\PSoC5/cyfitter_cfg.c **** 
 179:Generated_Source\PSoC5/cyfitter_cfg.c **** /* IOPINS0_8 Address: CYREG_PRT15_DM0 Size (bytes): 8 */
 180:Generated_Source\PSoC5/cyfitter_cfg.c **** #define BS_IOPINS0_8_VAL ((const uint8 CYFAR *)0x4800126Cu)
 181:Generated_Source\PSoC5/cyfitter_cfg.c **** 
 182:Generated_Source\PSoC5/cyfitter_cfg.c **** /* IOPINS0_1 Address: CYREG_PRT1_DR Size (bytes): 10 */
 183:Generated_Source\PSoC5/cyfitter_cfg.c **** #define BS_IOPINS0_1_VAL ((const uint8 CYFAR *)0x48001274u)
ARM GAS  C:\Users\EA527~1.IVA\AppData\Local\Temp\ccobbWkt.s 			page 5


 184:Generated_Source\PSoC5/cyfitter_cfg.c **** 
 185:Generated_Source\PSoC5/cyfitter_cfg.c **** /* IOPINS0_2 Address: CYREG_PRT2_DR Size (bytes): 10 */
 186:Generated_Source\PSoC5/cyfitter_cfg.c **** #define BS_IOPINS0_2_VAL ((const uint8 CYFAR *)0x48001280u)
 187:Generated_Source\PSoC5/cyfitter_cfg.c **** 
 188:Generated_Source\PSoC5/cyfitter_cfg.c **** /* IOPINS0_3 Address: CYREG_PRT3_DR Size (bytes): 10 */
 189:Generated_Source\PSoC5/cyfitter_cfg.c **** #define BS_IOPINS0_3_VAL ((const uint8 CYFAR *)0x4800128Cu)
 190:Generated_Source\PSoC5/cyfitter_cfg.c **** 
 191:Generated_Source\PSoC5/cyfitter_cfg.c **** 
 192:Generated_Source\PSoC5/cyfitter_cfg.c **** /*******************************************************************************
 193:Generated_Source\PSoC5/cyfitter_cfg.c **** * Function Name: cfg_write_bytes32
 194:Generated_Source\PSoC5/cyfitter_cfg.c **** ********************************************************************************
 195:Generated_Source\PSoC5/cyfitter_cfg.c **** * Summary:
 196:Generated_Source\PSoC5/cyfitter_cfg.c **** *  This function is used for setting up the chip configuration areas that
 197:Generated_Source\PSoC5/cyfitter_cfg.c **** *  contain relatively sparse data.
 198:Generated_Source\PSoC5/cyfitter_cfg.c **** *
 199:Generated_Source\PSoC5/cyfitter_cfg.c **** * Parameters:
 200:Generated_Source\PSoC5/cyfitter_cfg.c **** *   void
 201:Generated_Source\PSoC5/cyfitter_cfg.c **** *
 202:Generated_Source\PSoC5/cyfitter_cfg.c **** * Return:
 203:Generated_Source\PSoC5/cyfitter_cfg.c **** *   void
 204:Generated_Source\PSoC5/cyfitter_cfg.c **** *
 205:Generated_Source\PSoC5/cyfitter_cfg.c **** *******************************************************************************/
 206:Generated_Source\PSoC5/cyfitter_cfg.c **** static void cfg_write_bytes32(const uint32 addr_table[], const cy_cfg_addrvalue_t data_table[]);
 207:Generated_Source\PSoC5/cyfitter_cfg.c **** static void cfg_write_bytes32(const uint32 addr_table[], const cy_cfg_addrvalue_t data_table[])
 208:Generated_Source\PSoC5/cyfitter_cfg.c **** {
  46              		.loc 1 208 0
  47              		.cfi_startproc
  48              		@ args = 0, pretend = 0, frame = 0
  49              		@ frame_needed = 0, uses_anonymous_args = 0
  50              		@ link register save eliminated.
  51              	.LVL1:
  52              		.loc 1 208 0
  53 0000 F0B4     		push	{r4, r5, r6, r7}
  54              		.cfi_def_cfa_offset 16
  55              		.cfi_offset 4, -16
  56              		.cfi_offset 5, -12
  57              		.cfi_offset 6, -8
  58              		.cfi_offset 7, -4
  59              	.LVL2:
 209:Generated_Source\PSoC5/cyfitter_cfg.c **** 	/* For 32-bit little-endian architectures */
 210:Generated_Source\PSoC5/cyfitter_cfg.c **** 	uint32 i, j = 0u;
  60              		.loc 1 210 0
  61 0002 0022     		movs	r2, #0
 211:Generated_Source\PSoC5/cyfitter_cfg.c **** 	for (i = 0u; i < CY_CFG_BASE_ADDR_COUNT; i++)
  62              		.loc 1 211 0
  63 0004 1746     		mov	r7, r2
  64 0006 11E0     		b	.L4
  65              	.LVL3:
  66              	.L7:
  67              	.LBB2:
 212:Generated_Source\PSoC5/cyfitter_cfg.c **** 	{
 213:Generated_Source\PSoC5/cyfitter_cfg.c **** 		uint32 baseAddr = addr_table[i];
  68              		.loc 1 213 0
  69 0008 50F82760 		ldr	r6, [r0, r7, lsl #2]
  70              	.LVL4:
 214:Generated_Source\PSoC5/cyfitter_cfg.c **** 		uint8 count = (uint8)baseAddr;
  71              		.loc 1 214 0
ARM GAS  C:\Users\EA527~1.IVA\AppData\Local\Temp\ccobbWkt.s 			page 6


  72 000c F3B2     		uxtb	r3, r6
  73              	.LVL5:
 215:Generated_Source\PSoC5/cyfitter_cfg.c **** 		baseAddr &= 0xFFFFFF00u;
  74              		.loc 1 215 0
  75 000e 26F0FF06 		bic	r6, r6, #255
  76              	.LVL6:
 216:Generated_Source\PSoC5/cyfitter_cfg.c **** 		while (count != 0u)
  77              		.loc 1 216 0
  78 0012 08E0     		b	.L5
  79              	.L6:
 217:Generated_Source\PSoC5/cyfitter_cfg.c **** 		{
 218:Generated_Source\PSoC5/cyfitter_cfg.c **** 			CY_SET_REG8((void *)(baseAddr + data_table[j].offset), data_table[j].value);
  80              		.loc 1 218 0
  81 0014 01EB4205 		add	r5, r1, r2, lsl #1
  82 0018 11F81240 		ldrb	r4, [r1, r2, lsl #1]	@ zero_extendqisi2
  83 001c 6D78     		ldrb	r5, [r5, #1]	@ zero_extendqisi2
  84 001e A555     		strb	r5, [r4, r6]
 219:Generated_Source\PSoC5/cyfitter_cfg.c **** 			j++;
  85              		.loc 1 219 0
  86 0020 0132     		adds	r2, r2, #1
  87              	.LVL7:
 220:Generated_Source\PSoC5/cyfitter_cfg.c **** 			count--;
  88              		.loc 1 220 0
  89 0022 013B     		subs	r3, r3, #1
  90              	.LVL8:
  91 0024 DBB2     		uxtb	r3, r3
  92              	.LVL9:
  93              	.L5:
 216:Generated_Source\PSoC5/cyfitter_cfg.c **** 		{
  94              		.loc 1 216 0
  95 0026 002B     		cmp	r3, #0
  96 0028 F4D1     		bne	.L6
  97              	.LBE2:
 211:Generated_Source\PSoC5/cyfitter_cfg.c **** 	{
  98              		.loc 1 211 0 discriminator 2
  99 002a 0137     		adds	r7, r7, #1
 100              	.LVL10:
 101              	.L4:
 211:Generated_Source\PSoC5/cyfitter_cfg.c **** 	{
 102              		.loc 1 211 0 is_stmt 0 discriminator 1
 103 002c 282F     		cmp	r7, #40
 104 002e EBD9     		bls	.L7
 221:Generated_Source\PSoC5/cyfitter_cfg.c **** 		}
 222:Generated_Source\PSoC5/cyfitter_cfg.c **** 	}
 223:Generated_Source\PSoC5/cyfitter_cfg.c **** }
 105              		.loc 1 223 0 is_stmt 1
 106 0030 F0BC     		pop	{r4, r5, r6, r7}
 107              		.cfi_restore 7
 108              		.cfi_restore 6
 109              		.cfi_restore 5
 110              		.cfi_restore 4
 111              		.cfi_def_cfa_offset 0
 112              	.LVL11:
 113 0032 7047     		bx	lr
 114              		.cfi_endproc
 115              	.LFE4:
 116              		.size	cfg_write_bytes32, .-cfg_write_bytes32
ARM GAS  C:\Users\EA527~1.IVA\AppData\Local\Temp\ccobbWkt.s 			page 7


 117              		.section	.text.AnalogSetDefault,"ax",%progbits
 118              		.align	2
 119              		.thumb
 120              		.thumb_func
 121              		.type	AnalogSetDefault, %function
 122              	AnalogSetDefault:
 123              	.LFB6:
 224:Generated_Source\PSoC5/cyfitter_cfg.c **** 
 225:Generated_Source\PSoC5/cyfitter_cfg.c **** /*******************************************************************************
 226:Generated_Source\PSoC5/cyfitter_cfg.c **** * Function Name: ClockSetup
 227:Generated_Source\PSoC5/cyfitter_cfg.c **** ********************************************************************************
 228:Generated_Source\PSoC5/cyfitter_cfg.c **** *
 229:Generated_Source\PSoC5/cyfitter_cfg.c **** * Summary:
 230:Generated_Source\PSoC5/cyfitter_cfg.c **** *  Performs the initialization of all of the clocks in the device based on the
 231:Generated_Source\PSoC5/cyfitter_cfg.c **** *  settings in the Clock tab of the DWR.  This includes enabling the requested
 232:Generated_Source\PSoC5/cyfitter_cfg.c **** *  clocks and setting the necessary dividers to produce the desired frequency. 
 233:Generated_Source\PSoC5/cyfitter_cfg.c **** *
 234:Generated_Source\PSoC5/cyfitter_cfg.c **** * Parameters:
 235:Generated_Source\PSoC5/cyfitter_cfg.c **** *  void
 236:Generated_Source\PSoC5/cyfitter_cfg.c **** *
 237:Generated_Source\PSoC5/cyfitter_cfg.c **** * Return:
 238:Generated_Source\PSoC5/cyfitter_cfg.c **** *  void
 239:Generated_Source\PSoC5/cyfitter_cfg.c **** *
 240:Generated_Source\PSoC5/cyfitter_cfg.c **** *******************************************************************************/
 241:Generated_Source\PSoC5/cyfitter_cfg.c **** static void ClockSetup(void);
 242:Generated_Source\PSoC5/cyfitter_cfg.c **** static void ClockSetup(void)
 243:Generated_Source\PSoC5/cyfitter_cfg.c **** {
 244:Generated_Source\PSoC5/cyfitter_cfg.c **** 	uint32 timeout;
 245:Generated_Source\PSoC5/cyfitter_cfg.c **** 	uint8 pllLock;
 246:Generated_Source\PSoC5/cyfitter_cfg.c **** 
 247:Generated_Source\PSoC5/cyfitter_cfg.c **** 
 248:Generated_Source\PSoC5/cyfitter_cfg.c **** 	/* Configure Digital Clocks based on settings from Clock DWR */
 249:Generated_Source\PSoC5/cyfitter_cfg.c **** 	CY_SET_XTND_REG16((void CYFAR *)(CYREG_CLKDIST_DCFG0_CFG0), 0x0001u);
 250:Generated_Source\PSoC5/cyfitter_cfg.c **** 	CY_SET_XTND_REG8((void CYFAR *)(CYREG_CLKDIST_DCFG0_CFG0 + 0x2u), 0x18u);
 251:Generated_Source\PSoC5/cyfitter_cfg.c **** 	CY_SET_XTND_REG16((void CYFAR *)(CYREG_CLKDIST_DCFG1_CFG0), 0x0001u);
 252:Generated_Source\PSoC5/cyfitter_cfg.c **** 	CY_SET_XTND_REG8((void CYFAR *)(CYREG_CLKDIST_DCFG1_CFG0 + 0x2u), 0x1Cu);
 253:Generated_Source\PSoC5/cyfitter_cfg.c **** 	CY_SET_XTND_REG16((void CYFAR *)(CYREG_CLKDIST_DCFG2_CFG0), 0x0008u);
 254:Generated_Source\PSoC5/cyfitter_cfg.c **** 	CY_SET_XTND_REG8((void CYFAR *)(CYREG_CLKDIST_DCFG2_CFG0 + 0x2u), 0x18u);
 255:Generated_Source\PSoC5/cyfitter_cfg.c **** 	CY_SET_XTND_REG16((void CYFAR *)(CYREG_CLKDIST_DCFG3_CFG0), 0x0023u);
 256:Generated_Source\PSoC5/cyfitter_cfg.c **** 	CY_SET_XTND_REG8((void CYFAR *)(CYREG_CLKDIST_DCFG3_CFG0 + 0x2u), 0x18u);
 257:Generated_Source\PSoC5/cyfitter_cfg.c **** 
 258:Generated_Source\PSoC5/cyfitter_cfg.c **** 	/* Configure ILO based on settings from Clock DWR */
 259:Generated_Source\PSoC5/cyfitter_cfg.c **** 	CY_SET_XTND_REG8((void CYFAR *)(CYREG_SLOWCLK_ILO_CR0), 0x02u);
 260:Generated_Source\PSoC5/cyfitter_cfg.c **** 	CY_SET_XTND_REG8((void CYFAR *)(CYREG_CLKDIST_CR), 0x08u);
 261:Generated_Source\PSoC5/cyfitter_cfg.c **** 
 262:Generated_Source\PSoC5/cyfitter_cfg.c **** 	/* Configure IMO based on settings from Clock DWR */
 263:Generated_Source\PSoC5/cyfitter_cfg.c **** 	CY_SET_XTND_REG8((void CYFAR *)(CYREG_FASTCLK_IMO_CR), 0x03u);
 264:Generated_Source\PSoC5/cyfitter_cfg.c **** 	CY_SET_XTND_REG8((void CYFAR *)(CYREG_IMO_TR1), (CY_GET_XTND_REG8((void CYFAR *)CYREG_FLSHID_CUST_
 265:Generated_Source\PSoC5/cyfitter_cfg.c **** 
 266:Generated_Source\PSoC5/cyfitter_cfg.c **** 	/* Configure PLL based on settings from Clock DWR */
 267:Generated_Source\PSoC5/cyfitter_cfg.c **** 	CY_SET_XTND_REG16((void CYFAR *)(CYREG_FASTCLK_PLL_P), 0x0018u);
 268:Generated_Source\PSoC5/cyfitter_cfg.c **** 	CY_SET_XTND_REG16((void CYFAR *)(CYREG_FASTCLK_PLL_CFG0), 0x2251u);
 269:Generated_Source\PSoC5/cyfitter_cfg.c **** 	/* Wait up to 250us for the PLL to lock */
 270:Generated_Source\PSoC5/cyfitter_cfg.c **** 	pllLock = 0u;
 271:Generated_Source\PSoC5/cyfitter_cfg.c **** 	for (timeout = 250u / 10u; (timeout > 0u) && (pllLock != 0x03u); timeout--)
 272:Generated_Source\PSoC5/cyfitter_cfg.c **** 	{ 
 273:Generated_Source\PSoC5/cyfitter_cfg.c **** 		pllLock = 0x03u & ((uint8)((uint8)pllLock << 1) | ((CY_GET_XTND_REG8((void CYFAR *)CYREG_FASTCLK_
ARM GAS  C:\Users\EA527~1.IVA\AppData\Local\Temp\ccobbWkt.s 			page 8


 274:Generated_Source\PSoC5/cyfitter_cfg.c **** 		CyDelayCycles(10u * 48u); /* Delay 10us based on 48MHz clock */
 275:Generated_Source\PSoC5/cyfitter_cfg.c **** 	}
 276:Generated_Source\PSoC5/cyfitter_cfg.c **** 	/* If we ran out of time the PLL didn't lock so go to the error function */
 277:Generated_Source\PSoC5/cyfitter_cfg.c **** 	if (timeout == 0u)
 278:Generated_Source\PSoC5/cyfitter_cfg.c **** 	{
 279:Generated_Source\PSoC5/cyfitter_cfg.c **** 		CyClockStartupError(CYCLOCKSTART_PLL_ERROR);
 280:Generated_Source\PSoC5/cyfitter_cfg.c **** 	}
 281:Generated_Source\PSoC5/cyfitter_cfg.c **** 
 282:Generated_Source\PSoC5/cyfitter_cfg.c **** 	/* Configure Bus/Master Clock based on settings from Clock DWR */
 283:Generated_Source\PSoC5/cyfitter_cfg.c **** 	CY_SET_XTND_REG16((void CYFAR *)(CYREG_CLKDIST_MSTR0), 0x0100u);
 284:Generated_Source\PSoC5/cyfitter_cfg.c **** 	CY_SET_XTND_REG8((void CYFAR *)(CYREG_CLKDIST_MSTR0), 0x07u);
 285:Generated_Source\PSoC5/cyfitter_cfg.c **** 	CY_SET_XTND_REG8((void CYFAR *)(CYREG_CLKDIST_BCFG0), 0x00u);
 286:Generated_Source\PSoC5/cyfitter_cfg.c **** 	CY_SET_XTND_REG8((void CYFAR *)(CYREG_CLKDIST_BCFG2), 0x48u);
 287:Generated_Source\PSoC5/cyfitter_cfg.c **** 	CY_SET_XTND_REG8((void CYFAR *)(CYREG_CLKDIST_MSTR0), 0x00u);
 288:Generated_Source\PSoC5/cyfitter_cfg.c **** 	CY_SET_XTND_REG8((void CYFAR *)(CYREG_CLKDIST_LD), 0x02u);
 289:Generated_Source\PSoC5/cyfitter_cfg.c **** 
 290:Generated_Source\PSoC5/cyfitter_cfg.c **** 	CY_SET_XTND_REG8((void CYFAR *)(CYREG_PM_ACT_CFG2), ((CY_GET_XTND_REG8((void CYFAR *)CYREG_PM_ACT_
 291:Generated_Source\PSoC5/cyfitter_cfg.c **** }
 292:Generated_Source\PSoC5/cyfitter_cfg.c **** 
 293:Generated_Source\PSoC5/cyfitter_cfg.c **** 
 294:Generated_Source\PSoC5/cyfitter_cfg.c **** /* Analog API Functions */
 295:Generated_Source\PSoC5/cyfitter_cfg.c **** 
 296:Generated_Source\PSoC5/cyfitter_cfg.c **** 
 297:Generated_Source\PSoC5/cyfitter_cfg.c **** /*******************************************************************************
 298:Generated_Source\PSoC5/cyfitter_cfg.c **** * Function Name: AnalogSetDefault
 299:Generated_Source\PSoC5/cyfitter_cfg.c **** ********************************************************************************
 300:Generated_Source\PSoC5/cyfitter_cfg.c **** *
 301:Generated_Source\PSoC5/cyfitter_cfg.c **** * Summary:
 302:Generated_Source\PSoC5/cyfitter_cfg.c **** *  Sets up the analog portions of the chip to default values based on chip
 303:Generated_Source\PSoC5/cyfitter_cfg.c **** *  configuration options from the project.
 304:Generated_Source\PSoC5/cyfitter_cfg.c **** *
 305:Generated_Source\PSoC5/cyfitter_cfg.c **** * Parameters:
 306:Generated_Source\PSoC5/cyfitter_cfg.c **** *  void
 307:Generated_Source\PSoC5/cyfitter_cfg.c **** *
 308:Generated_Source\PSoC5/cyfitter_cfg.c **** * Return:
 309:Generated_Source\PSoC5/cyfitter_cfg.c **** *  void
 310:Generated_Source\PSoC5/cyfitter_cfg.c **** *
 311:Generated_Source\PSoC5/cyfitter_cfg.c **** *******************************************************************************/
 312:Generated_Source\PSoC5/cyfitter_cfg.c **** static void AnalogSetDefault(void);
 313:Generated_Source\PSoC5/cyfitter_cfg.c **** static void AnalogSetDefault(void)
 314:Generated_Source\PSoC5/cyfitter_cfg.c **** {
 124              		.loc 1 314 0
 125              		.cfi_startproc
 126              		@ args = 0, pretend = 0, frame = 0
 127              		@ frame_needed = 0, uses_anonymous_args = 0
 128              		@ link register save eliminated.
 315:Generated_Source\PSoC5/cyfitter_cfg.c **** 	uint8 bg_xover_inl_trim = CY_GET_XTND_REG8((void CYFAR *)(CYREG_FLSHID_MFG_CFG_BG_XOVER_INL_TRIM +
 129              		.loc 1 315 0
 130 0000 134B     		ldr	r3, .L10
 131 0002 1B78     		ldrb	r3, [r3]	@ zero_extendqisi2
 132 0004 DBB2     		uxtb	r3, r3
 133              	.LVL12:
 316:Generated_Source\PSoC5/cyfitter_cfg.c **** 	CY_SET_XTND_REG8((void CYFAR *)(CYREG_BG_DFT0), (bg_xover_inl_trim & 0x07u));
 134              		.loc 1 316 0
 135 0006 03F00701 		and	r1, r3, #7
 136 000a 124A     		ldr	r2, .L10+4
 137 000c 1170     		strb	r1, [r2]
ARM GAS  C:\Users\EA527~1.IVA\AppData\Local\Temp\ccobbWkt.s 			page 9


 317:Generated_Source\PSoC5/cyfitter_cfg.c **** 	CY_SET_XTND_REG8((void CYFAR *)(CYREG_BG_DFT1), ((bg_xover_inl_trim >> 4) & 0x0Fu));
 138              		.loc 1 317 0
 139 000e 1B09     		lsrs	r3, r3, #4
 140              	.LVL13:
 141 0010 0132     		adds	r2, r2, #1
 142 0012 1370     		strb	r3, [r2]
 318:Generated_Source\PSoC5/cyfitter_cfg.c **** 	CY_SET_XTND_REG8((void CYFAR *)CYREG_PRT15_AG, 0x03u);
 143              		.loc 1 318 0
 144 0014 0322     		movs	r2, #3
 145 0016 104B     		ldr	r3, .L10+8
 146 0018 1A70     		strb	r2, [r3]
 319:Generated_Source\PSoC5/cyfitter_cfg.c **** 	CY_SET_XTND_REG8((void CYFAR *)CYREG_BG_CR0, 0x0Cu);
 147              		.loc 1 319 0
 148 001a 0C22     		movs	r2, #12
 149 001c 03F26F63 		addw	r3, r3, #1647
 150 0020 1A70     		strb	r2, [r3]
 320:Generated_Source\PSoC5/cyfitter_cfg.c **** 	CY_SET_XTND_REG8((void CYFAR *)CYREG_DAC1_SW0, 0x01u);
 151              		.loc 1 320 0
 152 0022 0123     		movs	r3, #1
 153 0024 0D4A     		ldr	r2, .L10+12
 154 0026 1370     		strb	r3, [r2]
 321:Generated_Source\PSoC5/cyfitter_cfg.c **** 	CY_SET_XTND_REG8((void CYFAR *)CYREG_CMP1_SW0, 0x01u);
 155              		.loc 1 321 0
 156 0028 4032     		adds	r2, r2, #64
 157 002a 1370     		strb	r3, [r2]
 322:Generated_Source\PSoC5/cyfitter_cfg.c **** 	CY_SET_XTND_REG8((void CYFAR *)CYREG_CMP1_SW4, 0x10u);
 158              		.loc 1 322 0
 159 002c 1021     		movs	r1, #16
 160 002e 0432     		adds	r2, r2, #4
 161 0030 1170     		strb	r1, [r2]
 323:Generated_Source\PSoC5/cyfitter_cfg.c **** 	CY_SET_XTND_REG8((void CYFAR *)CYREG_CMP3_SW0, 0x01u);
 162              		.loc 1 323 0
 163 0032 0C32     		adds	r2, r2, #12
 164 0034 1370     		strb	r3, [r2]
 324:Generated_Source\PSoC5/cyfitter_cfg.c **** 	CY_SET_XTND_REG8((void CYFAR *)CYREG_CMP3_SW4, 0x20u);
 165              		.loc 1 324 0
 166 0036 2022     		movs	r2, #32
 167 0038 094B     		ldr	r3, .L10+16
 168 003a 1A70     		strb	r2, [r3]
 325:Generated_Source\PSoC5/cyfitter_cfg.c **** 	CY_SET_XTND_REG16((void CYFAR *)CYREG_OPAMP0_MX, 0x0105u);
 169              		.loc 1 325 0
 170 003c 40F20512 		movw	r2, #261
 171 0040 6433     		adds	r3, r3, #100
 172 0042 1A80     		strh	r2, [r3]	@ movhi
 326:Generated_Source\PSoC5/cyfitter_cfg.c **** 	CY_SET_XTND_REG8((void CYFAR *)CYREG_PUMP_CR0, 0x66u);
 173              		.loc 1 326 0
 174 0044 6622     		movs	r2, #102
 175 0046 A3F2CA23 		subw	r3, r3, #714
 176 004a 1A70     		strb	r2, [r3]
 177 004c 7047     		bx	lr
 178              	.L11:
 179 004e 00BF     		.align	2
 180              	.L10:
 181 0050 CF010049 		.word	1224737231
 182 0054 6E580040 		.word	1073764462
 183 0058 FD510040 		.word	1073762813
 184 005c 885A0040 		.word	1073765000
ARM GAS  C:\Users\EA527~1.IVA\AppData\Local\Temp\ccobbWkt.s 			page 10


 185 0060 DC5A0040 		.word	1073765084
 186              		.cfi_endproc
 187              	.LFE6:
 188              		.size	AnalogSetDefault, .-AnalogSetDefault
 189              		.section	.text.ClockSetup,"ax",%progbits
 190              		.align	2
 191              		.thumb
 192              		.thumb_func
 193              		.type	ClockSetup, %function
 194              	ClockSetup:
 195              	.LFB5:
 243:Generated_Source\PSoC5/cyfitter_cfg.c **** 	uint32 timeout;
 196              		.loc 1 243 0
 197              		.cfi_startproc
 198              		@ args = 0, pretend = 0, frame = 0
 199              		@ frame_needed = 0, uses_anonymous_args = 0
 200 0000 38B5     		push	{r3, r4, r5, lr}
 201              		.cfi_def_cfa_offset 16
 202              		.cfi_offset 3, -16
 203              		.cfi_offset 4, -12
 204              		.cfi_offset 5, -8
 205              		.cfi_offset 14, -4
 249:Generated_Source\PSoC5/cyfitter_cfg.c **** 	CY_SET_XTND_REG8((void CYFAR *)(CYREG_CLKDIST_DCFG0_CFG0 + 0x2u), 0x18u);
 206              		.loc 1 249 0
 207 0002 0122     		movs	r2, #1
 208 0004 2A4B     		ldr	r3, .L18
 209 0006 1A80     		strh	r2, [r3]	@ movhi
 250:Generated_Source\PSoC5/cyfitter_cfg.c **** 	CY_SET_XTND_REG16((void CYFAR *)(CYREG_CLKDIST_DCFG1_CFG0), 0x0001u);
 210              		.loc 1 250 0
 211 0008 1823     		movs	r3, #24
 212 000a 2A49     		ldr	r1, .L18+4
 213 000c 0B70     		strb	r3, [r1]
 251:Generated_Source\PSoC5/cyfitter_cfg.c **** 	CY_SET_XTND_REG8((void CYFAR *)(CYREG_CLKDIST_DCFG1_CFG0 + 0x2u), 0x1Cu);
 214              		.loc 1 251 0
 215 000e 0231     		adds	r1, r1, #2
 216 0010 0A80     		strh	r2, [r1]	@ movhi
 252:Generated_Source\PSoC5/cyfitter_cfg.c **** 	CY_SET_XTND_REG16((void CYFAR *)(CYREG_CLKDIST_DCFG2_CFG0), 0x0008u);
 217              		.loc 1 252 0
 218 0012 1C21     		movs	r1, #28
 219 0014 284A     		ldr	r2, .L18+8
 220 0016 1170     		strb	r1, [r2]
 253:Generated_Source\PSoC5/cyfitter_cfg.c **** 	CY_SET_XTND_REG8((void CYFAR *)(CYREG_CLKDIST_DCFG2_CFG0 + 0x2u), 0x18u);
 221              		.loc 1 253 0
 222 0018 0822     		movs	r2, #8
 223 001a 2849     		ldr	r1, .L18+12
 224 001c 0A80     		strh	r2, [r1]	@ movhi
 254:Generated_Source\PSoC5/cyfitter_cfg.c **** 	CY_SET_XTND_REG16((void CYFAR *)(CYREG_CLKDIST_DCFG3_CFG0), 0x0023u);
 225              		.loc 1 254 0
 226 001e 0231     		adds	r1, r1, #2
 227 0020 0B70     		strb	r3, [r1]
 255:Generated_Source\PSoC5/cyfitter_cfg.c **** 	CY_SET_XTND_REG8((void CYFAR *)(CYREG_CLKDIST_DCFG3_CFG0 + 0x2u), 0x18u);
 228              		.loc 1 255 0
 229 0022 2320     		movs	r0, #35
 230 0024 0231     		adds	r1, r1, #2
 231 0026 0880     		strh	r0, [r1]	@ movhi
 256:Generated_Source\PSoC5/cyfitter_cfg.c **** 
 232              		.loc 1 256 0
ARM GAS  C:\Users\EA527~1.IVA\AppData\Local\Temp\ccobbWkt.s 			page 11


 233 0028 0231     		adds	r1, r1, #2
 234 002a 0B70     		strb	r3, [r1]
 259:Generated_Source\PSoC5/cyfitter_cfg.c **** 	CY_SET_XTND_REG8((void CYFAR *)(CYREG_CLKDIST_CR), 0x08u);
 235              		.loc 1 259 0
 236 002c 0220     		movs	r0, #2
 237 002e 01F27221 		addw	r1, r1, #626
 238 0032 0870     		strb	r0, [r1]
 260:Generated_Source\PSoC5/cyfitter_cfg.c **** 
 239              		.loc 1 260 0
 240 0034 4FF04021 		mov	r1, #1073758208
 241 0038 0A70     		strb	r2, [r1]
 263:Generated_Source\PSoC5/cyfitter_cfg.c **** 	CY_SET_XTND_REG8((void CYFAR *)(CYREG_IMO_TR1), (CY_GET_XTND_REG8((void CYFAR *)CYREG_FLSHID_CUST_
 242              		.loc 1 263 0
 243 003a 0321     		movs	r1, #3
 244 003c 204A     		ldr	r2, .L18+16
 245 003e 1170     		strb	r1, [r2]
 264:Generated_Source\PSoC5/cyfitter_cfg.c **** 
 246              		.loc 1 264 0
 247 0040 204A     		ldr	r2, .L18+20
 248 0042 1278     		ldrb	r2, [r2]	@ zero_extendqisi2
 249 0044 D2B2     		uxtb	r2, r2
 250 0046 2049     		ldr	r1, .L18+24
 251 0048 0A70     		strb	r2, [r1]
 267:Generated_Source\PSoC5/cyfitter_cfg.c **** 	CY_SET_XTND_REG16((void CYFAR *)(CYREG_FASTCLK_PLL_CFG0), 0x2251u);
 252              		.loc 1 267 0
 253 004a 204A     		ldr	r2, .L18+28
 254 004c 1380     		strh	r3, [r2]	@ movhi
 268:Generated_Source\PSoC5/cyfitter_cfg.c **** 	/* Wait up to 250us for the PLL to lock */
 255              		.loc 1 268 0
 256 004e 42F25122 		movw	r2, #8785
 257 0052 1F4B     		ldr	r3, .L18+32
 258 0054 1A80     		strh	r2, [r3]	@ movhi
 259              	.LVL14:
 270:Generated_Source\PSoC5/cyfitter_cfg.c **** 	for (timeout = 250u / 10u; (timeout > 0u) && (pllLock != 0x03u); timeout--)
 260              		.loc 1 270 0
 261 0056 0024     		movs	r4, #0
 271:Generated_Source\PSoC5/cyfitter_cfg.c **** 	{ 
 262              		.loc 1 271 0
 263 0058 1925     		movs	r5, #25
 264 005a 0CE0     		b	.L13
 265              	.LVL15:
 266              	.L15:
 273:Generated_Source\PSoC5/cyfitter_cfg.c **** 		CyDelayCycles(10u * 48u); /* Delay 10us based on 48MHz clock */
 267              		.loc 1 273 0 discriminator 4
 268 005c 1D4B     		ldr	r3, .L18+36
 269 005e 1B78     		ldrb	r3, [r3]	@ zero_extendqisi2
 270 0060 03F00103 		and	r3, r3, #1
 271 0064 43EA4404 		orr	r4, r3, r4, lsl #1
 272              	.LVL16:
 273 0068 04F00304 		and	r4, r4, #3
 274              	.LVL17:
 274:Generated_Source\PSoC5/cyfitter_cfg.c **** 	}
 275              		.loc 1 274 0 discriminator 4
 276 006c 4FF4F070 		mov	r0, #480
 277 0070 FFF7FEFF 		bl	CyDelayCycles
 278              	.LVL18:
 271:Generated_Source\PSoC5/cyfitter_cfg.c **** 	{ 
ARM GAS  C:\Users\EA527~1.IVA\AppData\Local\Temp\ccobbWkt.s 			page 12


 279              		.loc 1 271 0 discriminator 4
 280 0074 013D     		subs	r5, r5, #1
 281              	.LVL19:
 282              	.L13:
 271:Generated_Source\PSoC5/cyfitter_cfg.c **** 	{ 
 283              		.loc 1 271 0 is_stmt 0 discriminator 1
 284 0076 0DB1     		cbz	r5, .L14
 271:Generated_Source\PSoC5/cyfitter_cfg.c **** 	{ 
 285              		.loc 1 271 0 discriminator 3
 286 0078 032C     		cmp	r4, #3
 287 007a EFD1     		bne	.L15
 288              	.L14:
 277:Generated_Source\PSoC5/cyfitter_cfg.c **** 	{
 289              		.loc 1 277 0 is_stmt 1
 290 007c 15B9     		cbnz	r5, .L16
 279:Generated_Source\PSoC5/cyfitter_cfg.c **** 	}
 291              		.loc 1 279 0
 292 007e 0320     		movs	r0, #3
 293 0080 FFF7FEFF 		bl	CyClockStartupError
 294              	.LVL20:
 295              	.L16:
 283:Generated_Source\PSoC5/cyfitter_cfg.c **** 	CY_SET_XTND_REG8((void CYFAR *)(CYREG_CLKDIST_MSTR0), 0x07u);
 296              		.loc 1 283 0
 297 0084 144B     		ldr	r3, .L18+40
 298 0086 4FF48072 		mov	r2, #256
 299 008a 1A80     		strh	r2, [r3]	@ movhi
 284:Generated_Source\PSoC5/cyfitter_cfg.c **** 	CY_SET_XTND_REG8((void CYFAR *)(CYREG_CLKDIST_BCFG0), 0x00u);
 300              		.loc 1 284 0
 301 008c 0722     		movs	r2, #7
 302 008e 1A70     		strb	r2, [r3]
 285:Generated_Source\PSoC5/cyfitter_cfg.c **** 	CY_SET_XTND_REG8((void CYFAR *)(CYREG_CLKDIST_BCFG2), 0x48u);
 303              		.loc 1 285 0
 304 0090 0022     		movs	r2, #0
 305 0092 1249     		ldr	r1, .L18+44
 306 0094 0A70     		strb	r2, [r1]
 286:Generated_Source\PSoC5/cyfitter_cfg.c **** 	CY_SET_XTND_REG8((void CYFAR *)(CYREG_CLKDIST_MSTR0), 0x00u);
 307              		.loc 1 286 0
 308 0096 4820     		movs	r0, #72
 309 0098 0231     		adds	r1, r1, #2
 310 009a 0870     		strb	r0, [r1]
 287:Generated_Source\PSoC5/cyfitter_cfg.c **** 	CY_SET_XTND_REG8((void CYFAR *)(CYREG_CLKDIST_LD), 0x02u);
 311              		.loc 1 287 0
 312 009c 1A70     		strb	r2, [r3]
 288:Generated_Source\PSoC5/cyfitter_cfg.c **** 
 313              		.loc 1 288 0
 314 009e 0222     		movs	r2, #2
 315 00a0 033B     		subs	r3, r3, #3
 316 00a2 1A70     		strb	r2, [r3]
 290:Generated_Source\PSoC5/cyfitter_cfg.c **** }
 317              		.loc 1 290 0
 318 00a4 0E4A     		ldr	r2, .L18+48
 319 00a6 1378     		ldrb	r3, [r2]	@ zero_extendqisi2
 320 00a8 43F00F03 		orr	r3, r3, #15
 321 00ac 1370     		strb	r3, [r2]
 322 00ae 38BD     		pop	{r3, r4, r5, pc}
 323              	.LVL21:
 324              	.L19:
ARM GAS  C:\Users\EA527~1.IVA\AppData\Local\Temp\ccobbWkt.s 			page 13


 325              		.align	2
 326              	.L18:
 327 00b0 80400040 		.word	1073758336
 328 00b4 82400040 		.word	1073758338
 329 00b8 86400040 		.word	1073758342
 330 00bc 88400040 		.word	1073758344
 331 00c0 00420040 		.word	1073758720
 332 00c4 08010049 		.word	1224737032
 333 00c8 A1460040 		.word	1073759905
 334 00cc 22420040 		.word	1073758754
 335 00d0 20420040 		.word	1073758752
 336 00d4 25420040 		.word	1073758757
 337 00d8 04400040 		.word	1073758212
 338 00dc 06400040 		.word	1073758214
 339 00e0 A2430040 		.word	1073759138
 340              		.cfi_endproc
 341              	.LFE5:
 342              		.size	ClockSetup, .-ClockSetup
 343              		.section	.text.CYMEMZERO,"ax",%progbits
 344              		.align	2
 345              		.thumb
 346              		.thumb_func
 347              		.type	CYMEMZERO, %function
 348              	CYMEMZERO:
 349              	.LFB0:
  78:Generated_Source\PSoC5/cyfitter_cfg.c **** 	(void)memset(s, 0, n);
 350              		.loc 1 78 0
 351              		.cfi_startproc
 352              		@ args = 0, pretend = 0, frame = 0
 353              		@ frame_needed = 0, uses_anonymous_args = 0
 354              	.LVL22:
 355 0000 08B5     		push	{r3, lr}
 356              		.cfi_def_cfa_offset 8
 357              		.cfi_offset 3, -8
 358              		.cfi_offset 14, -4
  79:Generated_Source\PSoC5/cyfitter_cfg.c **** }
 359              		.loc 1 79 0
 360 0002 0A46     		mov	r2, r1
 361 0004 0021     		movs	r1, #0
 362              	.LVL23:
 363 0006 FFF7FEFF 		bl	memset
 364              	.LVL24:
 365 000a 08BD     		pop	{r3, pc}
 366              		.cfi_endproc
 367              	.LFE0:
 368              		.size	CYMEMZERO, .-CYMEMZERO
 369              		.section	.text.CYCONFIGCPY,"ax",%progbits
 370              		.align	2
 371              		.thumb
 372              		.thumb_func
 373              		.type	CYCONFIGCPY, %function
 374              	CYCONFIGCPY:
 375              	.LFB1:
  85:Generated_Source\PSoC5/cyfitter_cfg.c **** 	(void)memcpy(dest, src, n);
 376              		.loc 1 85 0
 377              		.cfi_startproc
 378              		@ args = 0, pretend = 0, frame = 0
ARM GAS  C:\Users\EA527~1.IVA\AppData\Local\Temp\ccobbWkt.s 			page 14


 379              		@ frame_needed = 0, uses_anonymous_args = 0
 380              	.LVL25:
 381 0000 08B5     		push	{r3, lr}
 382              		.cfi_def_cfa_offset 8
 383              		.cfi_offset 3, -8
 384              		.cfi_offset 14, -4
  86:Generated_Source\PSoC5/cyfitter_cfg.c **** }
 385              		.loc 1 86 0
 386 0002 FFF7FEFF 		bl	memcpy
 387              	.LVL26:
 388 0006 08BD     		pop	{r3, pc}
 389              		.cfi_endproc
 390              	.LFE1:
 391              		.size	CYCONFIGCPY, .-CYCONFIGCPY
 392              		.section	.text.SetAnalogRoutingPumps,"ax",%progbits
 393              		.align	2
 394              		.global	SetAnalogRoutingPumps
 395              		.thumb
 396              		.thumb_func
 397              		.type	SetAnalogRoutingPumps, %function
 398              	SetAnalogRoutingPumps:
 399              	.LFB7:
 327:Generated_Source\PSoC5/cyfitter_cfg.c **** }
 328:Generated_Source\PSoC5/cyfitter_cfg.c **** 
 329:Generated_Source\PSoC5/cyfitter_cfg.c **** 
 330:Generated_Source\PSoC5/cyfitter_cfg.c **** /*******************************************************************************
 331:Generated_Source\PSoC5/cyfitter_cfg.c **** * Function Name: SetAnalogRoutingPumps
 332:Generated_Source\PSoC5/cyfitter_cfg.c **** ********************************************************************************
 333:Generated_Source\PSoC5/cyfitter_cfg.c **** *
 334:Generated_Source\PSoC5/cyfitter_cfg.c **** * Summary:
 335:Generated_Source\PSoC5/cyfitter_cfg.c **** * Enables or disables the analog pumps feeding analog routing switches.
 336:Generated_Source\PSoC5/cyfitter_cfg.c **** * Intended to be called at startup, based on the Vdda system configuration;
 337:Generated_Source\PSoC5/cyfitter_cfg.c **** * may be called during operation when the user informs us that the Vdda voltage
 338:Generated_Source\PSoC5/cyfitter_cfg.c **** * crossed the pump threshold.
 339:Generated_Source\PSoC5/cyfitter_cfg.c **** *
 340:Generated_Source\PSoC5/cyfitter_cfg.c **** * Parameters:
 341:Generated_Source\PSoC5/cyfitter_cfg.c **** *  enabled - 1 to enable the pumps, 0 to disable the pumps
 342:Generated_Source\PSoC5/cyfitter_cfg.c **** *
 343:Generated_Source\PSoC5/cyfitter_cfg.c **** * Return:
 344:Generated_Source\PSoC5/cyfitter_cfg.c **** *  void
 345:Generated_Source\PSoC5/cyfitter_cfg.c **** *
 346:Generated_Source\PSoC5/cyfitter_cfg.c **** *******************************************************************************/
 347:Generated_Source\PSoC5/cyfitter_cfg.c **** void SetAnalogRoutingPumps(uint8 enabled)
 348:Generated_Source\PSoC5/cyfitter_cfg.c **** {
 400              		.loc 1 348 0
 401              		.cfi_startproc
 402              		@ args = 0, pretend = 0, frame = 0
 403              		@ frame_needed = 0, uses_anonymous_args = 0
 404              		@ link register save eliminated.
 405              	.LVL27:
 349:Generated_Source\PSoC5/cyfitter_cfg.c **** 	uint8 regValue = CY_GET_XTND_REG8((void CYFAR *)CYREG_PUMP_CR0);
 406              		.loc 1 349 0
 407 0000 054B     		ldr	r3, .L27
 408 0002 1B78     		ldrb	r3, [r3]	@ zero_extendqisi2
 409 0004 DBB2     		uxtb	r3, r3
 410              	.LVL28:
 350:Generated_Source\PSoC5/cyfitter_cfg.c **** 	if (enabled != 0u)
ARM GAS  C:\Users\EA527~1.IVA\AppData\Local\Temp\ccobbWkt.s 			page 15


 411              		.loc 1 350 0
 412 0006 10B1     		cbz	r0, .L25
 351:Generated_Source\PSoC5/cyfitter_cfg.c **** 	{
 352:Generated_Source\PSoC5/cyfitter_cfg.c **** 		regValue |= 0x22u;
 413              		.loc 1 352 0
 414 0008 43F02203 		orr	r3, r3, #34
 415              	.LVL29:
 416 000c 01E0     		b	.L26
 417              	.L25:
 353:Generated_Source\PSoC5/cyfitter_cfg.c **** 	}
 354:Generated_Source\PSoC5/cyfitter_cfg.c **** 	else
 355:Generated_Source\PSoC5/cyfitter_cfg.c **** 	{
 356:Generated_Source\PSoC5/cyfitter_cfg.c **** 		regValue &= (uint8)~0x22u;
 418              		.loc 1 356 0
 419 000e 03F0DD03 		and	r3, r3, #221
 420              	.LVL30:
 421              	.L26:
 357:Generated_Source\PSoC5/cyfitter_cfg.c **** 	}
 358:Generated_Source\PSoC5/cyfitter_cfg.c **** 	CY_SET_XTND_REG8((void CYFAR *)CYREG_PUMP_CR0, regValue);
 422              		.loc 1 358 0
 423 0012 014A     		ldr	r2, .L27
 424 0014 1370     		strb	r3, [r2]
 425 0016 7047     		bx	lr
 426              	.L28:
 427              		.align	2
 428              	.L27:
 429 0018 76580040 		.word	1073764470
 430              		.cfi_endproc
 431              	.LFE7:
 432              		.size	SetAnalogRoutingPumps, .-SetAnalogRoutingPumps
 433              		.section	.text.cyfitter_cfg,"ax",%progbits
 434              		.align	2
 435              		.global	cyfitter_cfg
 436              		.thumb
 437              		.thumb_func
 438              		.type	cyfitter_cfg, %function
 439              	cyfitter_cfg:
 440              	.LFB8:
 359:Generated_Source\PSoC5/cyfitter_cfg.c **** }
 360:Generated_Source\PSoC5/cyfitter_cfg.c **** 
 361:Generated_Source\PSoC5/cyfitter_cfg.c **** 
 362:Generated_Source\PSoC5/cyfitter_cfg.c **** 
 363:Generated_Source\PSoC5/cyfitter_cfg.c **** 
 364:Generated_Source\PSoC5/cyfitter_cfg.c **** /*******************************************************************************
 365:Generated_Source\PSoC5/cyfitter_cfg.c **** * Function Name: cyfitter_cfg
 366:Generated_Source\PSoC5/cyfitter_cfg.c **** ********************************************************************************
 367:Generated_Source\PSoC5/cyfitter_cfg.c **** * Summary:
 368:Generated_Source\PSoC5/cyfitter_cfg.c **** *  This function is called by the start-up code for the selected device. It
 369:Generated_Source\PSoC5/cyfitter_cfg.c **** *  performs all of the necessary device configuration based on the design
 370:Generated_Source\PSoC5/cyfitter_cfg.c **** *  settings.  This includes settings from the Design Wide Resources (DWR) such
 371:Generated_Source\PSoC5/cyfitter_cfg.c **** *  as Clocks and Pins as well as any component configuration that is necessary.
 372:Generated_Source\PSoC5/cyfitter_cfg.c **** *
 373:Generated_Source\PSoC5/cyfitter_cfg.c **** * Parameters:
 374:Generated_Source\PSoC5/cyfitter_cfg.c **** *   void
 375:Generated_Source\PSoC5/cyfitter_cfg.c **** *
 376:Generated_Source\PSoC5/cyfitter_cfg.c **** * Return:
 377:Generated_Source\PSoC5/cyfitter_cfg.c **** *   void
ARM GAS  C:\Users\EA527~1.IVA\AppData\Local\Temp\ccobbWkt.s 			page 16


 378:Generated_Source\PSoC5/cyfitter_cfg.c **** *
 379:Generated_Source\PSoC5/cyfitter_cfg.c **** *******************************************************************************/
 380:Generated_Source\PSoC5/cyfitter_cfg.c **** 
 381:Generated_Source\PSoC5/cyfitter_cfg.c **** void cyfitter_cfg(void)
 382:Generated_Source\PSoC5/cyfitter_cfg.c **** {
 441              		.loc 1 382 0
 442              		.cfi_startproc
 443              		@ args = 0, pretend = 0, frame = 0
 444              		@ frame_needed = 0, uses_anonymous_args = 0
 445 0000 38B5     		push	{r3, r4, r5, lr}
 446              		.cfi_def_cfa_offset 16
 447              		.cfi_offset 3, -16
 448              		.cfi_offset 4, -12
 449              		.cfi_offset 5, -8
 450              		.cfi_offset 14, -4
 383:Generated_Source\PSoC5/cyfitter_cfg.c **** #ifdef CYGlobalIntDisable
 384:Generated_Source\PSoC5/cyfitter_cfg.c **** 	/* Disable interrupts by default. Let user enable if/when they want. */
 385:Generated_Source\PSoC5/cyfitter_cfg.c **** 	CYGlobalIntDisable
 451              		.loc 1 385 0
 452              		.syntax unified
 453              	@ 385 "Generated_Source\PSoC5\cyfitter_cfg.c" 1
 454 0002 72B6     		CPSID   i
 455              	@ 0 "" 2
 386:Generated_Source\PSoC5/cyfitter_cfg.c **** #endif
 387:Generated_Source\PSoC5/cyfitter_cfg.c **** 
 388:Generated_Source\PSoC5/cyfitter_cfg.c **** 
 389:Generated_Source\PSoC5/cyfitter_cfg.c **** 	/* Set Flash Cycles based on max possible frequency in case a glitch occurs during ClockSetup(). *
 390:Generated_Source\PSoC5/cyfitter_cfg.c **** 	CY_SET_XTND_REG8((void CYFAR *)(CYREG_CACHE_CC_CTL), (((CYDEV_INSTRUCT_CACHE_ENABLED) != 0) ? 0x61
 456              		.loc 1 390 0
 457              		.thumb
 458              		.syntax unified
 459 0004 6122     		movs	r2, #97
 460 0006 4C4B     		ldr	r3, .L35
 461 0008 1A70     		strb	r2, [r3]
 391:Generated_Source\PSoC5/cyfitter_cfg.c **** 	/* Setup clocks based on selections from Clock DWR */
 392:Generated_Source\PSoC5/cyfitter_cfg.c **** 	ClockSetup();
 462              		.loc 1 392 0
 463 000a FFF7FEFF 		bl	ClockSetup
 464              	.LVL31:
 393:Generated_Source\PSoC5/cyfitter_cfg.c **** 	/* Enable/Disable Debug functionality based on settings from System DWR */
 394:Generated_Source\PSoC5/cyfitter_cfg.c **** 	CY_SET_XTND_REG8((void CYFAR *)CYREG_MLOGIC_DEBUG, (CY_GET_XTND_REG8((void CYFAR *)CYREG_MLOGIC_DE
 465              		.loc 1 394 0
 466 000e 4B4A     		ldr	r2, .L35+4
 467 0010 1378     		ldrb	r3, [r2]	@ zero_extendqisi2
 468 0012 43F00403 		orr	r3, r3, #4
 469 0016 1370     		strb	r3, [r2]
 470              	.LVL32:
 471              	.LBB3:
 395:Generated_Source\PSoC5/cyfitter_cfg.c **** 
 396:Generated_Source\PSoC5/cyfitter_cfg.c **** 	{
 397:Generated_Source\PSoC5/cyfitter_cfg.c **** 
 398:Generated_Source\PSoC5/cyfitter_cfg.c **** 		CYPACKED typedef struct {
 399:Generated_Source\PSoC5/cyfitter_cfg.c **** 			void CYFAR *address;
 400:Generated_Source\PSoC5/cyfitter_cfg.c **** 			uint16 size;
 401:Generated_Source\PSoC5/cyfitter_cfg.c **** 		} CYPACKED_ATTR cfg_memset_t;
 402:Generated_Source\PSoC5/cyfitter_cfg.c **** 
 403:Generated_Source\PSoC5/cyfitter_cfg.c **** 
ARM GAS  C:\Users\EA527~1.IVA\AppData\Local\Temp\ccobbWkt.s 			page 17


 404:Generated_Source\PSoC5/cyfitter_cfg.c **** 		CYPACKED typedef struct {
 405:Generated_Source\PSoC5/cyfitter_cfg.c **** 			void CYFAR *dest;
 406:Generated_Source\PSoC5/cyfitter_cfg.c **** 			const void CYFAR *src;
 407:Generated_Source\PSoC5/cyfitter_cfg.c **** 			uint16 size;
 408:Generated_Source\PSoC5/cyfitter_cfg.c **** 		} CYPACKED_ATTR cfg_memcpy_t;
 409:Generated_Source\PSoC5/cyfitter_cfg.c **** 
 410:Generated_Source\PSoC5/cyfitter_cfg.c **** 		static const cfg_memset_t CYCODE cfg_memset_list[] = {
 411:Generated_Source\PSoC5/cyfitter_cfg.c **** 			/* address, size */
 412:Generated_Source\PSoC5/cyfitter_cfg.c **** 			{(void CYFAR *)(CYREG_TMR0_CFG0), 12u},
 413:Generated_Source\PSoC5/cyfitter_cfg.c **** 			{(void CYFAR *)(CYREG_PRT4_DR), 48u},
 414:Generated_Source\PSoC5/cyfitter_cfg.c **** 			{(void CYFAR *)(CYDEV_UCFG_B0_P0_U0_BASE), 2176u},
 415:Generated_Source\PSoC5/cyfitter_cfg.c **** 			{(void CYFAR *)(CYDEV_UCFG_B0_P4_ROUTE_BASE), 1792u},
 416:Generated_Source\PSoC5/cyfitter_cfg.c **** 			{(void CYFAR *)(CYDEV_UCFG_B1_P2_U0_BASE), 1152u},
 417:Generated_Source\PSoC5/cyfitter_cfg.c **** 			{(void CYFAR *)(CYDEV_UCFG_B1_P4_ROUTE_BASE), 768u},
 418:Generated_Source\PSoC5/cyfitter_cfg.c **** 			{(void CYFAR *)(CYDEV_UCFG_DSI0_BASE), 2560u},
 419:Generated_Source\PSoC5/cyfitter_cfg.c **** 			{(void CYFAR *)(CYDEV_UCFG_DSI12_BASE), 512u},
 420:Generated_Source\PSoC5/cyfitter_cfg.c **** 			{(void CYFAR *)(CYREG_BCTL1_MDCLK_EN), 16u},
 421:Generated_Source\PSoC5/cyfitter_cfg.c **** 		};
 422:Generated_Source\PSoC5/cyfitter_cfg.c **** 
 423:Generated_Source\PSoC5/cyfitter_cfg.c **** 		static const cfg_memcpy_t CYCODE cfg_memcpy_list [] = {
 424:Generated_Source\PSoC5/cyfitter_cfg.c **** 			/* dest, src, size */
 425:Generated_Source\PSoC5/cyfitter_cfg.c **** 			{(void CYFAR *)(CYDEV_UCFG_B0_P4_U1_BASE), BS_UDB_0_2_0_CONFIG_VAL, 128u},
 426:Generated_Source\PSoC5/cyfitter_cfg.c **** 			{(void CYFAR *)(CYDEV_UCFG_B1_P4_U1_BASE), BS_UDB_0_1_0_CONFIG_VAL, 128u},
 427:Generated_Source\PSoC5/cyfitter_cfg.c **** 			{(void CYFAR *)(CYREG_BCTL0_MDCLK_EN), BS_UCFG_BCTL0_VAL, 16u},
 428:Generated_Source\PSoC5/cyfitter_cfg.c **** 		};
 429:Generated_Source\PSoC5/cyfitter_cfg.c **** 
 430:Generated_Source\PSoC5/cyfitter_cfg.c **** 		uint8 CYDATA i;
 431:Generated_Source\PSoC5/cyfitter_cfg.c **** 
 432:Generated_Source\PSoC5/cyfitter_cfg.c **** 		/* Zero out critical memory blocks before beginning configuration */
 433:Generated_Source\PSoC5/cyfitter_cfg.c **** 		for (i = 0u; i < (sizeof(cfg_memset_list)/sizeof(cfg_memset_list[0])); i++)
 472              		.loc 1 433 0
 473 0018 0024     		movs	r4, #0
 474 001a 0CE0     		b	.L30
 475              	.LVL33:
 476              	.L31:
 477              	.LBB4:
 434:Generated_Source\PSoC5/cyfitter_cfg.c **** 		{
 435:Generated_Source\PSoC5/cyfitter_cfg.c **** 			const cfg_memset_t CYCODE * CYDATA ms = &cfg_memset_list[i];
 436:Generated_Source\PSoC5/cyfitter_cfg.c **** 			CYMEMZERO(ms->address, (size_t)(uint32)(ms->size));
 478              		.loc 1 436 0 discriminator 3
 479 001c 484D     		ldr	r5, .L35+8
 480 001e 6300     		lsls	r3, r4, #1
 481 0020 1919     		adds	r1, r3, r4
 482 0022 4A00     		lsls	r2, r1, #1
 483 0024 1146     		mov	r1, r2
 484 0026 2A44     		add	r2, r2, r5
 485 0028 0846     		mov	r0, r1
 486 002a 9188     		ldrh	r1, [r2, #4]
 487 002c 2858     		ldr	r0, [r5, r0]	@ unaligned
 488 002e FFF7FEFF 		bl	CYMEMZERO
 489              	.LVL34:
 490              	.LBE4:
 433:Generated_Source\PSoC5/cyfitter_cfg.c **** 		{
 491              		.loc 1 433 0 discriminator 3
 492 0032 0134     		adds	r4, r4, #1
 493              	.LVL35:
 494 0034 E4B2     		uxtb	r4, r4
ARM GAS  C:\Users\EA527~1.IVA\AppData\Local\Temp\ccobbWkt.s 			page 18


 495              	.LVL36:
 496              	.L30:
 433:Generated_Source\PSoC5/cyfitter_cfg.c **** 		{
 497              		.loc 1 433 0 is_stmt 0 discriminator 1
 498 0036 082C     		cmp	r4, #8
 499 0038 F0D9     		bls	.L31
 500 003a 0024     		movs	r4, #0
 501              	.LVL37:
 502 003c 0CE0     		b	.L32
 503              	.LVL38:
 504              	.L33:
 505              	.LBB5:
 437:Generated_Source\PSoC5/cyfitter_cfg.c **** 		}
 438:Generated_Source\PSoC5/cyfitter_cfg.c **** 
 439:Generated_Source\PSoC5/cyfitter_cfg.c **** 		/* Copy device configuration data into registers */
 440:Generated_Source\PSoC5/cyfitter_cfg.c **** 		for (i = 0u; i < (sizeof(cfg_memcpy_list)/sizeof(cfg_memcpy_list[0])); i++)
 441:Generated_Source\PSoC5/cyfitter_cfg.c **** 		{
 442:Generated_Source\PSoC5/cyfitter_cfg.c **** 			const cfg_memcpy_t CYCODE * CYDATA mc = &cfg_memcpy_list[i];
 443:Generated_Source\PSoC5/cyfitter_cfg.c **** 			void * CYDATA destPtr = mc->dest;
 506              		.loc 1 443 0 is_stmt 1 discriminator 3
 507 003e 4048     		ldr	r0, .L35+8
 508 0040 A200     		lsls	r2, r4, #2
 509 0042 1119     		adds	r1, r2, r4
 510 0044 4B00     		lsls	r3, r1, #1
 511 0046 0344     		add	r3, r3, r0
 512              	.LVL39:
 444:Generated_Source\PSoC5/cyfitter_cfg.c **** 			const void * CYDATA srcPtr = mc->src;
 445:Generated_Source\PSoC5/cyfitter_cfg.c **** 			uint16 CYDATA numBytes = mc->size;
 446:Generated_Source\PSoC5/cyfitter_cfg.c **** 			CYCONFIGCPY(destPtr, srcPtr, numBytes);
 513              		.loc 1 446 0 discriminator 3
 514 0048 B3F84020 		ldrh	r2, [r3, #64]
 515 004c D96B     		ldr	r1, [r3, #60]	@ unaligned
 516              	.LVL40:
 517 004e 986B     		ldr	r0, [r3, #56]	@ unaligned
 518              	.LVL41:
 519 0050 FFF7FEFF 		bl	CYCONFIGCPY
 520              	.LVL42:
 521              	.LBE5:
 440:Generated_Source\PSoC5/cyfitter_cfg.c **** 		{
 522              		.loc 1 440 0 discriminator 3
 523 0054 0134     		adds	r4, r4, #1
 524              	.LVL43:
 525 0056 E4B2     		uxtb	r4, r4
 526              	.LVL44:
 527              	.L32:
 440:Generated_Source\PSoC5/cyfitter_cfg.c **** 		{
 528              		.loc 1 440 0 is_stmt 0 discriminator 1
 529 0058 022C     		cmp	r4, #2
 530 005a F0D9     		bls	.L33
 447:Generated_Source\PSoC5/cyfitter_cfg.c **** 		}
 448:Generated_Source\PSoC5/cyfitter_cfg.c **** 
 449:Generated_Source\PSoC5/cyfitter_cfg.c **** 		cfg_write_bytes32(cy_cfg_addr_table, cy_cfg_data_table);
 531              		.loc 1 449 0 is_stmt 1
 532 005c 3949     		ldr	r1, .L35+12
 533 005e 4FF09040 		mov	r0, #1207959552
 534 0062 FFF7FEFF 		bl	cfg_write_bytes32
 535              	.LVL45:
ARM GAS  C:\Users\EA527~1.IVA\AppData\Local\Temp\ccobbWkt.s 			page 19


 450:Generated_Source\PSoC5/cyfitter_cfg.c **** 
 451:Generated_Source\PSoC5/cyfitter_cfg.c **** 		/* Perform normal device configuration. Order is not critical for these items. */
 452:Generated_Source\PSoC5/cyfitter_cfg.c **** 		CY_SET_XTND_REG16((void CYFAR *)(CYREG_LUT1_CR), 0x0103u);
 536              		.loc 1 452 0
 537 0066 40F20312 		movw	r2, #259
 538 006a 374B     		ldr	r3, .L35+16
 539 006c 1A80     		strh	r2, [r3]	@ movhi
 453:Generated_Source\PSoC5/cyfitter_cfg.c **** 		CY_SET_XTND_REG16((void CYFAR *)(CYREG_LUT3_CR), 0x0303u);
 540              		.loc 1 453 0
 541 006e 40F20332 		movw	r2, #771
 542 0072 0433     		adds	r3, r3, #4
 543 0074 1A80     		strh	r2, [r3]	@ movhi
 454:Generated_Source\PSoC5/cyfitter_cfg.c **** 
 455:Generated_Source\PSoC5/cyfitter_cfg.c **** 		/* B0_P2_U0_CFG24 Starting address: CYDEV_UCFG_B0_P2_U0_CFG24 */
 456:Generated_Source\PSoC5/cyfitter_cfg.c **** 		CY_SET_XTND_REG32((void CYFAR *)(CYREG_B0_P2_U0_CFG24), 0x0908E4C4u);
 544              		.loc 1 456 0
 545 0076 354A     		ldr	r2, .L35+20
 546 0078 03F52C43 		add	r3, r3, #44032
 547 007c 0A33     		adds	r3, r3, #10
 548 007e 1A60     		str	r2, [r3]
 457:Generated_Source\PSoC5/cyfitter_cfg.c **** 
 458:Generated_Source\PSoC5/cyfitter_cfg.c **** 		/* B0_P3_U0_CFG24 Starting address: CYDEV_UCFG_B0_P3_U0_CFG24 */
 459:Generated_Source\PSoC5/cyfitter_cfg.c **** 		CY_SET_XTND_REG32((void CYFAR *)(CYREG_B0_P3_U0_CFG24), 0x040B4A44u);
 549              		.loc 1 459 0
 550 0080 334A     		ldr	r2, .L35+24
 551 0082 03F50073 		add	r3, r3, #512
 552 0086 1A60     		str	r2, [r3]
 460:Generated_Source\PSoC5/cyfitter_cfg.c **** 
 461:Generated_Source\PSoC5/cyfitter_cfg.c **** 		/* B0_P6_U0_CFG24 Starting address: CYDEV_UCFG_B0_P6_U0_CFG24 */
 462:Generated_Source\PSoC5/cyfitter_cfg.c **** 		CY_SET_XTND_REG32((void CYFAR *)(CYREG_B0_P6_U0_CFG24), 0x04048984u);
 553              		.loc 1 462 0
 554 0088 A2F5D822 		sub	r2, r2, #442368
 555 008c C03A     		subs	r2, r2, #192
 556 008e 03F5C063 		add	r3, r3, #1536
 557 0092 1A60     		str	r2, [r3]
 463:Generated_Source\PSoC5/cyfitter_cfg.c **** 
 464:Generated_Source\PSoC5/cyfitter_cfg.c **** 		/* B0_P7_U0_CFG24 Starting address: CYDEV_UCFG_B0_P7_U0_CFG24 */
 465:Generated_Source\PSoC5/cyfitter_cfg.c **** 		CY_SET_XTND_REG32((void CYFAR *)(CYREG_B0_P7_U0_CFG24), 0x84040424u);
 558              		.loc 1 465 0
 559 0094 2F4A     		ldr	r2, .L35+28
 560 0096 03F50073 		add	r3, r3, #512
 561 009a 1A60     		str	r2, [r3]
 466:Generated_Source\PSoC5/cyfitter_cfg.c **** 
 467:Generated_Source\PSoC5/cyfitter_cfg.c **** 		/* B0_P7_U1_CFG24 Starting address: CYDEV_UCFG_B0_P7_U1_CFG24 */
 468:Generated_Source\PSoC5/cyfitter_cfg.c **** 		CY_SET_XTND_REG32((void CYFAR *)(CYREG_B0_P7_U1_CFG24), 0x44000404u);
 562              		.loc 1 468 0
 563 009c 2E4A     		ldr	r2, .L35+32
 564 009e 8033     		adds	r3, r3, #128
 565 00a0 1A60     		str	r2, [r3]
 469:Generated_Source\PSoC5/cyfitter_cfg.c **** 
 470:Generated_Source\PSoC5/cyfitter_cfg.c **** 		/* B1_P4_U0_CFG24 Starting address: CYDEV_UCFG_B1_P4_U0_CFG24 */
 471:Generated_Source\PSoC5/cyfitter_cfg.c **** 		CY_SET_XTND_REG32((void CYFAR *)(CYREG_B1_P4_U0_CFG24), 0x0004444Au);
 566              		.loc 1 471 0
 567 00a2 2E4A     		ldr	r2, .L35+36
 568 00a4 03F51863 		add	r3, r3, #2432
 569 00a8 1A60     		str	r2, [r3]
 472:Generated_Source\PSoC5/cyfitter_cfg.c **** 
ARM GAS  C:\Users\EA527~1.IVA\AppData\Local\Temp\ccobbWkt.s 			page 20


 473:Generated_Source\PSoC5/cyfitter_cfg.c **** 		/* Enable digital routing */
 474:Generated_Source\PSoC5/cyfitter_cfg.c **** 		CY_SET_XTND_REG8((void CYFAR *)CYREG_BCTL0_BANK_CTL, CY_GET_XTND_REG8((void CYFAR *)CYREG_BCTL0_B
 570              		.loc 1 474 0
 571 00aa 2D4A     		ldr	r2, .L35+40
 572 00ac 1378     		ldrb	r3, [r2]	@ zero_extendqisi2
 573 00ae 43F00203 		orr	r3, r3, #2
 574 00b2 1370     		strb	r3, [r2]
 475:Generated_Source\PSoC5/cyfitter_cfg.c **** 		CY_SET_XTND_REG8((void CYFAR *)CYREG_BCTL1_BANK_CTL, CY_GET_XTND_REG8((void CYFAR *)CYREG_BCTL1_B
 575              		.loc 1 475 0
 576 00b4 1032     		adds	r2, r2, #16
 577 00b6 1378     		ldrb	r3, [r2]	@ zero_extendqisi2
 578 00b8 43F00203 		orr	r3, r3, #2
 579 00bc 1370     		strb	r3, [r2]
 476:Generated_Source\PSoC5/cyfitter_cfg.c **** 
 477:Generated_Source\PSoC5/cyfitter_cfg.c **** 		/* Enable UDB array */
 478:Generated_Source\PSoC5/cyfitter_cfg.c **** 		CY_SET_XTND_REG8((void CYFAR *)CYREG_PM_ACT_CFG0, CY_GET_XTND_REG8((void CYFAR *)CYREG_PM_ACT_CFG
 580              		.loc 1 478 0
 581 00be 294C     		ldr	r4, .L35+44
 582              	.LVL46:
 583 00c0 2378     		ldrb	r3, [r4]	@ zero_extendqisi2
 584 00c2 43F04003 		orr	r3, r3, #64
 585 00c6 2370     		strb	r3, [r4]
 479:Generated_Source\PSoC5/cyfitter_cfg.c **** 		CY_SET_XTND_REG8((void CYFAR *)CYREG_PM_AVAIL_CR2, CY_GET_XTND_REG8((void CYFAR *)CYREG_PM_AVAIL_
 586              		.loc 1 479 0
 587 00c8 A2F58632 		sub	r2, r2, #68608
 588 00cc 513A     		subs	r2, r2, #81
 589 00ce 1378     		ldrb	r3, [r2]	@ zero_extendqisi2
 590 00d0 43F01003 		orr	r3, r3, #16
 591 00d4 1370     		strb	r3, [r2]
 592              	.LBE3:
 480:Generated_Source\PSoC5/cyfitter_cfg.c **** 	}
 481:Generated_Source\PSoC5/cyfitter_cfg.c **** 
 482:Generated_Source\PSoC5/cyfitter_cfg.c **** 
 483:Generated_Source\PSoC5/cyfitter_cfg.c **** 	/* Perform second pass device configuration. These items must be configured in specific order afte
 484:Generated_Source\PSoC5/cyfitter_cfg.c **** 	CYCONFIGCPY((void CYFAR *)(CYREG_PRT0_DR), (const void CYFAR *)(BS_IOPINS0_0_VAL), 10u);
 593              		.loc 1 484 0
 594 00d6 0A22     		movs	r2, #10
 595 00d8 2349     		ldr	r1, .L35+48
 596 00da 2448     		ldr	r0, .L35+52
 597 00dc FFF7FEFF 		bl	CYCONFIGCPY
 598              	.LVL47:
 485:Generated_Source\PSoC5/cyfitter_cfg.c **** 	CYCONFIGCPY((void CYFAR *)(CYREG_PRT12_DM0), (const void CYFAR *)(BS_IOPINS0_7_VAL), 8u);
 599              		.loc 1 485 0
 600 00e0 0822     		movs	r2, #8
 601 00e2 2349     		ldr	r1, .L35+56
 602 00e4 2348     		ldr	r0, .L35+60
 603 00e6 FFF7FEFF 		bl	CYCONFIGCPY
 604              	.LVL48:
 486:Generated_Source\PSoC5/cyfitter_cfg.c **** 	CYCONFIGCPY((void CYFAR *)(CYREG_PRT12_DM0 + 0x00000009u), (const void CYFAR *)(BS_IOPINS1_7_VAL),
 605              		.loc 1 486 0
 606 00ea 0522     		movs	r2, #5
 607 00ec 2249     		ldr	r1, .L35+64
 608 00ee 2348     		ldr	r0, .L35+68
 609 00f0 FFF7FEFF 		bl	CYCONFIGCPY
 610              	.LVL49:
 487:Generated_Source\PSoC5/cyfitter_cfg.c **** 	CYCONFIGCPY((void CYFAR *)(CYREG_PRT15_DM0), (const void CYFAR *)(BS_IOPINS0_8_VAL), 8u);
 611              		.loc 1 487 0
ARM GAS  C:\Users\EA527~1.IVA\AppData\Local\Temp\ccobbWkt.s 			page 21


 612 00f4 0822     		movs	r2, #8
 613 00f6 2249     		ldr	r1, .L35+72
 614 00f8 2248     		ldr	r0, .L35+76
 615 00fa FFF7FEFF 		bl	CYCONFIGCPY
 616              	.LVL50:
 488:Generated_Source\PSoC5/cyfitter_cfg.c **** 	CYCONFIGCPY((void CYFAR *)(CYREG_PRT1_DR), (const void CYFAR *)(BS_IOPINS0_1_VAL), 10u);
 617              		.loc 1 488 0
 618 00fe 0A22     		movs	r2, #10
 619 0100 2149     		ldr	r1, .L35+80
 620 0102 2248     		ldr	r0, .L35+84
 621 0104 FFF7FEFF 		bl	CYCONFIGCPY
 622              	.LVL51:
 489:Generated_Source\PSoC5/cyfitter_cfg.c **** 	CYCONFIGCPY((void CYFAR *)(CYREG_PRT2_DR), (const void CYFAR *)(BS_IOPINS0_2_VAL), 10u);
 623              		.loc 1 489 0
 624 0108 0A22     		movs	r2, #10
 625 010a 2149     		ldr	r1, .L35+88
 626 010c 2148     		ldr	r0, .L35+92
 627 010e FFF7FEFF 		bl	CYCONFIGCPY
 628              	.LVL52:
 490:Generated_Source\PSoC5/cyfitter_cfg.c **** 	CYCONFIGCPY((void CYFAR *)(CYREG_PRT3_DR), (const void CYFAR *)(BS_IOPINS0_3_VAL), 10u);
 629              		.loc 1 490 0
 630 0112 0A22     		movs	r2, #10
 631 0114 2049     		ldr	r1, .L35+96
 632 0116 2148     		ldr	r0, .L35+100
 633 0118 FFF7FEFF 		bl	CYCONFIGCPY
 634              	.LVL53:
 491:Generated_Source\PSoC5/cyfitter_cfg.c **** 	/* Switch Boost to the precision bandgap reference from its internal reference */
 492:Generated_Source\PSoC5/cyfitter_cfg.c **** 	CY_SET_REG8((void CYXDATA *)CYREG_BOOST_CR2, (CY_GET_REG8((void CYXDATA *)CYREG_BOOST_CR2) | 0x08u
 635              		.loc 1 492 0
 636 011c 204A     		ldr	r2, .L35+104
 637 011e 1378     		ldrb	r3, [r2]	@ zero_extendqisi2
 638 0120 43F00803 		orr	r3, r3, #8
 639 0124 1370     		strb	r3, [r2]
 493:Generated_Source\PSoC5/cyfitter_cfg.c **** 
 494:Generated_Source\PSoC5/cyfitter_cfg.c **** 	/* Perform basic analog initialization to defaults */
 495:Generated_Source\PSoC5/cyfitter_cfg.c **** 	AnalogSetDefault();
 640              		.loc 1 495 0
 641 0126 FFF7FEFF 		bl	AnalogSetDefault
 642              	.LVL54:
 496:Generated_Source\PSoC5/cyfitter_cfg.c **** 
 497:Generated_Source\PSoC5/cyfitter_cfg.c **** 	/* Configure alternate active mode */
 498:Generated_Source\PSoC5/cyfitter_cfg.c **** 	CYCONFIGCPY((void CYFAR *)CYDEV_PM_STBY_BASE, (const void CYFAR *)CYDEV_PM_ACT_BASE, 14u);
 643              		.loc 1 498 0
 644 012a 0E22     		movs	r2, #14
 645 012c 2146     		mov	r1, r4
 646 012e 1D48     		ldr	r0, .L35+108
 647 0130 FFF7FEFF 		bl	CYCONFIGCPY
 648              	.LVL55:
 649 0134 38BD     		pop	{r3, r4, r5, pc}
 650              	.L36:
 651 0136 00BF     		.align	2
 652              	.L35:
 653 0138 00480040 		.word	1073760256
 654 013c E8460040 		.word	1073759976
 655 0140 00000000 		.word	.LANCHOR0
 656 0144 A4000048 		.word	1207959716
 657 0148 4A580040 		.word	1073764426
ARM GAS  C:\Users\EA527~1.IVA\AppData\Local\Temp\ccobbWkt.s 			page 22


 658 014c C4E40809 		.word	151577796
 659 0150 444A0B04 		.word	67848772
 660 0154 24040484 		.word	-2080111580
 661 0158 04040044 		.word	1140851716
 662 015c 4A440400 		.word	279626
 663 0160 03500140 		.word	1073827843
 664 0164 A0430040 		.word	1073759136
 665 0168 50120048 		.word	1207964240
 666 016c 00510040 		.word	1073762560
 667 0170 5C120048 		.word	1207964252
 668 0174 C2510040 		.word	1073762754
 669 0178 64120048 		.word	1207964260
 670 017c CB510040 		.word	1073762763
 671 0180 6C120048 		.word	1207964268
 672 0184 F2510040 		.word	1073762802
 673 0188 74120048 		.word	1207964276
 674 018c 10510040 		.word	1073762576
 675 0190 80120048 		.word	1207964288
 676 0194 20510040 		.word	1073762592
 677 0198 8C120048 		.word	1207964300
 678 019c 30510040 		.word	1073762608
 679 01a0 22430040 		.word	1073759010
 680 01a4 B0430040 		.word	1073759152
 681              		.cfi_endproc
 682              	.LFE8:
 683              		.size	cyfitter_cfg, .-cyfitter_cfg
 684              		.section	.rodata
 685              		.align	2
 686              		.set	.LANCHOR0,. + 0
 687              		.type	cfg_memset_list.5018, %object
 688              		.size	cfg_memset_list.5018, 54
 689              	cfg_memset_list.5018:
 690 0000 004F0040 		.word	1073762048
 691 0004 0C00     		.short	12
 692 0006 40510040 		.4byte	1073762624
 693 000a 3000     		.short	48
 694 000c 00000140 		.word	1073807360
 695 0010 8008     		.short	2176
 696 0012 00090140 		.4byte	1073809664
 697 0016 0007     		.short	1792
 698 0018 00140140 		.word	1073812480
 699 001c 8004     		.short	1152
 700 001e 00190140 		.4byte	1073813760
 701 0022 0003     		.short	768
 702 0024 00400140 		.word	1073823744
 703 0028 000A     		.short	2560
 704 002a 004C0140 		.4byte	1073826816
 705 002e 0002     		.short	512
 706 0030 10500140 		.word	1073827856
 707 0034 1000     		.short	16
 708 0036 0000     		.space	2
 709              		.type	cfg_memcpy_list.5019, %object
 710              		.size	cfg_memcpy_list.5019, 30
 711              	cfg_memcpy_list.5019:
 712 0038 80080140 		.word	1073809536
 713 003c 40110048 		.word	1207963968
 714 0040 8000     		.short	128
ARM GAS  C:\Users\EA527~1.IVA\AppData\Local\Temp\ccobbWkt.s 			page 23


 715 0042 80180140 		.4byte	1073813632
 716 0046 C0110048 		.4byte	1207964096
 717 004a 8000     		.short	128
 718 004c 00500140 		.word	1073827840
 719 0050 40120048 		.word	1207964224
 720 0054 1000     		.short	16
 721              		.text
 722              	.Letext0:
 723              		.file 2 "c:\\program files (x86)\\cypress\\psoc creator\\4.2\\psoc creator\\import\\gnu\\arm\\5.4.
 724              		.file 3 "Generated_Source\\PSoC5\\cytypes.h"
 725              		.file 4 "Generated_Source\\PSoC5\\CyLib.h"