ARM GAS  C:\Users\EA527~1.IVA\AppData\Local\Temp\cc4X1xAf.s 			page 1


   1              		.syntax unified
   2              		.cpu cortex-m3
   3              		.fpu softvfp
   4              		.eabi_attribute 20, 1
   5              		.eabi_attribute 21, 1
   6              		.eabi_attribute 23, 3
   7              		.eabi_attribute 24, 1
   8              		.eabi_attribute 25, 1
   9              		.eabi_attribute 26, 1
  10              		.eabi_attribute 30, 1
  11              		.eabi_attribute 34, 1
  12              		.eabi_attribute 18, 4
  13              		.thumb
  14              		.syntax unified
  15              		.file	"EndFrame.c"
  16              		.text
  17              	.Ltext0:
  18              		.cfi_sections	.debug_frame
  19              		.section	.text.EndFrame_SetVector,"ax",%progbits
  20              		.align	2
  21              		.global	EndFrame_SetVector
  22              		.thumb
  23              		.thumb_func
  24              		.type	EndFrame_SetVector, %function
  25              	EndFrame_SetVector:
  26              	.LFB4:
  27              		.file 1 "Generated_Source\\PSoC5\\EndFrame.c"
   1:Generated_Source\PSoC5/EndFrame.c **** /*******************************************************************************
   2:Generated_Source\PSoC5/EndFrame.c **** * File Name: EndFrame.c  
   3:Generated_Source\PSoC5/EndFrame.c **** * Version 1.70
   4:Generated_Source\PSoC5/EndFrame.c **** *
   5:Generated_Source\PSoC5/EndFrame.c **** *  Description:
   6:Generated_Source\PSoC5/EndFrame.c **** *   API for controlling the state of an interrupt.
   7:Generated_Source\PSoC5/EndFrame.c **** *
   8:Generated_Source\PSoC5/EndFrame.c **** *
   9:Generated_Source\PSoC5/EndFrame.c **** *  Note:
  10:Generated_Source\PSoC5/EndFrame.c **** *
  11:Generated_Source\PSoC5/EndFrame.c **** ********************************************************************************
  12:Generated_Source\PSoC5/EndFrame.c **** * Copyright 2008-2015, Cypress Semiconductor Corporation.  All rights reserved.
  13:Generated_Source\PSoC5/EndFrame.c **** * You may use this file only in accordance with the license, terms, conditions, 
  14:Generated_Source\PSoC5/EndFrame.c **** * disclaimers, and limitations in the end user license agreement accompanying 
  15:Generated_Source\PSoC5/EndFrame.c **** * the software package with which this file was provided.
  16:Generated_Source\PSoC5/EndFrame.c **** *******************************************************************************/
  17:Generated_Source\PSoC5/EndFrame.c **** 
  18:Generated_Source\PSoC5/EndFrame.c **** 
  19:Generated_Source\PSoC5/EndFrame.c **** #include <cydevice_trm.h>
  20:Generated_Source\PSoC5/EndFrame.c **** #include <CyLib.h>
  21:Generated_Source\PSoC5/EndFrame.c **** #include <EndFrame.h>
  22:Generated_Source\PSoC5/EndFrame.c **** #include "cyapicallbacks.h"
  23:Generated_Source\PSoC5/EndFrame.c **** 
  24:Generated_Source\PSoC5/EndFrame.c **** #if !defined(EndFrame__REMOVED) /* Check for removal by optimization */
  25:Generated_Source\PSoC5/EndFrame.c **** 
  26:Generated_Source\PSoC5/EndFrame.c **** /*******************************************************************************
  27:Generated_Source\PSoC5/EndFrame.c **** *  Place your includes, defines and code here 
  28:Generated_Source\PSoC5/EndFrame.c **** ********************************************************************************/
  29:Generated_Source\PSoC5/EndFrame.c **** /* `#START EndFrame_intc` */
  30:Generated_Source\PSoC5/EndFrame.c **** #include <BitCounterDec.h>
ARM GAS  C:\Users\EA527~1.IVA\AppData\Local\Temp\cc4X1xAf.s 			page 2


  31:Generated_Source\PSoC5/EndFrame.c **** #include <RecieveShiftReg.h>
  32:Generated_Source\PSoC5/EndFrame.c **** #include <reciver.h>
  33:Generated_Source\PSoC5/EndFrame.c **** extern int storeflag;
  34:Generated_Source\PSoC5/EndFrame.c **** /* `#END` */
  35:Generated_Source\PSoC5/EndFrame.c **** 
  36:Generated_Source\PSoC5/EndFrame.c **** #ifndef CYINT_IRQ_BASE
  37:Generated_Source\PSoC5/EndFrame.c **** #define CYINT_IRQ_BASE      16
  38:Generated_Source\PSoC5/EndFrame.c **** #endif /* CYINT_IRQ_BASE */
  39:Generated_Source\PSoC5/EndFrame.c **** #ifndef CYINT_VECT_TABLE
  40:Generated_Source\PSoC5/EndFrame.c **** #define CYINT_VECT_TABLE    ((cyisraddress **) CYREG_NVIC_VECT_OFFSET)
  41:Generated_Source\PSoC5/EndFrame.c **** #endif /* CYINT_VECT_TABLE */
  42:Generated_Source\PSoC5/EndFrame.c **** 
  43:Generated_Source\PSoC5/EndFrame.c **** /* Declared in startup, used to set unused interrupts to. */
  44:Generated_Source\PSoC5/EndFrame.c **** CY_ISR_PROTO(IntDefaultHandler);
  45:Generated_Source\PSoC5/EndFrame.c **** 
  46:Generated_Source\PSoC5/EndFrame.c **** 
  47:Generated_Source\PSoC5/EndFrame.c **** /*******************************************************************************
  48:Generated_Source\PSoC5/EndFrame.c **** * Function Name: EndFrame_Start
  49:Generated_Source\PSoC5/EndFrame.c **** ********************************************************************************
  50:Generated_Source\PSoC5/EndFrame.c **** *
  51:Generated_Source\PSoC5/EndFrame.c **** * Summary:
  52:Generated_Source\PSoC5/EndFrame.c **** *  Set up the interrupt and enable it. This function disables the interrupt, 
  53:Generated_Source\PSoC5/EndFrame.c **** *  sets the default interrupt vector, sets the priority from the value in the
  54:Generated_Source\PSoC5/EndFrame.c **** *  Design Wide Resources Interrupt Editor, then enables the interrupt to the 
  55:Generated_Source\PSoC5/EndFrame.c **** *  interrupt controller.
  56:Generated_Source\PSoC5/EndFrame.c **** *
  57:Generated_Source\PSoC5/EndFrame.c **** * Parameters:  
  58:Generated_Source\PSoC5/EndFrame.c **** *   None
  59:Generated_Source\PSoC5/EndFrame.c **** *
  60:Generated_Source\PSoC5/EndFrame.c **** * Return:
  61:Generated_Source\PSoC5/EndFrame.c **** *   None
  62:Generated_Source\PSoC5/EndFrame.c **** *
  63:Generated_Source\PSoC5/EndFrame.c **** *******************************************************************************/
  64:Generated_Source\PSoC5/EndFrame.c **** void EndFrame_Start(void)
  65:Generated_Source\PSoC5/EndFrame.c **** {
  66:Generated_Source\PSoC5/EndFrame.c ****     /* For all we know the interrupt is active. */
  67:Generated_Source\PSoC5/EndFrame.c ****     EndFrame_Disable();
  68:Generated_Source\PSoC5/EndFrame.c **** 
  69:Generated_Source\PSoC5/EndFrame.c ****     /* Set the ISR to point to the EndFrame Interrupt. */
  70:Generated_Source\PSoC5/EndFrame.c ****     EndFrame_SetVector(&EndFrame_Interrupt);
  71:Generated_Source\PSoC5/EndFrame.c **** 
  72:Generated_Source\PSoC5/EndFrame.c ****     /* Set the priority. */
  73:Generated_Source\PSoC5/EndFrame.c ****     EndFrame_SetPriority((uint8)EndFrame_INTC_PRIOR_NUMBER);
  74:Generated_Source\PSoC5/EndFrame.c **** 
  75:Generated_Source\PSoC5/EndFrame.c ****     /* Enable it. */
  76:Generated_Source\PSoC5/EndFrame.c ****     EndFrame_Enable();
  77:Generated_Source\PSoC5/EndFrame.c **** }
  78:Generated_Source\PSoC5/EndFrame.c **** 
  79:Generated_Source\PSoC5/EndFrame.c **** 
  80:Generated_Source\PSoC5/EndFrame.c **** /*******************************************************************************
  81:Generated_Source\PSoC5/EndFrame.c **** * Function Name: EndFrame_StartEx
  82:Generated_Source\PSoC5/EndFrame.c **** ********************************************************************************
  83:Generated_Source\PSoC5/EndFrame.c **** *
  84:Generated_Source\PSoC5/EndFrame.c **** * Summary:
  85:Generated_Source\PSoC5/EndFrame.c **** *  Sets up the interrupt and enables it. This function disables the interrupt,
  86:Generated_Source\PSoC5/EndFrame.c **** *  sets the interrupt vector based on the address passed in, sets the priority 
  87:Generated_Source\PSoC5/EndFrame.c **** *  from the value in the Design Wide Resources Interrupt Editor, then enables 
ARM GAS  C:\Users\EA527~1.IVA\AppData\Local\Temp\cc4X1xAf.s 			page 3


  88:Generated_Source\PSoC5/EndFrame.c **** *  the interrupt to the interrupt controller.
  89:Generated_Source\PSoC5/EndFrame.c **** *  
  90:Generated_Source\PSoC5/EndFrame.c **** *  When defining ISR functions, the CY_ISR and CY_ISR_PROTO macros should be 
  91:Generated_Source\PSoC5/EndFrame.c **** *  used to provide consistent definition across compilers:
  92:Generated_Source\PSoC5/EndFrame.c **** *  
  93:Generated_Source\PSoC5/EndFrame.c **** *  Function definition example:
  94:Generated_Source\PSoC5/EndFrame.c **** *   CY_ISR(MyISR)
  95:Generated_Source\PSoC5/EndFrame.c **** *   {
  96:Generated_Source\PSoC5/EndFrame.c **** *   }
  97:Generated_Source\PSoC5/EndFrame.c **** *   Function prototype example:
  98:Generated_Source\PSoC5/EndFrame.c **** *   CY_ISR_PROTO(MyISR);
  99:Generated_Source\PSoC5/EndFrame.c **** *
 100:Generated_Source\PSoC5/EndFrame.c **** * Parameters:  
 101:Generated_Source\PSoC5/EndFrame.c **** *   address: Address of the ISR to set in the interrupt vector table.
 102:Generated_Source\PSoC5/EndFrame.c **** *
 103:Generated_Source\PSoC5/EndFrame.c **** * Return:
 104:Generated_Source\PSoC5/EndFrame.c **** *   None
 105:Generated_Source\PSoC5/EndFrame.c **** *
 106:Generated_Source\PSoC5/EndFrame.c **** *******************************************************************************/
 107:Generated_Source\PSoC5/EndFrame.c **** void EndFrame_StartEx(cyisraddress address)
 108:Generated_Source\PSoC5/EndFrame.c **** {
 109:Generated_Source\PSoC5/EndFrame.c ****     /* For all we know the interrupt is active. */
 110:Generated_Source\PSoC5/EndFrame.c ****     EndFrame_Disable();
 111:Generated_Source\PSoC5/EndFrame.c **** 
 112:Generated_Source\PSoC5/EndFrame.c ****     /* Set the ISR to point to the EndFrame Interrupt. */
 113:Generated_Source\PSoC5/EndFrame.c ****     EndFrame_SetVector(address);
 114:Generated_Source\PSoC5/EndFrame.c **** 
 115:Generated_Source\PSoC5/EndFrame.c ****     /* Set the priority. */
 116:Generated_Source\PSoC5/EndFrame.c ****     EndFrame_SetPriority((uint8)EndFrame_INTC_PRIOR_NUMBER);
 117:Generated_Source\PSoC5/EndFrame.c **** 
 118:Generated_Source\PSoC5/EndFrame.c ****     /* Enable it. */
 119:Generated_Source\PSoC5/EndFrame.c ****     EndFrame_Enable();
 120:Generated_Source\PSoC5/EndFrame.c **** }
 121:Generated_Source\PSoC5/EndFrame.c **** 
 122:Generated_Source\PSoC5/EndFrame.c **** 
 123:Generated_Source\PSoC5/EndFrame.c **** /*******************************************************************************
 124:Generated_Source\PSoC5/EndFrame.c **** * Function Name: EndFrame_Stop
 125:Generated_Source\PSoC5/EndFrame.c **** ********************************************************************************
 126:Generated_Source\PSoC5/EndFrame.c **** *
 127:Generated_Source\PSoC5/EndFrame.c **** * Summary:
 128:Generated_Source\PSoC5/EndFrame.c **** *   Disables and removes the interrupt.
 129:Generated_Source\PSoC5/EndFrame.c **** *
 130:Generated_Source\PSoC5/EndFrame.c **** * Parameters:  
 131:Generated_Source\PSoC5/EndFrame.c **** *   None
 132:Generated_Source\PSoC5/EndFrame.c **** *
 133:Generated_Source\PSoC5/EndFrame.c **** * Return:
 134:Generated_Source\PSoC5/EndFrame.c **** *   None
 135:Generated_Source\PSoC5/EndFrame.c **** *
 136:Generated_Source\PSoC5/EndFrame.c **** *******************************************************************************/
 137:Generated_Source\PSoC5/EndFrame.c **** void EndFrame_Stop(void)
 138:Generated_Source\PSoC5/EndFrame.c **** {
 139:Generated_Source\PSoC5/EndFrame.c ****     /* Disable this interrupt. */
 140:Generated_Source\PSoC5/EndFrame.c ****     EndFrame_Disable();
 141:Generated_Source\PSoC5/EndFrame.c **** 
 142:Generated_Source\PSoC5/EndFrame.c ****     /* Set the ISR to point to the passive one. */
 143:Generated_Source\PSoC5/EndFrame.c ****     EndFrame_SetVector(&IntDefaultHandler);
 144:Generated_Source\PSoC5/EndFrame.c **** }
ARM GAS  C:\Users\EA527~1.IVA\AppData\Local\Temp\cc4X1xAf.s 			page 4


 145:Generated_Source\PSoC5/EndFrame.c **** 
 146:Generated_Source\PSoC5/EndFrame.c **** 
 147:Generated_Source\PSoC5/EndFrame.c **** /*******************************************************************************
 148:Generated_Source\PSoC5/EndFrame.c **** * Function Name: EndFrame_Interrupt
 149:Generated_Source\PSoC5/EndFrame.c **** ********************************************************************************
 150:Generated_Source\PSoC5/EndFrame.c **** *
 151:Generated_Source\PSoC5/EndFrame.c **** * Summary:
 152:Generated_Source\PSoC5/EndFrame.c **** *   The default Interrupt Service Routine for EndFrame.
 153:Generated_Source\PSoC5/EndFrame.c **** *
 154:Generated_Source\PSoC5/EndFrame.c **** *   Add custom code between the coments to keep the next version of this file
 155:Generated_Source\PSoC5/EndFrame.c **** *   from over writting your code.
 156:Generated_Source\PSoC5/EndFrame.c **** *
 157:Generated_Source\PSoC5/EndFrame.c **** * Parameters:  
 158:Generated_Source\PSoC5/EndFrame.c **** *
 159:Generated_Source\PSoC5/EndFrame.c **** * Return:
 160:Generated_Source\PSoC5/EndFrame.c **** *   None
 161:Generated_Source\PSoC5/EndFrame.c **** *
 162:Generated_Source\PSoC5/EndFrame.c **** *******************************************************************************/
 163:Generated_Source\PSoC5/EndFrame.c **** CY_ISR(EndFrame_Interrupt)
 164:Generated_Source\PSoC5/EndFrame.c **** {
 165:Generated_Source\PSoC5/EndFrame.c ****     #ifdef EndFrame_INTERRUPT_INTERRUPT_CALLBACK
 166:Generated_Source\PSoC5/EndFrame.c ****         EndFrame_Interrupt_InterruptCallback();
 167:Generated_Source\PSoC5/EndFrame.c ****     #endif /* EndFrame_INTERRUPT_INTERRUPT_CALLBACK */ 
 168:Generated_Source\PSoC5/EndFrame.c **** 
 169:Generated_Source\PSoC5/EndFrame.c ****     /*  Place your Interrupt code here. */
 170:Generated_Source\PSoC5/EndFrame.c ****     /* `#START EndFrame_Interrupt` */
 171:Generated_Source\PSoC5/EndFrame.c ****     
 172:Generated_Source\PSoC5/EndFrame.c ****     BitCounterDec_WriteCounter(31);
 173:Generated_Source\PSoC5/EndFrame.c ****     ClearRcStatus();
 174:Generated_Source\PSoC5/EndFrame.c ****     EndFrame_ClearPending();
 175:Generated_Source\PSoC5/EndFrame.c ****     /* `#END` */
 176:Generated_Source\PSoC5/EndFrame.c **** }
 177:Generated_Source\PSoC5/EndFrame.c **** 
 178:Generated_Source\PSoC5/EndFrame.c **** 
 179:Generated_Source\PSoC5/EndFrame.c **** /*******************************************************************************
 180:Generated_Source\PSoC5/EndFrame.c **** * Function Name: EndFrame_SetVector
 181:Generated_Source\PSoC5/EndFrame.c **** ********************************************************************************
 182:Generated_Source\PSoC5/EndFrame.c **** *
 183:Generated_Source\PSoC5/EndFrame.c **** * Summary:
 184:Generated_Source\PSoC5/EndFrame.c **** *   Change the ISR vector for the Interrupt. Note calling EndFrame_Start
 185:Generated_Source\PSoC5/EndFrame.c **** *   will override any effect this method would have had. To set the vector 
 186:Generated_Source\PSoC5/EndFrame.c **** *   before the component has been started use EndFrame_StartEx instead.
 187:Generated_Source\PSoC5/EndFrame.c **** * 
 188:Generated_Source\PSoC5/EndFrame.c **** *   When defining ISR functions, the CY_ISR and CY_ISR_PROTO macros should be 
 189:Generated_Source\PSoC5/EndFrame.c **** *   used to provide consistent definition across compilers:
 190:Generated_Source\PSoC5/EndFrame.c **** *
 191:Generated_Source\PSoC5/EndFrame.c **** *   Function definition example:
 192:Generated_Source\PSoC5/EndFrame.c **** *   CY_ISR(MyISR)
 193:Generated_Source\PSoC5/EndFrame.c **** *   {
 194:Generated_Source\PSoC5/EndFrame.c **** *   }
 195:Generated_Source\PSoC5/EndFrame.c **** *
 196:Generated_Source\PSoC5/EndFrame.c **** *   Function prototype example:
 197:Generated_Source\PSoC5/EndFrame.c **** *     CY_ISR_PROTO(MyISR);
 198:Generated_Source\PSoC5/EndFrame.c **** *
 199:Generated_Source\PSoC5/EndFrame.c **** * Parameters:
 200:Generated_Source\PSoC5/EndFrame.c **** *   address: Address of the ISR to set in the interrupt vector table.
 201:Generated_Source\PSoC5/EndFrame.c **** *
ARM GAS  C:\Users\EA527~1.IVA\AppData\Local\Temp\cc4X1xAf.s 			page 5


 202:Generated_Source\PSoC5/EndFrame.c **** * Return:
 203:Generated_Source\PSoC5/EndFrame.c **** *   None
 204:Generated_Source\PSoC5/EndFrame.c **** *
 205:Generated_Source\PSoC5/EndFrame.c **** *******************************************************************************/
 206:Generated_Source\PSoC5/EndFrame.c **** void EndFrame_SetVector(cyisraddress address)
 207:Generated_Source\PSoC5/EndFrame.c **** {
  28              		.loc 1 207 0
  29              		.cfi_startproc
  30              		@ args = 0, pretend = 0, frame = 0
  31              		@ frame_needed = 0, uses_anonymous_args = 0
  32              		@ link register save eliminated.
  33              	.LVL0:
 208:Generated_Source\PSoC5/EndFrame.c ****     cyisraddress * ramVectorTable;
 209:Generated_Source\PSoC5/EndFrame.c **** 
 210:Generated_Source\PSoC5/EndFrame.c ****     ramVectorTable = (cyisraddress *) *CYINT_VECT_TABLE;
  34              		.loc 1 210 0
  35 0000 014B     		ldr	r3, .L2
  36 0002 1B68     		ldr	r3, [r3]
  37              	.LVL1:
 211:Generated_Source\PSoC5/EndFrame.c **** 
 212:Generated_Source\PSoC5/EndFrame.c ****     ramVectorTable[CYINT_IRQ_BASE + (uint32)EndFrame__INTC_NUMBER] = address;
  38              		.loc 1 212 0
  39 0004 1864     		str	r0, [r3, #64]
  40 0006 7047     		bx	lr
  41              	.L3:
  42              		.align	2
  43              	.L2:
  44 0008 08ED00E0 		.word	-536810232
  45              		.cfi_endproc
  46              	.LFE4:
  47              		.size	EndFrame_SetVector, .-EndFrame_SetVector
  48              		.section	.text.EndFrame_GetVector,"ax",%progbits
  49              		.align	2
  50              		.global	EndFrame_GetVector
  51              		.thumb
  52              		.thumb_func
  53              		.type	EndFrame_GetVector, %function
  54              	EndFrame_GetVector:
  55              	.LFB5:
 213:Generated_Source\PSoC5/EndFrame.c **** }
 214:Generated_Source\PSoC5/EndFrame.c **** 
 215:Generated_Source\PSoC5/EndFrame.c **** 
 216:Generated_Source\PSoC5/EndFrame.c **** /*******************************************************************************
 217:Generated_Source\PSoC5/EndFrame.c **** * Function Name: EndFrame_GetVector
 218:Generated_Source\PSoC5/EndFrame.c **** ********************************************************************************
 219:Generated_Source\PSoC5/EndFrame.c **** *
 220:Generated_Source\PSoC5/EndFrame.c **** * Summary:
 221:Generated_Source\PSoC5/EndFrame.c **** *   Gets the "address" of the current ISR vector for the Interrupt.
 222:Generated_Source\PSoC5/EndFrame.c **** *
 223:Generated_Source\PSoC5/EndFrame.c **** * Parameters:
 224:Generated_Source\PSoC5/EndFrame.c **** *   None
 225:Generated_Source\PSoC5/EndFrame.c **** *
 226:Generated_Source\PSoC5/EndFrame.c **** * Return:
 227:Generated_Source\PSoC5/EndFrame.c **** *   Address of the ISR in the interrupt vector table.
 228:Generated_Source\PSoC5/EndFrame.c **** *
 229:Generated_Source\PSoC5/EndFrame.c **** *******************************************************************************/
 230:Generated_Source\PSoC5/EndFrame.c **** cyisraddress EndFrame_GetVector(void)
ARM GAS  C:\Users\EA527~1.IVA\AppData\Local\Temp\cc4X1xAf.s 			page 6


 231:Generated_Source\PSoC5/EndFrame.c **** {
  56              		.loc 1 231 0
  57              		.cfi_startproc
  58              		@ args = 0, pretend = 0, frame = 0
  59              		@ frame_needed = 0, uses_anonymous_args = 0
  60              		@ link register save eliminated.
 232:Generated_Source\PSoC5/EndFrame.c ****     cyisraddress * ramVectorTable;
 233:Generated_Source\PSoC5/EndFrame.c **** 
 234:Generated_Source\PSoC5/EndFrame.c ****     ramVectorTable = (cyisraddress *) *CYINT_VECT_TABLE;
  61              		.loc 1 234 0
  62 0000 014B     		ldr	r3, .L5
  63 0002 1B68     		ldr	r3, [r3]
  64              	.LVL2:
 235:Generated_Source\PSoC5/EndFrame.c **** 
 236:Generated_Source\PSoC5/EndFrame.c ****     return ramVectorTable[CYINT_IRQ_BASE + (uint32)EndFrame__INTC_NUMBER];
 237:Generated_Source\PSoC5/EndFrame.c **** }
  65              		.loc 1 237 0
  66 0004 186C     		ldr	r0, [r3, #64]
  67 0006 7047     		bx	lr
  68              	.L6:
  69              		.align	2
  70              	.L5:
  71 0008 08ED00E0 		.word	-536810232
  72              		.cfi_endproc
  73              	.LFE5:
  74              		.size	EndFrame_GetVector, .-EndFrame_GetVector
  75              		.section	.text.EndFrame_SetPriority,"ax",%progbits
  76              		.align	2
  77              		.global	EndFrame_SetPriority
  78              		.thumb
  79              		.thumb_func
  80              		.type	EndFrame_SetPriority, %function
  81              	EndFrame_SetPriority:
  82              	.LFB6:
 238:Generated_Source\PSoC5/EndFrame.c **** 
 239:Generated_Source\PSoC5/EndFrame.c **** 
 240:Generated_Source\PSoC5/EndFrame.c **** /*******************************************************************************
 241:Generated_Source\PSoC5/EndFrame.c **** * Function Name: EndFrame_SetPriority
 242:Generated_Source\PSoC5/EndFrame.c **** ********************************************************************************
 243:Generated_Source\PSoC5/EndFrame.c **** *
 244:Generated_Source\PSoC5/EndFrame.c **** * Summary:
 245:Generated_Source\PSoC5/EndFrame.c **** *   Sets the Priority of the Interrupt. 
 246:Generated_Source\PSoC5/EndFrame.c **** *
 247:Generated_Source\PSoC5/EndFrame.c **** *   Note calling EndFrame_Start or EndFrame_StartEx will 
 248:Generated_Source\PSoC5/EndFrame.c **** *   override any effect this API would have had. This API should only be called
 249:Generated_Source\PSoC5/EndFrame.c **** *   after EndFrame_Start or EndFrame_StartEx has been called. 
 250:Generated_Source\PSoC5/EndFrame.c **** *   To set the initial priority for the component, use the Design-Wide Resources
 251:Generated_Source\PSoC5/EndFrame.c **** *   Interrupt Editor.
 252:Generated_Source\PSoC5/EndFrame.c **** *
 253:Generated_Source\PSoC5/EndFrame.c **** *   Note This API has no effect on Non-maskable interrupt NMI).
 254:Generated_Source\PSoC5/EndFrame.c **** *
 255:Generated_Source\PSoC5/EndFrame.c **** * Parameters:
 256:Generated_Source\PSoC5/EndFrame.c **** *   priority: Priority of the interrupt, 0 being the highest priority
 257:Generated_Source\PSoC5/EndFrame.c **** *             PSoC 3 and PSoC 5LP: Priority is from 0 to 7.
 258:Generated_Source\PSoC5/EndFrame.c **** *             PSoC 4: Priority is from 0 to 3.
 259:Generated_Source\PSoC5/EndFrame.c **** *
 260:Generated_Source\PSoC5/EndFrame.c **** * Return:
ARM GAS  C:\Users\EA527~1.IVA\AppData\Local\Temp\cc4X1xAf.s 			page 7


 261:Generated_Source\PSoC5/EndFrame.c **** *   None
 262:Generated_Source\PSoC5/EndFrame.c **** *
 263:Generated_Source\PSoC5/EndFrame.c **** *******************************************************************************/
 264:Generated_Source\PSoC5/EndFrame.c **** void EndFrame_SetPriority(uint8 priority)
 265:Generated_Source\PSoC5/EndFrame.c **** {
  83              		.loc 1 265 0
  84              		.cfi_startproc
  85              		@ args = 0, pretend = 0, frame = 0
  86              		@ frame_needed = 0, uses_anonymous_args = 0
  87              		@ link register save eliminated.
  88              	.LVL3:
 266:Generated_Source\PSoC5/EndFrame.c ****     *EndFrame_INTC_PRIOR = priority << 5;
  89              		.loc 1 266 0
  90 0000 4001     		lsls	r0, r0, #5
  91              	.LVL4:
  92 0002 C0B2     		uxtb	r0, r0
  93 0004 014B     		ldr	r3, .L8
  94 0006 1870     		strb	r0, [r3]
  95 0008 7047     		bx	lr
  96              	.L9:
  97 000a 00BF     		.align	2
  98              	.L8:
  99 000c 00E400E0 		.word	-536812544
 100              		.cfi_endproc
 101              	.LFE6:
 102              		.size	EndFrame_SetPriority, .-EndFrame_SetPriority
 103              		.section	.text.EndFrame_GetPriority,"ax",%progbits
 104              		.align	2
 105              		.global	EndFrame_GetPriority
 106              		.thumb
 107              		.thumb_func
 108              		.type	EndFrame_GetPriority, %function
 109              	EndFrame_GetPriority:
 110              	.LFB7:
 267:Generated_Source\PSoC5/EndFrame.c **** }
 268:Generated_Source\PSoC5/EndFrame.c **** 
 269:Generated_Source\PSoC5/EndFrame.c **** 
 270:Generated_Source\PSoC5/EndFrame.c **** /*******************************************************************************
 271:Generated_Source\PSoC5/EndFrame.c **** * Function Name: EndFrame_GetPriority
 272:Generated_Source\PSoC5/EndFrame.c **** ********************************************************************************
 273:Generated_Source\PSoC5/EndFrame.c **** *
 274:Generated_Source\PSoC5/EndFrame.c **** * Summary:
 275:Generated_Source\PSoC5/EndFrame.c **** *   Gets the Priority of the Interrupt.
 276:Generated_Source\PSoC5/EndFrame.c **** *
 277:Generated_Source\PSoC5/EndFrame.c **** * Parameters:
 278:Generated_Source\PSoC5/EndFrame.c **** *   None
 279:Generated_Source\PSoC5/EndFrame.c **** *
 280:Generated_Source\PSoC5/EndFrame.c **** * Return:
 281:Generated_Source\PSoC5/EndFrame.c **** *   Priority of the interrupt, 0 being the highest priority
 282:Generated_Source\PSoC5/EndFrame.c **** *    PSoC 3 and PSoC 5LP: Priority is from 0 to 7.
 283:Generated_Source\PSoC5/EndFrame.c **** *    PSoC 4: Priority is from 0 to 3.
 284:Generated_Source\PSoC5/EndFrame.c **** *
 285:Generated_Source\PSoC5/EndFrame.c **** *******************************************************************************/
 286:Generated_Source\PSoC5/EndFrame.c **** uint8 EndFrame_GetPriority(void)
 287:Generated_Source\PSoC5/EndFrame.c **** {
 111              		.loc 1 287 0
 112              		.cfi_startproc
ARM GAS  C:\Users\EA527~1.IVA\AppData\Local\Temp\cc4X1xAf.s 			page 8


 113              		@ args = 0, pretend = 0, frame = 0
 114              		@ frame_needed = 0, uses_anonymous_args = 0
 115              		@ link register save eliminated.
 288:Generated_Source\PSoC5/EndFrame.c ****     uint8 priority;
 289:Generated_Source\PSoC5/EndFrame.c **** 
 290:Generated_Source\PSoC5/EndFrame.c **** 
 291:Generated_Source\PSoC5/EndFrame.c ****     priority = *EndFrame_INTC_PRIOR >> 5;
 116              		.loc 1 291 0
 117 0000 014B     		ldr	r3, .L11
 118 0002 1878     		ldrb	r0, [r3]	@ zero_extendqisi2
 119              	.LVL5:
 292:Generated_Source\PSoC5/EndFrame.c **** 
 293:Generated_Source\PSoC5/EndFrame.c ****     return priority;
 294:Generated_Source\PSoC5/EndFrame.c **** }
 120              		.loc 1 294 0
 121 0004 4009     		lsrs	r0, r0, #5
 122              	.LVL6:
 123 0006 7047     		bx	lr
 124              	.L12:
 125              		.align	2
 126              	.L11:
 127 0008 00E400E0 		.word	-536812544
 128              		.cfi_endproc
 129              	.LFE7:
 130              		.size	EndFrame_GetPriority, .-EndFrame_GetPriority
 131              		.section	.text.EndFrame_Enable,"ax",%progbits
 132              		.align	2
 133              		.global	EndFrame_Enable
 134              		.thumb
 135              		.thumb_func
 136              		.type	EndFrame_Enable, %function
 137              	EndFrame_Enable:
 138              	.LFB8:
 295:Generated_Source\PSoC5/EndFrame.c **** 
 296:Generated_Source\PSoC5/EndFrame.c **** 
 297:Generated_Source\PSoC5/EndFrame.c **** /*******************************************************************************
 298:Generated_Source\PSoC5/EndFrame.c **** * Function Name: EndFrame_Enable
 299:Generated_Source\PSoC5/EndFrame.c **** ********************************************************************************
 300:Generated_Source\PSoC5/EndFrame.c **** *
 301:Generated_Source\PSoC5/EndFrame.c **** * Summary:
 302:Generated_Source\PSoC5/EndFrame.c **** *   Enables the interrupt to the interrupt controller. Do not call this function
 303:Generated_Source\PSoC5/EndFrame.c **** *   unless ISR_Start() has been called or the functionality of the ISR_Start() 
 304:Generated_Source\PSoC5/EndFrame.c **** *   function, which sets the vector and the priority, has been called.
 305:Generated_Source\PSoC5/EndFrame.c **** *
 306:Generated_Source\PSoC5/EndFrame.c **** * Parameters:
 307:Generated_Source\PSoC5/EndFrame.c **** *   None
 308:Generated_Source\PSoC5/EndFrame.c **** *
 309:Generated_Source\PSoC5/EndFrame.c **** * Return:
 310:Generated_Source\PSoC5/EndFrame.c **** *   None
 311:Generated_Source\PSoC5/EndFrame.c **** *
 312:Generated_Source\PSoC5/EndFrame.c **** *******************************************************************************/
 313:Generated_Source\PSoC5/EndFrame.c **** void EndFrame_Enable(void)
 314:Generated_Source\PSoC5/EndFrame.c **** {
 139              		.loc 1 314 0
 140              		.cfi_startproc
 141              		@ args = 0, pretend = 0, frame = 0
 142              		@ frame_needed = 0, uses_anonymous_args = 0
ARM GAS  C:\Users\EA527~1.IVA\AppData\Local\Temp\cc4X1xAf.s 			page 9


 143              		@ link register save eliminated.
 315:Generated_Source\PSoC5/EndFrame.c ****     /* Enable the general interrupt. */
 316:Generated_Source\PSoC5/EndFrame.c ****     *EndFrame_INTC_SET_EN = EndFrame__INTC_MASK;
 144              		.loc 1 316 0
 145 0000 0122     		movs	r2, #1
 146 0002 014B     		ldr	r3, .L14
 147 0004 1A60     		str	r2, [r3]
 148 0006 7047     		bx	lr
 149              	.L15:
 150              		.align	2
 151              	.L14:
 152 0008 00E100E0 		.word	-536813312
 153              		.cfi_endproc
 154              	.LFE8:
 155              		.size	EndFrame_Enable, .-EndFrame_Enable
 156              		.section	.text.EndFrame_GetState,"ax",%progbits
 157              		.align	2
 158              		.global	EndFrame_GetState
 159              		.thumb
 160              		.thumb_func
 161              		.type	EndFrame_GetState, %function
 162              	EndFrame_GetState:
 163              	.LFB9:
 317:Generated_Source\PSoC5/EndFrame.c **** }
 318:Generated_Source\PSoC5/EndFrame.c **** 
 319:Generated_Source\PSoC5/EndFrame.c **** 
 320:Generated_Source\PSoC5/EndFrame.c **** /*******************************************************************************
 321:Generated_Source\PSoC5/EndFrame.c **** * Function Name: EndFrame_GetState
 322:Generated_Source\PSoC5/EndFrame.c **** ********************************************************************************
 323:Generated_Source\PSoC5/EndFrame.c **** *
 324:Generated_Source\PSoC5/EndFrame.c **** * Summary:
 325:Generated_Source\PSoC5/EndFrame.c **** *   Gets the state (enabled, disabled) of the Interrupt.
 326:Generated_Source\PSoC5/EndFrame.c **** *
 327:Generated_Source\PSoC5/EndFrame.c **** * Parameters:
 328:Generated_Source\PSoC5/EndFrame.c **** *   None
 329:Generated_Source\PSoC5/EndFrame.c **** *
 330:Generated_Source\PSoC5/EndFrame.c **** * Return:
 331:Generated_Source\PSoC5/EndFrame.c **** *   1 if enabled, 0 if disabled.
 332:Generated_Source\PSoC5/EndFrame.c **** *
 333:Generated_Source\PSoC5/EndFrame.c **** *******************************************************************************/
 334:Generated_Source\PSoC5/EndFrame.c **** uint8 EndFrame_GetState(void)
 335:Generated_Source\PSoC5/EndFrame.c **** {
 164              		.loc 1 335 0
 165              		.cfi_startproc
 166              		@ args = 0, pretend = 0, frame = 0
 167              		@ frame_needed = 0, uses_anonymous_args = 0
 168              		@ link register save eliminated.
 336:Generated_Source\PSoC5/EndFrame.c ****     /* Get the state of the general interrupt. */
 337:Generated_Source\PSoC5/EndFrame.c ****     return ((*EndFrame_INTC_SET_EN & (uint32)EndFrame__INTC_MASK) != 0u) ? 1u:0u;
 169              		.loc 1 337 0
 170 0000 024B     		ldr	r3, .L17
 171 0002 1868     		ldr	r0, [r3]
 338:Generated_Source\PSoC5/EndFrame.c **** }
 172              		.loc 1 338 0
 173 0004 00F00100 		and	r0, r0, #1
 174 0008 7047     		bx	lr
 175              	.L18:
ARM GAS  C:\Users\EA527~1.IVA\AppData\Local\Temp\cc4X1xAf.s 			page 10


 176 000a 00BF     		.align	2
 177              	.L17:
 178 000c 00E100E0 		.word	-536813312
 179              		.cfi_endproc
 180              	.LFE9:
 181              		.size	EndFrame_GetState, .-EndFrame_GetState
 182              		.section	.text.EndFrame_Disable,"ax",%progbits
 183              		.align	2
 184              		.global	EndFrame_Disable
 185              		.thumb
 186              		.thumb_func
 187              		.type	EndFrame_Disable, %function
 188              	EndFrame_Disable:
 189              	.LFB10:
 339:Generated_Source\PSoC5/EndFrame.c **** 
 340:Generated_Source\PSoC5/EndFrame.c **** 
 341:Generated_Source\PSoC5/EndFrame.c **** /*******************************************************************************
 342:Generated_Source\PSoC5/EndFrame.c **** * Function Name: EndFrame_Disable
 343:Generated_Source\PSoC5/EndFrame.c **** ********************************************************************************
 344:Generated_Source\PSoC5/EndFrame.c **** *
 345:Generated_Source\PSoC5/EndFrame.c **** * Summary:
 346:Generated_Source\PSoC5/EndFrame.c **** *   Disables the Interrupt in the interrupt controller.
 347:Generated_Source\PSoC5/EndFrame.c **** *
 348:Generated_Source\PSoC5/EndFrame.c **** * Parameters:
 349:Generated_Source\PSoC5/EndFrame.c **** *   None
 350:Generated_Source\PSoC5/EndFrame.c **** *
 351:Generated_Source\PSoC5/EndFrame.c **** * Return:
 352:Generated_Source\PSoC5/EndFrame.c **** *   None
 353:Generated_Source\PSoC5/EndFrame.c **** *
 354:Generated_Source\PSoC5/EndFrame.c **** *******************************************************************************/
 355:Generated_Source\PSoC5/EndFrame.c **** void EndFrame_Disable(void)
 356:Generated_Source\PSoC5/EndFrame.c **** {
 190              		.loc 1 356 0
 191              		.cfi_startproc
 192              		@ args = 0, pretend = 0, frame = 0
 193              		@ frame_needed = 0, uses_anonymous_args = 0
 194              		@ link register save eliminated.
 357:Generated_Source\PSoC5/EndFrame.c ****     /* Disable the general interrupt. */
 358:Generated_Source\PSoC5/EndFrame.c ****     *EndFrame_INTC_CLR_EN = EndFrame__INTC_MASK;
 195              		.loc 1 358 0
 196 0000 0122     		movs	r2, #1
 197 0002 014B     		ldr	r3, .L20
 198 0004 1A60     		str	r2, [r3]
 199 0006 7047     		bx	lr
 200              	.L21:
 201              		.align	2
 202              	.L20:
 203 0008 80E100E0 		.word	-536813184
 204              		.cfi_endproc
 205              	.LFE10:
 206              		.size	EndFrame_Disable, .-EndFrame_Disable
 207              		.section	.text.EndFrame_Start,"ax",%progbits
 208              		.align	2
 209              		.global	EndFrame_Start
 210              		.thumb
 211              		.thumb_func
 212              		.type	EndFrame_Start, %function
ARM GAS  C:\Users\EA527~1.IVA\AppData\Local\Temp\cc4X1xAf.s 			page 11


 213              	EndFrame_Start:
 214              	.LFB0:
  65:Generated_Source\PSoC5/EndFrame.c ****     /* For all we know the interrupt is active. */
 215              		.loc 1 65 0
 216              		.cfi_startproc
 217              		@ args = 0, pretend = 0, frame = 0
 218              		@ frame_needed = 0, uses_anonymous_args = 0
 219 0000 08B5     		push	{r3, lr}
 220              		.cfi_def_cfa_offset 8
 221              		.cfi_offset 3, -8
 222              		.cfi_offset 14, -4
  67:Generated_Source\PSoC5/EndFrame.c **** 
 223              		.loc 1 67 0
 224 0002 FFF7FEFF 		bl	EndFrame_Disable
 225              	.LVL7:
  70:Generated_Source\PSoC5/EndFrame.c **** 
 226              		.loc 1 70 0
 227 0006 0448     		ldr	r0, .L24
 228 0008 FFF7FEFF 		bl	EndFrame_SetVector
 229              	.LVL8:
  73:Generated_Source\PSoC5/EndFrame.c **** 
 230              		.loc 1 73 0
 231 000c 0720     		movs	r0, #7
 232 000e FFF7FEFF 		bl	EndFrame_SetPriority
 233              	.LVL9:
  76:Generated_Source\PSoC5/EndFrame.c **** }
 234              		.loc 1 76 0
 235 0012 FFF7FEFF 		bl	EndFrame_Enable
 236              	.LVL10:
 237 0016 08BD     		pop	{r3, pc}
 238              	.L25:
 239              		.align	2
 240              	.L24:
 241 0018 00000000 		.word	EndFrame_Interrupt
 242              		.cfi_endproc
 243              	.LFE0:
 244              		.size	EndFrame_Start, .-EndFrame_Start
 245              		.section	.text.EndFrame_StartEx,"ax",%progbits
 246              		.align	2
 247              		.global	EndFrame_StartEx
 248              		.thumb
 249              		.thumb_func
 250              		.type	EndFrame_StartEx, %function
 251              	EndFrame_StartEx:
 252              	.LFB1:
 108:Generated_Source\PSoC5/EndFrame.c ****     /* For all we know the interrupt is active. */
 253              		.loc 1 108 0
 254              		.cfi_startproc
 255              		@ args = 0, pretend = 0, frame = 0
 256              		@ frame_needed = 0, uses_anonymous_args = 0
 257              	.LVL11:
 258 0000 10B5     		push	{r4, lr}
 259              		.cfi_def_cfa_offset 8
 260              		.cfi_offset 4, -8
 261              		.cfi_offset 14, -4
 262 0002 0446     		mov	r4, r0
 110:Generated_Source\PSoC5/EndFrame.c **** 
ARM GAS  C:\Users\EA527~1.IVA\AppData\Local\Temp\cc4X1xAf.s 			page 12


 263              		.loc 1 110 0
 264 0004 FFF7FEFF 		bl	EndFrame_Disable
 265              	.LVL12:
 113:Generated_Source\PSoC5/EndFrame.c **** 
 266              		.loc 1 113 0
 267 0008 2046     		mov	r0, r4
 268 000a FFF7FEFF 		bl	EndFrame_SetVector
 269              	.LVL13:
 116:Generated_Source\PSoC5/EndFrame.c **** 
 270              		.loc 1 116 0
 271 000e 0720     		movs	r0, #7
 272 0010 FFF7FEFF 		bl	EndFrame_SetPriority
 273              	.LVL14:
 119:Generated_Source\PSoC5/EndFrame.c **** }
 274              		.loc 1 119 0
 275 0014 FFF7FEFF 		bl	EndFrame_Enable
 276              	.LVL15:
 277 0018 10BD     		pop	{r4, pc}
 278              		.cfi_endproc
 279              	.LFE1:
 280              		.size	EndFrame_StartEx, .-EndFrame_StartEx
 281 001a 00BF     		.section	.text.EndFrame_Stop,"ax",%progbits
 282              		.align	2
 283              		.global	EndFrame_Stop
 284              		.thumb
 285              		.thumb_func
 286              		.type	EndFrame_Stop, %function
 287              	EndFrame_Stop:
 288              	.LFB2:
 138:Generated_Source\PSoC5/EndFrame.c ****     /* Disable this interrupt. */
 289              		.loc 1 138 0
 290              		.cfi_startproc
 291              		@ args = 0, pretend = 0, frame = 0
 292              		@ frame_needed = 0, uses_anonymous_args = 0
 293 0000 08B5     		push	{r3, lr}
 294              		.cfi_def_cfa_offset 8
 295              		.cfi_offset 3, -8
 296              		.cfi_offset 14, -4
 140:Generated_Source\PSoC5/EndFrame.c **** 
 297              		.loc 1 140 0
 298 0002 FFF7FEFF 		bl	EndFrame_Disable
 299              	.LVL16:
 143:Generated_Source\PSoC5/EndFrame.c **** }
 300              		.loc 1 143 0
 301 0006 0248     		ldr	r0, .L30
 302 0008 FFF7FEFF 		bl	EndFrame_SetVector
 303              	.LVL17:
 304 000c 08BD     		pop	{r3, pc}
 305              	.L31:
 306 000e 00BF     		.align	2
 307              	.L30:
 308 0010 00000000 		.word	IntDefaultHandler
 309              		.cfi_endproc
 310              	.LFE2:
 311              		.size	EndFrame_Stop, .-EndFrame_Stop
 312              		.section	.text.EndFrame_SetPending,"ax",%progbits
 313              		.align	2
ARM GAS  C:\Users\EA527~1.IVA\AppData\Local\Temp\cc4X1xAf.s 			page 13


 314              		.global	EndFrame_SetPending
 315              		.thumb
 316              		.thumb_func
 317              		.type	EndFrame_SetPending, %function
 318              	EndFrame_SetPending:
 319              	.LFB11:
 359:Generated_Source\PSoC5/EndFrame.c **** }
 360:Generated_Source\PSoC5/EndFrame.c **** 
 361:Generated_Source\PSoC5/EndFrame.c **** 
 362:Generated_Source\PSoC5/EndFrame.c **** /*******************************************************************************
 363:Generated_Source\PSoC5/EndFrame.c **** * Function Name: EndFrame_SetPending
 364:Generated_Source\PSoC5/EndFrame.c **** ********************************************************************************
 365:Generated_Source\PSoC5/EndFrame.c **** *
 366:Generated_Source\PSoC5/EndFrame.c **** * Summary:
 367:Generated_Source\PSoC5/EndFrame.c **** *   Causes the Interrupt to enter the pending state, a software method of
 368:Generated_Source\PSoC5/EndFrame.c **** *   generating the interrupt.
 369:Generated_Source\PSoC5/EndFrame.c **** *
 370:Generated_Source\PSoC5/EndFrame.c **** * Parameters:
 371:Generated_Source\PSoC5/EndFrame.c **** *   None
 372:Generated_Source\PSoC5/EndFrame.c **** *
 373:Generated_Source\PSoC5/EndFrame.c **** * Return:
 374:Generated_Source\PSoC5/EndFrame.c **** *   None
 375:Generated_Source\PSoC5/EndFrame.c **** *
 376:Generated_Source\PSoC5/EndFrame.c **** * Side Effects:
 377:Generated_Source\PSoC5/EndFrame.c **** *   If interrupts are enabled and the interrupt is set up properly, the ISR is
 378:Generated_Source\PSoC5/EndFrame.c **** *   entered (depending on the priority of this interrupt and other pending 
 379:Generated_Source\PSoC5/EndFrame.c **** *   interrupts).
 380:Generated_Source\PSoC5/EndFrame.c **** *
 381:Generated_Source\PSoC5/EndFrame.c **** *******************************************************************************/
 382:Generated_Source\PSoC5/EndFrame.c **** void EndFrame_SetPending(void)
 383:Generated_Source\PSoC5/EndFrame.c **** {
 320              		.loc 1 383 0
 321              		.cfi_startproc
 322              		@ args = 0, pretend = 0, frame = 0
 323              		@ frame_needed = 0, uses_anonymous_args = 0
 324              		@ link register save eliminated.
 384:Generated_Source\PSoC5/EndFrame.c ****     *EndFrame_INTC_SET_PD = EndFrame__INTC_MASK;
 325              		.loc 1 384 0
 326 0000 0122     		movs	r2, #1
 327 0002 014B     		ldr	r3, .L33
 328 0004 1A60     		str	r2, [r3]
 329 0006 7047     		bx	lr
 330              	.L34:
 331              		.align	2
 332              	.L33:
 333 0008 00E200E0 		.word	-536813056
 334              		.cfi_endproc
 335              	.LFE11:
 336              		.size	EndFrame_SetPending, .-EndFrame_SetPending
 337              		.section	.text.EndFrame_ClearPending,"ax",%progbits
 338              		.align	2
 339              		.global	EndFrame_ClearPending
 340              		.thumb
 341              		.thumb_func
 342              		.type	EndFrame_ClearPending, %function
 343              	EndFrame_ClearPending:
 344              	.LFB12:
ARM GAS  C:\Users\EA527~1.IVA\AppData\Local\Temp\cc4X1xAf.s 			page 14


 385:Generated_Source\PSoC5/EndFrame.c **** }
 386:Generated_Source\PSoC5/EndFrame.c **** 
 387:Generated_Source\PSoC5/EndFrame.c **** 
 388:Generated_Source\PSoC5/EndFrame.c **** /*******************************************************************************
 389:Generated_Source\PSoC5/EndFrame.c **** * Function Name: EndFrame_ClearPending
 390:Generated_Source\PSoC5/EndFrame.c **** ********************************************************************************
 391:Generated_Source\PSoC5/EndFrame.c **** *
 392:Generated_Source\PSoC5/EndFrame.c **** * Summary:
 393:Generated_Source\PSoC5/EndFrame.c **** *   Clears a pending interrupt in the interrupt controller.
 394:Generated_Source\PSoC5/EndFrame.c **** *
 395:Generated_Source\PSoC5/EndFrame.c **** *   Note Some interrupt sources are clear-on-read and require the block 
 396:Generated_Source\PSoC5/EndFrame.c **** *   interrupt/status register to be read/cleared with the appropriate block API 
 397:Generated_Source\PSoC5/EndFrame.c **** *   (GPIO, UART, and so on). Otherwise the ISR will continue to remain in 
 398:Generated_Source\PSoC5/EndFrame.c **** *   pending state even though the interrupt itself is cleared using this API.
 399:Generated_Source\PSoC5/EndFrame.c **** *
 400:Generated_Source\PSoC5/EndFrame.c **** * Parameters:
 401:Generated_Source\PSoC5/EndFrame.c **** *   None
 402:Generated_Source\PSoC5/EndFrame.c **** *
 403:Generated_Source\PSoC5/EndFrame.c **** * Return:
 404:Generated_Source\PSoC5/EndFrame.c **** *   None
 405:Generated_Source\PSoC5/EndFrame.c **** *
 406:Generated_Source\PSoC5/EndFrame.c **** *******************************************************************************/
 407:Generated_Source\PSoC5/EndFrame.c **** void EndFrame_ClearPending(void)
 408:Generated_Source\PSoC5/EndFrame.c **** {
 345              		.loc 1 408 0
 346              		.cfi_startproc
 347              		@ args = 0, pretend = 0, frame = 0
 348              		@ frame_needed = 0, uses_anonymous_args = 0
 349              		@ link register save eliminated.
 409:Generated_Source\PSoC5/EndFrame.c ****     *EndFrame_INTC_CLR_PD = EndFrame__INTC_MASK;
 350              		.loc 1 409 0
 351 0000 0122     		movs	r2, #1
 352 0002 014B     		ldr	r3, .L36
 353 0004 1A60     		str	r2, [r3]
 354 0006 7047     		bx	lr
 355              	.L37:
 356              		.align	2
 357              	.L36:
 358 0008 80E200E0 		.word	-536812928
 359              		.cfi_endproc
 360              	.LFE12:
 361              		.size	EndFrame_ClearPending, .-EndFrame_ClearPending
 362              		.section	.text.EndFrame_Interrupt,"ax",%progbits
 363              		.align	2
 364              		.global	EndFrame_Interrupt
 365              		.thumb
 366              		.thumb_func
 367              		.type	EndFrame_Interrupt, %function
 368              	EndFrame_Interrupt:
 369              	.LFB3:
 164:Generated_Source\PSoC5/EndFrame.c ****     #ifdef EndFrame_INTERRUPT_INTERRUPT_CALLBACK
 370              		.loc 1 164 0
 371              		.cfi_startproc
 372              		@ args = 0, pretend = 0, frame = 0
 373              		@ frame_needed = 0, uses_anonymous_args = 0
 374 0000 08B5     		push	{r3, lr}
 375              		.cfi_def_cfa_offset 8
ARM GAS  C:\Users\EA527~1.IVA\AppData\Local\Temp\cc4X1xAf.s 			page 15


 376              		.cfi_offset 3, -8
 377              		.cfi_offset 14, -4
 172:Generated_Source\PSoC5/EndFrame.c ****     ClearRcStatus();
 378              		.loc 1 172 0
 379 0002 1F20     		movs	r0, #31
 380 0004 FFF7FEFF 		bl	BitCounterDec_WriteCounter
 381              	.LVL18:
 173:Generated_Source\PSoC5/EndFrame.c ****     EndFrame_ClearPending();
 382              		.loc 1 173 0
 383 0008 FFF7FEFF 		bl	ClearRcStatus
 384              	.LVL19:
 174:Generated_Source\PSoC5/EndFrame.c ****     /* `#END` */
 385              		.loc 1 174 0
 386 000c FFF7FEFF 		bl	EndFrame_ClearPending
 387              	.LVL20:
 388 0010 08BD     		pop	{r3, pc}
 389              		.cfi_endproc
 390              	.LFE3:
 391              		.size	EndFrame_Interrupt, .-EndFrame_Interrupt
 392 0012 00BF     		.text
 393              	.Letext0:
 394              		.file 2 "Generated_Source\\PSoC5/cytypes.h"
 395              		.file 3 "Generated_Source\\PSoC5/BitCounterDec.h"
 396              		.file 4 "./reciver.h"