ARM GAS  C:\Users\EA527~1.IVA\AppData\Local\Temp\ccHpHb24.s 			page 1


   1              		.syntax unified
   2              		.cpu cortex-m3
   3              		.fpu softvfp
   4              		.eabi_attribute 20, 1
   5              		.eabi_attribute 21, 1
   6              		.eabi_attribute 23, 3
   7              		.eabi_attribute 24, 1
   8              		.eabi_attribute 25, 1
   9              		.eabi_attribute 26, 1
  10              		.eabi_attribute 30, 1
  11              		.eabi_attribute 34, 1
  12              		.eabi_attribute 18, 4
  13              		.thumb
  14              		.syntax unified
  15              		.file	"FirstFrame.c"
  16              		.text
  17              	.Ltext0:
  18              		.cfi_sections	.debug_frame
  19              		.section	.text.PrepareFirstFrame,"ax",%progbits
  20              		.align	2
  21              		.global	PrepareFirstFrame
  22              		.thumb
  23              		.thumb_func
  24              		.type	PrepareFirstFrame, %function
  25              	PrepareFirstFrame:
  26              	.LFB0:
  27              		.file 1 "FirstFrame.c"
   1:FirstFrame.c  **** /* ========================================
   2:FirstFrame.c  ****  *
   3:FirstFrame.c  ****  * Copyright YOUR COMPANY, THE YEAR
   4:FirstFrame.c  ****  * All Rights Reserved
   5:FirstFrame.c  ****  * UNPUBLISHED, LICENSED SOFTWARE.
   6:FirstFrame.c  ****  *
   7:FirstFrame.c  ****  * CONFIDENTIAL AND PROPRIETARY INFORMATION
   8:FirstFrame.c  ****  * WHICH IS THE PROPERTY OF your company.
   9:FirstFrame.c  ****  *
  10:FirstFrame.c  ****  * ========================================
  11:FirstFrame.c  **** */
  12:FirstFrame.c  **** 
  13:FirstFrame.c  **** #include <FirstFrame.h>
  14:FirstFrame.c  **** #include <SPI_ADC_ADS131E08.h>
  15:FirstFrame.c  **** #include <line_buf.h>
  16:FirstFrame.c  **** #include "cytypes.h"
  17:FirstFrame.c  **** 
  18:FirstFrame.c  **** 
  19:FirstFrame.c  **** 
  20:FirstFrame.c  **** uint32 last_adc_data_sended = 1;
  21:FirstFrame.c  **** static uint32 subframe_counter=0;
  22:FirstFrame.c  **** data_adc_result_frame Result;
  23:FirstFrame.c  **** 
  24:FirstFrame.c  **** 
  25:FirstFrame.c  **** 
  26:FirstFrame.c  **** void PrepareFirstFrame(void){
  28              		.loc 1 26 0
  29              		.cfi_startproc
  30              		@ args = 0, pretend = 0, frame = 0
  31              		@ frame_needed = 0, uses_anonymous_args = 0
ARM GAS  C:\Users\EA527~1.IVA\AppData\Local\Temp\ccHpHb24.s 			page 2


  32              		@ link register save eliminated.
  33 0000 10B4     		push	{r4}
  34              		.cfi_def_cfa_offset 4
  35              		.cfi_offset 4, -4
  27:FirstFrame.c  ****     subframe_counter++;
  36              		.loc 1 27 0
  37 0002 244A     		ldr	r2, .L8
  38 0004 1368     		ldr	r3, [r2]
  39 0006 0133     		adds	r3, r3, #1
  40 0008 1360     		str	r3, [r2]
  28:FirstFrame.c  ****     if(subframe_counter >= 8) subframe_counter=0;
  41              		.loc 1 28 0
  42 000a 072B     		cmp	r3, #7
  43 000c 02D9     		bls	.L2
  44              		.loc 1 28 0 is_stmt 0 discriminator 1
  45 000e 0022     		movs	r2, #0
  46 0010 204B     		ldr	r3, .L8
  47 0012 1A60     		str	r2, [r3]
  48              	.L2:
  29:FirstFrame.c  ****     Result.label = 1;
  49              		.loc 1 29 0 is_stmt 1
  50 0014 204A     		ldr	r2, .L8+4
  51 0016 D378     		ldrb	r3, [r2, #3]	@ zero_extendqisi2
  30:FirstFrame.c  ****     Result.fake = last_adc_data_sended;
  52              		.loc 1 30 0
  53 0018 2049     		ldr	r1, .L8+8
  54 001a 0968     		ldr	r1, [r1]
  55 001c 63F07F03 		orn	r3, r3, #127
  56 0020 61F3C303 		bfi	r3, r1, #3, #1
  31:FirstFrame.c  ****     Result.subframe = subframe_counter;
  57              		.loc 1 31 0
  58 0024 1B49     		ldr	r1, .L8
  59 0026 0968     		ldr	r1, [r1]
  60 0028 61F30203 		bfi	r3, r1, #0, #3
  32:FirstFrame.c  ****     Result.frame = 7;
  61              		.loc 1 32 0
  62 002c DBB2     		uxtb	r3, r3
  63 002e 43F07003 		orr	r3, r3, #112
  64 0032 D370     		strb	r3, [r2, #3]
  33:FirstFrame.c  ****     Result.gidrophone = Data_ADS131E08.data_ch1;
  65              		.loc 1 33 0
  66 0034 1A4B     		ldr	r3, .L8+12
  67 0036 5C68     		ldr	r4, [r3, #4]
  68 0038 1068     		ldr	r0, [r2]
  69 003a 64F31700 		bfi	r0, r4, #0, #24
  70 003e 1060     		str	r0, [r2]
  34:FirstFrame.c  ****     Result.geophoneX = Data_ADS131E08.data_ch2;
  71              		.loc 1 34 0
  72 0040 9C68     		ldr	r4, [r3, #8]
  73 0042 5068     		ldr	r0, [r2, #4]
  74 0044 64F31700 		bfi	r0, r4, #0, #24
  75 0048 5060     		str	r0, [r2, #4]
  35:FirstFrame.c  ****     Result.geophoneY = Data_ADS131E08.data_ch3;
  76              		.loc 1 35 0
  77 004a DC68     		ldr	r4, [r3, #12]
  78 004c 9068     		ldr	r0, [r2, #8]
  79 004e 64F31700 		bfi	r0, r4, #0, #24
ARM GAS  C:\Users\EA527~1.IVA\AppData\Local\Temp\ccHpHb24.s 			page 3


  80 0052 9060     		str	r0, [r2, #8]
  36:FirstFrame.c  ****     Result.geophoneZ = Data_ADS131E08.data_ch4;
  81              		.loc 1 36 0
  82 0054 1869     		ldr	r0, [r3, #16]
  83 0056 D368     		ldr	r3, [r2, #12]
  84 0058 60F31703 		bfi	r3, r0, #0, #24
  85 005c D360     		str	r3, [r2, #12]
  37:FirstFrame.c  ****     switch(subframe_counter){
  86              		.loc 1 37 0
  87 005e 0529     		cmp	r1, #5
  88 0060 0AD0     		beq	.L4
  89 0062 0629     		cmp	r1, #6
  90 0064 0FD0     		beq	.L5
  91 0066 0429     		cmp	r1, #4
  92 0068 11D1     		bne	.L1
  38:FirstFrame.c  ****     case 0:
  39:FirstFrame.c  ****         /*
  40:FirstFrame.c  ****             !! These fields have been empty yet !!
  41:FirstFrame.c  ****         */
  42:FirstFrame.c  ****         //Result.aux_data_low = ADS131E08_CurSet.regim.;
  43:FirstFrame.c  ****         //Result.aux_data_high = Data_ADS131E08.Fields.data3;
  44:FirstFrame.c  ****         break;
  45:FirstFrame.c  ****     case 1:
  46:FirstFrame.c  ****         //Result.aux_data_low = Data_LIS2DH12TR.Ox;
  47:FirstFrame.c  ****         //Result.aux_data_high = Data_LIS2DH12TR.Ox;
  48:FirstFrame.c  ****         break;
  49:FirstFrame.c  ****     case 2:
  50:FirstFrame.c  ****          //Result.aux_data_low = Data_LIS2DH12TR.Oy;
  51:FirstFrame.c  ****         //Result.aux_data_high = Data_LIS2DH12TR.Oy;
  52:FirstFrame.c  ****         break;
  53:FirstFrame.c  ****     case 3:
  54:FirstFrame.c  ****          //Result.aux_data_low = Data_LIS2DH12TR.Oz;
  55:FirstFrame.c  ****         //Result.aux_data_high = Data_LIS2DH12TR.Oz;
  56:FirstFrame.c  ****         break;
  57:FirstFrame.c  ****     case 4:
  58:FirstFrame.c  ****         Result.aux_data_low = ADS131E08_CurSet.array[ADS131E08_CH1SET_ADDRESS-1];
  93              		.loc 1 58 0
  94 006a 0E4A     		ldr	r2, .L8+16
  95 006c 1179     		ldrb	r1, [r2, #4]	@ zero_extendqisi2
  96 006e 0A4B     		ldr	r3, .L8+4
  97 0070 D972     		strb	r1, [r3, #11]
  59:FirstFrame.c  ****         Result.aux_data_high = ADS131E08_CurSet.array[ADS131E08_CH2SET_ADDRESS-1];
  98              		.loc 1 59 0
  99 0072 5279     		ldrb	r2, [r2, #5]	@ zero_extendqisi2
 100 0074 DA73     		strb	r2, [r3, #15]
  60:FirstFrame.c  ****         break;
 101              		.loc 1 60 0
 102 0076 0AE0     		b	.L1
 103              	.L4:
  61:FirstFrame.c  ****     case 5:
  62:FirstFrame.c  ****         Result.aux_data_low = ADS131E08_CurSet.array[ADS131E08_CONFIG1_ADDRESS-1];
 104              		.loc 1 62 0
 105 0078 0A4A     		ldr	r2, .L8+16
 106 007a 1178     		ldrb	r1, [r2]	@ zero_extendqisi2
 107 007c 064B     		ldr	r3, .L8+4
 108 007e D972     		strb	r1, [r3, #11]
  63:FirstFrame.c  ****         Result.aux_data_high = ADS131E08_CurSet.array[ADS131E08_CONFIG2_ADDRESS-1];
ARM GAS  C:\Users\EA527~1.IVA\AppData\Local\Temp\ccHpHb24.s 			page 4


 109              		.loc 1 63 0
 110 0080 5278     		ldrb	r2, [r2, #1]	@ zero_extendqisi2
 111 0082 DA73     		strb	r2, [r3, #15]
  64:FirstFrame.c  ****         break;
 112              		.loc 1 64 0
 113 0084 03E0     		b	.L1
 114              	.L5:
  65:FirstFrame.c  ****     case 6:
  66:FirstFrame.c  ****         Result.aux_data_low = ADS131E08_CurSet.array[ADS131E08_CONFIG3_ADDRESS-1];
 115              		.loc 1 66 0
 116 0086 074B     		ldr	r3, .L8+16
 117 0088 9A78     		ldrb	r2, [r3, #2]	@ zero_extendqisi2
 118 008a 034B     		ldr	r3, .L8+4
 119 008c DA72     		strb	r2, [r3, #11]
 120              	.L1:
  67:FirstFrame.c  ****         break;
  68:FirstFrame.c  ****     case 7:
  69:FirstFrame.c  ****         break;
  70:FirstFrame.c  ****     }
  71:FirstFrame.c  **** }
 121              		.loc 1 71 0
 122 008e 10BC     		pop	{r4}
 123              		.cfi_restore 4
 124              		.cfi_def_cfa_offset 0
 125 0090 7047     		bx	lr
 126              	.L9:
 127 0092 00BF     		.align	2
 128              	.L8:
 129 0094 00000000 		.word	.LANCHOR0
 130 0098 00000000 		.word	Result
 131 009c 00000000 		.word	.LANCHOR1
 132 00a0 00000000 		.word	Data_ADS131E08
 133 00a4 00000000 		.word	ADS131E08_CurSet
 134              		.cfi_endproc
 135              	.LFE0:
 136              		.size	PrepareFirstFrame, .-PrepareFirstFrame
 137              		.section	.text.CopyFirstFrame,"ax",%progbits
 138              		.align	2
 139              		.global	CopyFirstFrame
 140              		.thumb
 141              		.thumb_func
 142              		.type	CopyFirstFrame, %function
 143              	CopyFirstFrame:
 144              	.LFB1:
  72:FirstFrame.c  **** void CopyFirstFrame(void){
 145              		.loc 1 72 0
 146              		.cfi_startproc
 147              		@ args = 0, pretend = 0, frame = 0
 148              		@ frame_needed = 0, uses_anonymous_args = 0
 149              		@ link register save eliminated.
 150 0000 10B4     		push	{r4}
 151              		.cfi_def_cfa_offset 4
 152              		.cfi_offset 4, -4
  73:FirstFrame.c  ****     memcpy( (void*)line_buf, (void*)&Result, sizeof(Result));
 153              		.loc 1 73 0
 154 0002 054C     		ldr	r4, .L12
 155 0004 054B     		ldr	r3, .L12+4
ARM GAS  C:\Users\EA527~1.IVA\AppData\Local\Temp\ccHpHb24.s 			page 5


 156 0006 0FCB     		ldmia	r3, {r0, r1, r2, r3}
 157 0008 84E80F00 		stmia	r4, {r0, r1, r2, r3}
  74:FirstFrame.c  ****     last_adc_data_sended = 1;
 158              		.loc 1 74 0
 159 000c 0122     		movs	r2, #1
 160 000e 044B     		ldr	r3, .L12+8
 161 0010 1A60     		str	r2, [r3]
  75:FirstFrame.c  **** }
 162              		.loc 1 75 0
 163 0012 10BC     		pop	{r4}
 164              		.cfi_restore 4
 165              		.cfi_def_cfa_offset 0
 166 0014 7047     		bx	lr
 167              	.L13:
 168 0016 00BF     		.align	2
 169              	.L12:
 170 0018 00000000 		.word	line_buf
 171 001c 00000000 		.word	Result
 172 0020 00000000 		.word	.LANCHOR1
 173              		.cfi_endproc
 174              	.LFE1:
 175              		.size	CopyFirstFrame, .-CopyFirstFrame
 176              		.comm	Result,16,4
 177              		.global	last_adc_data_sended
 178              		.data
 179              		.align	2
 180              		.set	.LANCHOR1,. + 0
 181              		.type	last_adc_data_sended, %object
 182              		.size	last_adc_data_sended, 4
 183              	last_adc_data_sended:
 184 0000 01000000 		.word	1
 185              		.bss
 186              		.align	2
 187              		.set	.LANCHOR0,. + 0
 188              		.type	subframe_counter, %object
 189              		.size	subframe_counter, 4
 190              	subframe_counter:
 191 0000 00000000 		.space	4
 192              		.text
 193              	.Letext0:
 194              		.file 2 "Generated_Source\\PSoC5/cytypes.h"
 195              		.file 3 "./FirstFrame.h"
 196              		.file 4 "./SPI_ADC_ADS131E08.h"
 197              		.file 5 "./line_buf.h"