ARM GAS  C:\Users\EA527~1.IVA\AppData\Local\Temp\cckHwGRi.s 			page 1


   1              		.syntax unified
   2              		.cpu cortex-m3
   3              		.fpu softvfp
   4              		.eabi_attribute 20, 1
   5              		.eabi_attribute 21, 1
   6              		.eabi_attribute 23, 3
   7              		.eabi_attribute 24, 1
   8              		.eabi_attribute 25, 1
   9              		.eabi_attribute 26, 1
  10              		.eabi_attribute 30, 1
  11              		.eabi_attribute 34, 1
  12              		.eabi_attribute 18, 4
  13              		.thumb
  14              		.syntax unified
  15              		.file	"IPSET.c"
  16              		.text
  17              	.Ltext0:
  18              		.cfi_sections	.debug_frame
  19              		.section	.text.atoh,"ax",%progbits
  20              		.align	2
  21              		.global	atoh
  22              		.thumb
  23              		.thumb_func
  24              		.type	atoh, %function
  25              	atoh:
  26              	.LFB64:
  27              		.file 1 "IPSET.c"
   1:IPSET.c       **** /* ========================================
   2:IPSET.c       ****  *
   3:IPSET.c       ****  * Copyright YOUR COMPANY, THE YEAR
   4:IPSET.c       ****  * All Rights Reserved
   5:IPSET.c       ****  * UNPUBLISHED, LICENSED SOFTWARE.
   6:IPSET.c       ****  *
   7:IPSET.c       ****  * CONFIDENTIAL AND PROPRIETARY INFORMATION
   8:IPSET.c       ****  * WHICH IS THE PROPERTY OF your company.
   9:IPSET.c       ****  *
  10:IPSET.c       ****  * ========================================
  11:IPSET.c       **** */
  12:IPSET.c       **** #include <global.h>
  13:IPSET.c       **** 
  14:IPSET.c       **** 
  15:IPSET.c       **** 
  16:IPSET.c       **** 
  17:IPSET.c       **** typedef struct {
  18:IPSET.c       ****     char chanel[6];
  19:IPSET.c       ****     char port[6];
  20:IPSET.c       ****     char multicast[20];
  21:IPSET.c       ****     char unicast[20];
  22:IPSET.c       ****     char mac[20];
  23:IPSET.c       **** }ip_preset;
  24:IPSET.c       **** 
  25:IPSET.c       **** int atoh(char *str){
  28              		.loc 1 25 0
  29              		.cfi_startproc
  30              		@ args = 0, pretend = 0, frame = 0
  31              		@ frame_needed = 0, uses_anonymous_args = 0
  32              	.LVL0:
ARM GAS  C:\Users\EA527~1.IVA\AppData\Local\Temp\cckHwGRi.s 			page 2


  33 0000 38B5     		push	{r3, r4, r5, lr}
  34              		.cfi_def_cfa_offset 16
  35              		.cfi_offset 3, -16
  36              		.cfi_offset 4, -12
  37              		.cfi_offset 5, -8
  38              		.cfi_offset 14, -4
  39 0002 0446     		mov	r4, r0
  26:IPSET.c       ****     int result=16 * ByteToInt(str[0]);
  40              		.loc 1 26 0
  41 0004 0078     		ldrb	r0, [r0]	@ zero_extendqisi2
  42              	.LVL1:
  43 0006 FFF7FEFF 		bl	ByteToInt
  44              	.LVL2:
  45 000a 0501     		lsls	r5, r0, #4
  46              	.LVL3:
  27:IPSET.c       ****     result+= ByteToInt(str[1]);
  47              		.loc 1 27 0
  48 000c 6078     		ldrb	r0, [r4, #1]	@ zero_extendqisi2
  49 000e FFF7FEFF 		bl	ByteToInt
  50              	.LVL4:
  28:IPSET.c       ****     return result;
  29:IPSET.c       **** }
  51              		.loc 1 29 0
  52 0012 2844     		add	r0, r0, r5
  53              	.LVL5:
  54 0014 38BD     		pop	{r3, r4, r5, pc}
  55              		.cfi_endproc
  56              	.LFE64:
  57              		.size	atoh, .-atoh
  58 0016 00BF     		.section	.text.IpParsTokenToMac,"ax",%progbits
  59              		.align	2
  60              		.global	IpParsTokenToMac
  61              		.thumb
  62              		.thumb_func
  63              		.type	IpParsTokenToMac, %function
  64              	IpParsTokenToMac:
  65              	.LFB65:
  30:IPSET.c       **** static ip_preset IP_Instance;
  31:IPSET.c       **** ip_set IP_Complete;
  32:IPSET.c       **** 
  33:IPSET.c       **** void IpParsTokenToMac(char* Dest, char* Token){
  66              		.loc 1 33 0
  67              		.cfi_startproc
  68              		@ args = 0, pretend = 0, frame = 0
  69              		@ frame_needed = 0, uses_anonymous_args = 0
  70              	.LVL6:
  71 0000 10B5     		push	{r4, lr}
  72              		.cfi_def_cfa_offset 8
  73              		.cfi_offset 4, -8
  74              		.cfi_offset 14, -4
  75 0002 0446     		mov	r4, r0
  76 0004 0846     		mov	r0, r1
  77              	.LVL7:
  34:IPSET.c       ****     Dest[0]=atoh(strtok_e (Token, ':'));
  78              		.loc 1 34 0
  79 0006 3A21     		movs	r1, #58
  80              	.LVL8:
ARM GAS  C:\Users\EA527~1.IVA\AppData\Local\Temp\cckHwGRi.s 			page 3


  81 0008 FFF7FEFF 		bl	strtok_e
  82              	.LVL9:
  83 000c FFF7FEFF 		bl	atoh
  84              	.LVL10:
  85 0010 2070     		strb	r0, [r4]
  35:IPSET.c       ****     Dest[1]=atoh(strtok_e (NULL, ':'));
  86              		.loc 1 35 0
  87 0012 3A21     		movs	r1, #58
  88 0014 0020     		movs	r0, #0
  89 0016 FFF7FEFF 		bl	strtok_e
  90              	.LVL11:
  91 001a FFF7FEFF 		bl	atoh
  92              	.LVL12:
  93 001e 6070     		strb	r0, [r4, #1]
  36:IPSET.c       ****     Dest[2]=atoh(strtok_e (NULL, ':'));
  94              		.loc 1 36 0
  95 0020 3A21     		movs	r1, #58
  96 0022 0020     		movs	r0, #0
  97 0024 FFF7FEFF 		bl	strtok_e
  98              	.LVL13:
  99 0028 FFF7FEFF 		bl	atoh
 100              	.LVL14:
 101 002c A070     		strb	r0, [r4, #2]
  37:IPSET.c       ****     Dest[3]=atoh(strtok_e (NULL, ':'));
 102              		.loc 1 37 0
 103 002e 3A21     		movs	r1, #58
 104 0030 0020     		movs	r0, #0
 105 0032 FFF7FEFF 		bl	strtok_e
 106              	.LVL15:
 107 0036 FFF7FEFF 		bl	atoh
 108              	.LVL16:
 109 003a E070     		strb	r0, [r4, #3]
  38:IPSET.c       ****     Dest[4]=atoh(strtok_e (NULL, ':'));
 110              		.loc 1 38 0
 111 003c 3A21     		movs	r1, #58
 112 003e 0020     		movs	r0, #0
 113 0040 FFF7FEFF 		bl	strtok_e
 114              	.LVL17:
 115 0044 FFF7FEFF 		bl	atoh
 116              	.LVL18:
 117 0048 2071     		strb	r0, [r4, #4]
  39:IPSET.c       ****     Dest[5]=atoh(strtok_e (NULL, ':'));
 118              		.loc 1 39 0
 119 004a 3A21     		movs	r1, #58
 120 004c 0020     		movs	r0, #0
 121 004e FFF7FEFF 		bl	strtok_e
 122              	.LVL19:
 123 0052 FFF7FEFF 		bl	atoh
 124              	.LVL20:
 125 0056 6071     		strb	r0, [r4, #5]
 126 0058 10BD     		pop	{r4, pc}
 127              		.cfi_endproc
 128              	.LFE65:
 129              		.size	IpParsTokenToMac, .-IpParsTokenToMac
 130 005a 00BF     		.section	.text.IpParsTokenToAddr,"ax",%progbits
 131              		.align	2
 132              		.global	IpParsTokenToAddr
ARM GAS  C:\Users\EA527~1.IVA\AppData\Local\Temp\cckHwGRi.s 			page 4


 133              		.thumb
 134              		.thumb_func
 135              		.type	IpParsTokenToAddr, %function
 136              	IpParsTokenToAddr:
 137              	.LFB66:
  40:IPSET.c       **** }
  41:IPSET.c       **** 
  42:IPSET.c       **** void IpParsTokenToAddr(char* Dest, char* Token){
 138              		.loc 1 42 0
 139              		.cfi_startproc
 140              		@ args = 0, pretend = 0, frame = 0
 141              		@ frame_needed = 0, uses_anonymous_args = 0
 142              	.LVL21:
 143 0000 10B5     		push	{r4, lr}
 144              		.cfi_def_cfa_offset 8
 145              		.cfi_offset 4, -8
 146              		.cfi_offset 14, -4
 147 0002 0446     		mov	r4, r0
 148 0004 0846     		mov	r0, r1
 149              	.LVL22:
  43:IPSET.c       ****     Dest[0]=atoi(strtok_e (Token, '.'));
 150              		.loc 1 43 0
 151 0006 2E21     		movs	r1, #46
 152              	.LVL23:
 153 0008 FFF7FEFF 		bl	strtok_e
 154              	.LVL24:
 155 000c FFF7FEFF 		bl	atoi
 156              	.LVL25:
 157 0010 2070     		strb	r0, [r4]
  44:IPSET.c       ****     Dest[1]=atoi(strtok_e (NULL, '.'));
 158              		.loc 1 44 0
 159 0012 2E21     		movs	r1, #46
 160 0014 0020     		movs	r0, #0
 161 0016 FFF7FEFF 		bl	strtok_e
 162              	.LVL26:
 163 001a FFF7FEFF 		bl	atoi
 164              	.LVL27:
 165 001e 6070     		strb	r0, [r4, #1]
  45:IPSET.c       ****     Dest[2]=atoi(strtok_e (NULL, '.'));
 166              		.loc 1 45 0
 167 0020 2E21     		movs	r1, #46
 168 0022 0020     		movs	r0, #0
 169 0024 FFF7FEFF 		bl	strtok_e
 170              	.LVL28:
 171 0028 FFF7FEFF 		bl	atoi
 172              	.LVL29:
 173 002c A070     		strb	r0, [r4, #2]
  46:IPSET.c       ****     Dest[3]=atoi(strtok_e (NULL, '.'));
 174              		.loc 1 46 0
 175 002e 2E21     		movs	r1, #46
 176 0030 0020     		movs	r0, #0
 177 0032 FFF7FEFF 		bl	strtok_e
 178              	.LVL30:
 179 0036 FFF7FEFF 		bl	atoi
 180              	.LVL31:
 181 003a E070     		strb	r0, [r4, #3]
 182 003c 10BD     		pop	{r4, pc}
ARM GAS  C:\Users\EA527~1.IVA\AppData\Local\Temp\cckHwGRi.s 			page 5


 183              		.cfi_endproc
 184              	.LFE66:
 185              		.size	IpParsTokenToAddr, .-IpParsTokenToAddr
 186 003e 00BF     		.section	.text.IpParsToTokens,"ax",%progbits
 187              		.align	2
 188              		.global	IpParsToTokens
 189              		.thumb
 190              		.thumb_func
 191              		.type	IpParsToTokens, %function
 192              	IpParsToTokens:
 193              	.LFB67:
  47:IPSET.c       **** }
  48:IPSET.c       **** 
  49:IPSET.c       **** void IpParsToTokens(uint8* sentence){
 194              		.loc 1 49 0
 195              		.cfi_startproc
 196              		@ args = 0, pretend = 0, frame = 0
 197              		@ frame_needed = 0, uses_anonymous_args = 0
 198              	.LVL32:
 199 0000 10B5     		push	{r4, lr}
 200              		.cfi_def_cfa_offset 8
 201              		.cfi_offset 4, -8
 202              		.cfi_offset 14, -4
  50:IPSET.c       ****     strtok_e ((char*)sentence, ',');
 203              		.loc 1 50 0
 204 0002 2C21     		movs	r1, #44
 205 0004 FFF7FEFF 		bl	strtok_e
 206              	.LVL33:
  51:IPSET.c       ****     strcpy(IP_Instance.chanel,strtok_e (NULL, ','));
 207              		.loc 1 51 0
 208 0008 2C21     		movs	r1, #44
 209 000a 0020     		movs	r0, #0
 210 000c FFF7FEFF 		bl	strtok_e
 211              	.LVL34:
 212 0010 144C     		ldr	r4, .L9
 213 0012 0146     		mov	r1, r0
 214 0014 2046     		mov	r0, r4
 215 0016 FFF7FEFF 		bl	strcpy
 216              	.LVL35:
  52:IPSET.c       ****     strcpy(IP_Instance.mac,strtok_e (NULL, ','));
 217              		.loc 1 52 0
 218 001a 2C21     		movs	r1, #44
 219 001c 0020     		movs	r0, #0
 220 001e FFF7FEFF 		bl	strtok_e
 221              	.LVL36:
 222 0022 0146     		mov	r1, r0
 223 0024 04F13400 		add	r0, r4, #52
 224 0028 FFF7FEFF 		bl	strcpy
 225              	.LVL37:
  53:IPSET.c       ****     strcpy(IP_Instance.unicast,strtok_e (NULL, ','));
 226              		.loc 1 53 0
 227 002c 2C21     		movs	r1, #44
 228 002e 0020     		movs	r0, #0
 229 0030 FFF7FEFF 		bl	strtok_e
 230              	.LVL38:
 231 0034 0146     		mov	r1, r0
 232 0036 04F12000 		add	r0, r4, #32
ARM GAS  C:\Users\EA527~1.IVA\AppData\Local\Temp\cckHwGRi.s 			page 6


 233 003a FFF7FEFF 		bl	strcpy
 234              	.LVL39:
  54:IPSET.c       ****     strcpy(IP_Instance.multicast,strtok_e (NULL, ','));
 235              		.loc 1 54 0
 236 003e 2C21     		movs	r1, #44
 237 0040 0020     		movs	r0, #0
 238 0042 FFF7FEFF 		bl	strtok_e
 239              	.LVL40:
 240 0046 0146     		mov	r1, r0
 241 0048 04F10C00 		add	r0, r4, #12
 242 004c FFF7FEFF 		bl	strcpy
 243              	.LVL41:
  55:IPSET.c       ****     strcpy(IP_Instance.port,strtok_e (NULL, ','));
 244              		.loc 1 55 0
 245 0050 2C21     		movs	r1, #44
 246 0052 0020     		movs	r0, #0
 247 0054 FFF7FEFF 		bl	strtok_e
 248              	.LVL42:
 249 0058 0146     		mov	r1, r0
 250 005a A01D     		adds	r0, r4, #6
 251 005c FFF7FEFF 		bl	strcpy
 252              	.LVL43:
 253 0060 10BD     		pop	{r4, pc}
 254              	.L10:
 255 0062 00BF     		.align	2
 256              	.L9:
 257 0064 00000000 		.word	.LANCHOR0
 258              		.cfi_endproc
 259              	.LFE67:
 260              		.size	IpParsToTokens, .-IpParsToTokens
 261              		.section	.text.IpPars,"ax",%progbits
 262              		.align	2
 263              		.global	IpPars
 264              		.thumb
 265              		.thumb_func
 266              		.type	IpPars, %function
 267              	IpPars:
 268              	.LFB68:
  56:IPSET.c       **** }
  57:IPSET.c       **** void IpPars(uint8* sentence){
 269              		.loc 1 57 0
 270              		.cfi_startproc
 271              		@ args = 0, pretend = 0, frame = 0
 272              		@ frame_needed = 0, uses_anonymous_args = 0
 273              	.LVL44:
 274 0000 38B5     		push	{r3, r4, r5, lr}
 275              		.cfi_def_cfa_offset 16
 276              		.cfi_offset 3, -16
 277              		.cfi_offset 4, -12
 278              		.cfi_offset 5, -8
 279              		.cfi_offset 14, -4
  58:IPSET.c       ****     IpParsToTokens(sentence);
 280              		.loc 1 58 0
 281 0002 FFF7FEFF 		bl	IpParsToTokens
 282              	.LVL45:
  59:IPSET.c       ****     IpParsTokenToAddr(IP_Complete.multicast, IP_Instance.multicast);
 283              		.loc 1 59 0
ARM GAS  C:\Users\EA527~1.IVA\AppData\Local\Temp\cckHwGRi.s 			page 7


 284 0006 0E4D     		ldr	r5, .L13
 285 0008 0E4C     		ldr	r4, .L13+4
 286 000a 05F10C01 		add	r1, r5, #12
 287 000e 2046     		mov	r0, r4
 288 0010 FFF7FEFF 		bl	IpParsTokenToAddr
 289              	.LVL46:
  60:IPSET.c       ****     IpParsTokenToAddr(IP_Complete.unicast, IP_Instance.unicast);
 290              		.loc 1 60 0
 291 0014 05F12001 		add	r1, r5, #32
 292 0018 201D     		adds	r0, r4, #4
 293 001a FFF7FEFF 		bl	IpParsTokenToAddr
 294              	.LVL47:
  61:IPSET.c       ****     IpParsTokenToMac(IP_Complete.mac, IP_Instance.mac);
 295              		.loc 1 61 0
 296 001e 05F13401 		add	r1, r5, #52
 297 0022 04F10800 		add	r0, r4, #8
 298 0026 FFF7FEFF 		bl	IpParsTokenToMac
 299              	.LVL48:
  62:IPSET.c       ****     IP_Complete.port = atoi(IP_Instance.port);
 300              		.loc 1 62 0
 301 002a A81D     		adds	r0, r5, #6
 302 002c FFF7FEFF 		bl	atoi
 303              	.LVL49:
 304 0030 24F8020C 		strh	r0, [r4, #-2]	@ movhi
  63:IPSET.c       ****     IP_Complete.chanel = atoi(IP_Instance.chanel);
 305              		.loc 1 63 0
 306 0034 2846     		mov	r0, r5
 307 0036 FFF7FEFF 		bl	atoi
 308              	.LVL50:
 309 003a 24F8040C 		strh	r0, [r4, #-4]	@ movhi
 310 003e 38BD     		pop	{r3, r4, r5, pc}
 311              	.L14:
 312              		.align	2
 313              	.L13:
 314 0040 00000000 		.word	.LANCHOR0
 315 0044 04000000 		.word	IP_Complete+4
 316              		.cfi_endproc
 317              	.LFE68:
 318              		.size	IpPars, .-IpPars
 319              		.comm	IP_Complete,18,4
 320              		.bss
 321              		.align	2
 322              		.set	.LANCHOR0,. + 0
 323              		.type	IP_Instance, %object
 324              		.size	IP_Instance, 72
 325              	IP_Instance:
 326 0000 00000000 		.space	72
 326      00000000 
 326      00000000 
 326      00000000 
 326      00000000 
 327              		.text
 328              	.Letext0:
 329              		.file 2 "c:\\program files (x86)\\cypress\\psoc creator\\4.2\\psoc creator\\import\\gnu\\arm\\5.4.
 330              		.file 3 "c:\\program files (x86)\\cypress\\psoc creator\\4.2\\psoc creator\\import\\gnu\\arm\\5.4.
 331              		.file 4 "Generated_Source\\PSoC5/cytypes.h"
 332              		.file 5 "./global.h"
ARM GAS  C:\Users\EA527~1.IVA\AppData\Local\Temp\cckHwGRi.s 			page 8


 333              		.file 6 "Generated_Source\\PSoC5/core_cm3.h"
 334              		.file 7 "./stdio_e.h"
 335              		.file 8 "c:\\program files (x86)\\cypress\\psoc creator\\4.2\\psoc creator\\import\\gnu\\arm\\5.4.
 336              		.file 9 "c:\\program files (x86)\\cypress\\psoc creator\\4.2\\psoc creator\\import\\gnu\\arm\\5.4.