ARM GAS  C:\Users\EA527~1.IVA\AppData\Local\Temp\ccU0wXHg.s 			page 1


   1              		.syntax unified
   2              		.cpu cortex-m3
   3              		.fpu softvfp
   4              		.eabi_attribute 20, 1
   5              		.eabi_attribute 21, 1
   6              		.eabi_attribute 23, 3
   7              		.eabi_attribute 24, 1
   8              		.eabi_attribute 25, 1
   9              		.eabi_attribute 26, 1
  10              		.eabi_attribute 30, 1
  11              		.eabi_attribute 34, 1
  12              		.eabi_attribute 18, 4
  13              		.thumb
  14              		.syntax unified
  15              		.file	"isr_DRDY.c"
  16              		.text
  17              	.Ltext0:
  18              		.cfi_sections	.debug_frame
  19              		.section	.text.isr_DRDY_SetVector,"ax",%progbits
  20              		.align	2
  21              		.global	isr_DRDY_SetVector
  22              		.thumb
  23              		.thumb_func
  24              		.type	isr_DRDY_SetVector, %function
  25              	isr_DRDY_SetVector:
  26              	.LFB4:
  27              		.file 1 "Generated_Source\\PSoC5\\isr_DRDY.c"
   1:Generated_Source\PSoC5/isr_DRDY.c **** /*******************************************************************************
   2:Generated_Source\PSoC5/isr_DRDY.c **** * File Name: isr_DRDY.c  
   3:Generated_Source\PSoC5/isr_DRDY.c **** * Version 1.70
   4:Generated_Source\PSoC5/isr_DRDY.c **** *
   5:Generated_Source\PSoC5/isr_DRDY.c **** *  Description:
   6:Generated_Source\PSoC5/isr_DRDY.c **** *   API for controlling the state of an interrupt.
   7:Generated_Source\PSoC5/isr_DRDY.c **** *
   8:Generated_Source\PSoC5/isr_DRDY.c **** *
   9:Generated_Source\PSoC5/isr_DRDY.c **** *  Note:
  10:Generated_Source\PSoC5/isr_DRDY.c **** *
  11:Generated_Source\PSoC5/isr_DRDY.c **** ********************************************************************************
  12:Generated_Source\PSoC5/isr_DRDY.c **** * Copyright 2008-2015, Cypress Semiconductor Corporation.  All rights reserved.
  13:Generated_Source\PSoC5/isr_DRDY.c **** * You may use this file only in accordance with the license, terms, conditions, 
  14:Generated_Source\PSoC5/isr_DRDY.c **** * disclaimers, and limitations in the end user license agreement accompanying 
  15:Generated_Source\PSoC5/isr_DRDY.c **** * the software package with which this file was provided.
  16:Generated_Source\PSoC5/isr_DRDY.c **** *******************************************************************************/
  17:Generated_Source\PSoC5/isr_DRDY.c **** 
  18:Generated_Source\PSoC5/isr_DRDY.c **** 
  19:Generated_Source\PSoC5/isr_DRDY.c **** #include <cydevice_trm.h>
  20:Generated_Source\PSoC5/isr_DRDY.c **** #include <CyLib.h>
  21:Generated_Source\PSoC5/isr_DRDY.c **** #include <isr_DRDY.h>
  22:Generated_Source\PSoC5/isr_DRDY.c **** #include "cyapicallbacks.h"
  23:Generated_Source\PSoC5/isr_DRDY.c **** 
  24:Generated_Source\PSoC5/isr_DRDY.c **** #if !defined(isr_DRDY__REMOVED) /* Check for removal by optimization */
  25:Generated_Source\PSoC5/isr_DRDY.c **** 
  26:Generated_Source\PSoC5/isr_DRDY.c **** /*******************************************************************************
  27:Generated_Source\PSoC5/isr_DRDY.c **** *  Place your includes, defines and code here 
  28:Generated_Source\PSoC5/isr_DRDY.c **** ********************************************************************************/
  29:Generated_Source\PSoC5/isr_DRDY.c **** /* `#START isr_DRDY_intc` */
  30:Generated_Source\PSoC5/isr_DRDY.c **** extern uint32 DRDY_flag;
ARM GAS  C:\Users\EA527~1.IVA\AppData\Local\Temp\ccU0wXHg.s 			page 2


  31:Generated_Source\PSoC5/isr_DRDY.c ****     
  32:Generated_Source\PSoC5/isr_DRDY.c **** /* `#END` */
  33:Generated_Source\PSoC5/isr_DRDY.c **** 
  34:Generated_Source\PSoC5/isr_DRDY.c **** #ifndef CYINT_IRQ_BASE
  35:Generated_Source\PSoC5/isr_DRDY.c **** #define CYINT_IRQ_BASE      16
  36:Generated_Source\PSoC5/isr_DRDY.c **** #endif /* CYINT_IRQ_BASE */
  37:Generated_Source\PSoC5/isr_DRDY.c **** #ifndef CYINT_VECT_TABLE
  38:Generated_Source\PSoC5/isr_DRDY.c **** #define CYINT_VECT_TABLE    ((cyisraddress **) CYREG_NVIC_VECT_OFFSET)
  39:Generated_Source\PSoC5/isr_DRDY.c **** #endif /* CYINT_VECT_TABLE */
  40:Generated_Source\PSoC5/isr_DRDY.c **** 
  41:Generated_Source\PSoC5/isr_DRDY.c **** /* Declared in startup, used to set unused interrupts to. */
  42:Generated_Source\PSoC5/isr_DRDY.c **** CY_ISR_PROTO(IntDefaultHandler);
  43:Generated_Source\PSoC5/isr_DRDY.c **** 
  44:Generated_Source\PSoC5/isr_DRDY.c **** 
  45:Generated_Source\PSoC5/isr_DRDY.c **** /*******************************************************************************
  46:Generated_Source\PSoC5/isr_DRDY.c **** * Function Name: isr_DRDY_Start
  47:Generated_Source\PSoC5/isr_DRDY.c **** ********************************************************************************
  48:Generated_Source\PSoC5/isr_DRDY.c **** *
  49:Generated_Source\PSoC5/isr_DRDY.c **** * Summary:
  50:Generated_Source\PSoC5/isr_DRDY.c **** *  Set up the interrupt and enable it. This function disables the interrupt, 
  51:Generated_Source\PSoC5/isr_DRDY.c **** *  sets the default interrupt vector, sets the priority from the value in the
  52:Generated_Source\PSoC5/isr_DRDY.c **** *  Design Wide Resources Interrupt Editor, then enables the interrupt to the 
  53:Generated_Source\PSoC5/isr_DRDY.c **** *  interrupt controller.
  54:Generated_Source\PSoC5/isr_DRDY.c **** *
  55:Generated_Source\PSoC5/isr_DRDY.c **** * Parameters:  
  56:Generated_Source\PSoC5/isr_DRDY.c **** *   None
  57:Generated_Source\PSoC5/isr_DRDY.c **** *
  58:Generated_Source\PSoC5/isr_DRDY.c **** * Return:
  59:Generated_Source\PSoC5/isr_DRDY.c **** *   None
  60:Generated_Source\PSoC5/isr_DRDY.c **** *
  61:Generated_Source\PSoC5/isr_DRDY.c **** *******************************************************************************/
  62:Generated_Source\PSoC5/isr_DRDY.c **** void isr_DRDY_Start(void)
  63:Generated_Source\PSoC5/isr_DRDY.c **** {
  64:Generated_Source\PSoC5/isr_DRDY.c ****     /* For all we know the interrupt is active. */
  65:Generated_Source\PSoC5/isr_DRDY.c ****     isr_DRDY_Disable();
  66:Generated_Source\PSoC5/isr_DRDY.c **** 
  67:Generated_Source\PSoC5/isr_DRDY.c ****     /* Set the ISR to point to the isr_DRDY Interrupt. */
  68:Generated_Source\PSoC5/isr_DRDY.c ****     isr_DRDY_SetVector(&isr_DRDY_Interrupt);
  69:Generated_Source\PSoC5/isr_DRDY.c **** 
  70:Generated_Source\PSoC5/isr_DRDY.c ****     /* Set the priority. */
  71:Generated_Source\PSoC5/isr_DRDY.c ****     isr_DRDY_SetPriority((uint8)isr_DRDY_INTC_PRIOR_NUMBER);
  72:Generated_Source\PSoC5/isr_DRDY.c **** 
  73:Generated_Source\PSoC5/isr_DRDY.c ****     /* Enable it. */
  74:Generated_Source\PSoC5/isr_DRDY.c ****     isr_DRDY_Enable();
  75:Generated_Source\PSoC5/isr_DRDY.c **** }
  76:Generated_Source\PSoC5/isr_DRDY.c **** 
  77:Generated_Source\PSoC5/isr_DRDY.c **** 
  78:Generated_Source\PSoC5/isr_DRDY.c **** /*******************************************************************************
  79:Generated_Source\PSoC5/isr_DRDY.c **** * Function Name: isr_DRDY_StartEx
  80:Generated_Source\PSoC5/isr_DRDY.c **** ********************************************************************************
  81:Generated_Source\PSoC5/isr_DRDY.c **** *
  82:Generated_Source\PSoC5/isr_DRDY.c **** * Summary:
  83:Generated_Source\PSoC5/isr_DRDY.c **** *  Sets up the interrupt and enables it. This function disables the interrupt,
  84:Generated_Source\PSoC5/isr_DRDY.c **** *  sets the interrupt vector based on the address passed in, sets the priority 
  85:Generated_Source\PSoC5/isr_DRDY.c **** *  from the value in the Design Wide Resources Interrupt Editor, then enables 
  86:Generated_Source\PSoC5/isr_DRDY.c **** *  the interrupt to the interrupt controller.
  87:Generated_Source\PSoC5/isr_DRDY.c **** *  
ARM GAS  C:\Users\EA527~1.IVA\AppData\Local\Temp\ccU0wXHg.s 			page 3


  88:Generated_Source\PSoC5/isr_DRDY.c **** *  When defining ISR functions, the CY_ISR and CY_ISR_PROTO macros should be 
  89:Generated_Source\PSoC5/isr_DRDY.c **** *  used to provide consistent definition across compilers:
  90:Generated_Source\PSoC5/isr_DRDY.c **** *  
  91:Generated_Source\PSoC5/isr_DRDY.c **** *  Function definition example:
  92:Generated_Source\PSoC5/isr_DRDY.c **** *   CY_ISR(MyISR)
  93:Generated_Source\PSoC5/isr_DRDY.c **** *   {
  94:Generated_Source\PSoC5/isr_DRDY.c **** *   }
  95:Generated_Source\PSoC5/isr_DRDY.c **** *   Function prototype example:
  96:Generated_Source\PSoC5/isr_DRDY.c **** *   CY_ISR_PROTO(MyISR);
  97:Generated_Source\PSoC5/isr_DRDY.c **** *
  98:Generated_Source\PSoC5/isr_DRDY.c **** * Parameters:  
  99:Generated_Source\PSoC5/isr_DRDY.c **** *   address: Address of the ISR to set in the interrupt vector table.
 100:Generated_Source\PSoC5/isr_DRDY.c **** *
 101:Generated_Source\PSoC5/isr_DRDY.c **** * Return:
 102:Generated_Source\PSoC5/isr_DRDY.c **** *   None
 103:Generated_Source\PSoC5/isr_DRDY.c **** *
 104:Generated_Source\PSoC5/isr_DRDY.c **** *******************************************************************************/
 105:Generated_Source\PSoC5/isr_DRDY.c **** void isr_DRDY_StartEx(cyisraddress address)
 106:Generated_Source\PSoC5/isr_DRDY.c **** {
 107:Generated_Source\PSoC5/isr_DRDY.c ****     /* For all we know the interrupt is active. */
 108:Generated_Source\PSoC5/isr_DRDY.c ****     isr_DRDY_Disable();
 109:Generated_Source\PSoC5/isr_DRDY.c **** 
 110:Generated_Source\PSoC5/isr_DRDY.c ****     /* Set the ISR to point to the isr_DRDY Interrupt. */
 111:Generated_Source\PSoC5/isr_DRDY.c ****     isr_DRDY_SetVector(address);
 112:Generated_Source\PSoC5/isr_DRDY.c **** 
 113:Generated_Source\PSoC5/isr_DRDY.c ****     /* Set the priority. */
 114:Generated_Source\PSoC5/isr_DRDY.c ****     isr_DRDY_SetPriority((uint8)isr_DRDY_INTC_PRIOR_NUMBER);
 115:Generated_Source\PSoC5/isr_DRDY.c **** 
 116:Generated_Source\PSoC5/isr_DRDY.c ****     /* Enable it. */
 117:Generated_Source\PSoC5/isr_DRDY.c ****     isr_DRDY_Enable();
 118:Generated_Source\PSoC5/isr_DRDY.c **** }
 119:Generated_Source\PSoC5/isr_DRDY.c **** 
 120:Generated_Source\PSoC5/isr_DRDY.c **** 
 121:Generated_Source\PSoC5/isr_DRDY.c **** /*******************************************************************************
 122:Generated_Source\PSoC5/isr_DRDY.c **** * Function Name: isr_DRDY_Stop
 123:Generated_Source\PSoC5/isr_DRDY.c **** ********************************************************************************
 124:Generated_Source\PSoC5/isr_DRDY.c **** *
 125:Generated_Source\PSoC5/isr_DRDY.c **** * Summary:
 126:Generated_Source\PSoC5/isr_DRDY.c **** *   Disables and removes the interrupt.
 127:Generated_Source\PSoC5/isr_DRDY.c **** *
 128:Generated_Source\PSoC5/isr_DRDY.c **** * Parameters:  
 129:Generated_Source\PSoC5/isr_DRDY.c **** *   None
 130:Generated_Source\PSoC5/isr_DRDY.c **** *
 131:Generated_Source\PSoC5/isr_DRDY.c **** * Return:
 132:Generated_Source\PSoC5/isr_DRDY.c **** *   None
 133:Generated_Source\PSoC5/isr_DRDY.c **** *
 134:Generated_Source\PSoC5/isr_DRDY.c **** *******************************************************************************/
 135:Generated_Source\PSoC5/isr_DRDY.c **** void isr_DRDY_Stop(void)
 136:Generated_Source\PSoC5/isr_DRDY.c **** {
 137:Generated_Source\PSoC5/isr_DRDY.c ****     /* Disable this interrupt. */
 138:Generated_Source\PSoC5/isr_DRDY.c ****     isr_DRDY_Disable();
 139:Generated_Source\PSoC5/isr_DRDY.c **** 
 140:Generated_Source\PSoC5/isr_DRDY.c ****     /* Set the ISR to point to the passive one. */
 141:Generated_Source\PSoC5/isr_DRDY.c ****     isr_DRDY_SetVector(&IntDefaultHandler);
 142:Generated_Source\PSoC5/isr_DRDY.c **** }
 143:Generated_Source\PSoC5/isr_DRDY.c **** 
 144:Generated_Source\PSoC5/isr_DRDY.c **** 
ARM GAS  C:\Users\EA527~1.IVA\AppData\Local\Temp\ccU0wXHg.s 			page 4


 145:Generated_Source\PSoC5/isr_DRDY.c **** /*******************************************************************************
 146:Generated_Source\PSoC5/isr_DRDY.c **** * Function Name: isr_DRDY_Interrupt
 147:Generated_Source\PSoC5/isr_DRDY.c **** ********************************************************************************
 148:Generated_Source\PSoC5/isr_DRDY.c **** *
 149:Generated_Source\PSoC5/isr_DRDY.c **** * Summary:
 150:Generated_Source\PSoC5/isr_DRDY.c **** *   The default Interrupt Service Routine for isr_DRDY.
 151:Generated_Source\PSoC5/isr_DRDY.c **** *
 152:Generated_Source\PSoC5/isr_DRDY.c **** *   Add custom code between the coments to keep the next version of this file
 153:Generated_Source\PSoC5/isr_DRDY.c **** *   from over writting your code.
 154:Generated_Source\PSoC5/isr_DRDY.c **** *
 155:Generated_Source\PSoC5/isr_DRDY.c **** * Parameters:  
 156:Generated_Source\PSoC5/isr_DRDY.c **** *
 157:Generated_Source\PSoC5/isr_DRDY.c **** * Return:
 158:Generated_Source\PSoC5/isr_DRDY.c **** *   None
 159:Generated_Source\PSoC5/isr_DRDY.c **** *
 160:Generated_Source\PSoC5/isr_DRDY.c **** *******************************************************************************/
 161:Generated_Source\PSoC5/isr_DRDY.c **** CY_ISR(isr_DRDY_Interrupt)
 162:Generated_Source\PSoC5/isr_DRDY.c **** {
 163:Generated_Source\PSoC5/isr_DRDY.c ****     #ifdef isr_DRDY_INTERRUPT_INTERRUPT_CALLBACK
 164:Generated_Source\PSoC5/isr_DRDY.c ****         isr_DRDY_Interrupt_InterruptCallback();
 165:Generated_Source\PSoC5/isr_DRDY.c ****     #endif /* isr_DRDY_INTERRUPT_INTERRUPT_CALLBACK */ 
 166:Generated_Source\PSoC5/isr_DRDY.c **** 
 167:Generated_Source\PSoC5/isr_DRDY.c ****     /*  Place your Interrupt code here. */
 168:Generated_Source\PSoC5/isr_DRDY.c ****     /* `#START isr_DRDY_Interrupt` */
 169:Generated_Source\PSoC5/isr_DRDY.c ****     DRDY_flag=1;    
 170:Generated_Source\PSoC5/isr_DRDY.c ****     isr_DRDY_ClearPending();
 171:Generated_Source\PSoC5/isr_DRDY.c ****     /* `#END` */
 172:Generated_Source\PSoC5/isr_DRDY.c **** }
 173:Generated_Source\PSoC5/isr_DRDY.c **** 
 174:Generated_Source\PSoC5/isr_DRDY.c **** 
 175:Generated_Source\PSoC5/isr_DRDY.c **** /*******************************************************************************
 176:Generated_Source\PSoC5/isr_DRDY.c **** * Function Name: isr_DRDY_SetVector
 177:Generated_Source\PSoC5/isr_DRDY.c **** ********************************************************************************
 178:Generated_Source\PSoC5/isr_DRDY.c **** *
 179:Generated_Source\PSoC5/isr_DRDY.c **** * Summary:
 180:Generated_Source\PSoC5/isr_DRDY.c **** *   Change the ISR vector for the Interrupt. Note calling isr_DRDY_Start
 181:Generated_Source\PSoC5/isr_DRDY.c **** *   will override any effect this method would have had. To set the vector 
 182:Generated_Source\PSoC5/isr_DRDY.c **** *   before the component has been started use isr_DRDY_StartEx instead.
 183:Generated_Source\PSoC5/isr_DRDY.c **** * 
 184:Generated_Source\PSoC5/isr_DRDY.c **** *   When defining ISR functions, the CY_ISR and CY_ISR_PROTO macros should be 
 185:Generated_Source\PSoC5/isr_DRDY.c **** *   used to provide consistent definition across compilers:
 186:Generated_Source\PSoC5/isr_DRDY.c **** *
 187:Generated_Source\PSoC5/isr_DRDY.c **** *   Function definition example:
 188:Generated_Source\PSoC5/isr_DRDY.c **** *   CY_ISR(MyISR)
 189:Generated_Source\PSoC5/isr_DRDY.c **** *   {
 190:Generated_Source\PSoC5/isr_DRDY.c **** *   }
 191:Generated_Source\PSoC5/isr_DRDY.c **** *
 192:Generated_Source\PSoC5/isr_DRDY.c **** *   Function prototype example:
 193:Generated_Source\PSoC5/isr_DRDY.c **** *     CY_ISR_PROTO(MyISR);
 194:Generated_Source\PSoC5/isr_DRDY.c **** *
 195:Generated_Source\PSoC5/isr_DRDY.c **** * Parameters:
 196:Generated_Source\PSoC5/isr_DRDY.c **** *   address: Address of the ISR to set in the interrupt vector table.
 197:Generated_Source\PSoC5/isr_DRDY.c **** *
 198:Generated_Source\PSoC5/isr_DRDY.c **** * Return:
 199:Generated_Source\PSoC5/isr_DRDY.c **** *   None
 200:Generated_Source\PSoC5/isr_DRDY.c **** *
 201:Generated_Source\PSoC5/isr_DRDY.c **** *******************************************************************************/
ARM GAS  C:\Users\EA527~1.IVA\AppData\Local\Temp\ccU0wXHg.s 			page 5


 202:Generated_Source\PSoC5/isr_DRDY.c **** void isr_DRDY_SetVector(cyisraddress address)
 203:Generated_Source\PSoC5/isr_DRDY.c **** {
  28              		.loc 1 203 0
  29              		.cfi_startproc
  30              		@ args = 0, pretend = 0, frame = 0
  31              		@ frame_needed = 0, uses_anonymous_args = 0
  32              		@ link register save eliminated.
  33              	.LVL0:
 204:Generated_Source\PSoC5/isr_DRDY.c ****     cyisraddress * ramVectorTable;
 205:Generated_Source\PSoC5/isr_DRDY.c **** 
 206:Generated_Source\PSoC5/isr_DRDY.c ****     ramVectorTable = (cyisraddress *) *CYINT_VECT_TABLE;
  34              		.loc 1 206 0
  35 0000 014B     		ldr	r3, .L2
  36 0002 1B68     		ldr	r3, [r3]
  37              	.LVL1:
 207:Generated_Source\PSoC5/isr_DRDY.c **** 
 208:Generated_Source\PSoC5/isr_DRDY.c ****     ramVectorTable[CYINT_IRQ_BASE + (uint32)isr_DRDY__INTC_NUMBER] = address;
  38              		.loc 1 208 0
  39 0004 5865     		str	r0, [r3, #84]
  40 0006 7047     		bx	lr
  41              	.L3:
  42              		.align	2
  43              	.L2:
  44 0008 08ED00E0 		.word	-536810232
  45              		.cfi_endproc
  46              	.LFE4:
  47              		.size	isr_DRDY_SetVector, .-isr_DRDY_SetVector
  48              		.section	.text.isr_DRDY_GetVector,"ax",%progbits
  49              		.align	2
  50              		.global	isr_DRDY_GetVector
  51              		.thumb
  52              		.thumb_func
  53              		.type	isr_DRDY_GetVector, %function
  54              	isr_DRDY_GetVector:
  55              	.LFB5:
 209:Generated_Source\PSoC5/isr_DRDY.c **** }
 210:Generated_Source\PSoC5/isr_DRDY.c **** 
 211:Generated_Source\PSoC5/isr_DRDY.c **** 
 212:Generated_Source\PSoC5/isr_DRDY.c **** /*******************************************************************************
 213:Generated_Source\PSoC5/isr_DRDY.c **** * Function Name: isr_DRDY_GetVector
 214:Generated_Source\PSoC5/isr_DRDY.c **** ********************************************************************************
 215:Generated_Source\PSoC5/isr_DRDY.c **** *
 216:Generated_Source\PSoC5/isr_DRDY.c **** * Summary:
 217:Generated_Source\PSoC5/isr_DRDY.c **** *   Gets the "address" of the current ISR vector for the Interrupt.
 218:Generated_Source\PSoC5/isr_DRDY.c **** *
 219:Generated_Source\PSoC5/isr_DRDY.c **** * Parameters:
 220:Generated_Source\PSoC5/isr_DRDY.c **** *   None
 221:Generated_Source\PSoC5/isr_DRDY.c **** *
 222:Generated_Source\PSoC5/isr_DRDY.c **** * Return:
 223:Generated_Source\PSoC5/isr_DRDY.c **** *   Address of the ISR in the interrupt vector table.
 224:Generated_Source\PSoC5/isr_DRDY.c **** *
 225:Generated_Source\PSoC5/isr_DRDY.c **** *******************************************************************************/
 226:Generated_Source\PSoC5/isr_DRDY.c **** cyisraddress isr_DRDY_GetVector(void)
 227:Generated_Source\PSoC5/isr_DRDY.c **** {
  56              		.loc 1 227 0
  57              		.cfi_startproc
  58              		@ args = 0, pretend = 0, frame = 0
ARM GAS  C:\Users\EA527~1.IVA\AppData\Local\Temp\ccU0wXHg.s 			page 6


  59              		@ frame_needed = 0, uses_anonymous_args = 0
  60              		@ link register save eliminated.
 228:Generated_Source\PSoC5/isr_DRDY.c ****     cyisraddress * ramVectorTable;
 229:Generated_Source\PSoC5/isr_DRDY.c **** 
 230:Generated_Source\PSoC5/isr_DRDY.c ****     ramVectorTable = (cyisraddress *) *CYINT_VECT_TABLE;
  61              		.loc 1 230 0
  62 0000 014B     		ldr	r3, .L5
  63 0002 1B68     		ldr	r3, [r3]
  64              	.LVL2:
 231:Generated_Source\PSoC5/isr_DRDY.c **** 
 232:Generated_Source\PSoC5/isr_DRDY.c ****     return ramVectorTable[CYINT_IRQ_BASE + (uint32)isr_DRDY__INTC_NUMBER];
 233:Generated_Source\PSoC5/isr_DRDY.c **** }
  65              		.loc 1 233 0
  66 0004 586D     		ldr	r0, [r3, #84]
  67 0006 7047     		bx	lr
  68              	.L6:
  69              		.align	2
  70              	.L5:
  71 0008 08ED00E0 		.word	-536810232
  72              		.cfi_endproc
  73              	.LFE5:
  74              		.size	isr_DRDY_GetVector, .-isr_DRDY_GetVector
  75              		.section	.text.isr_DRDY_SetPriority,"ax",%progbits
  76              		.align	2
  77              		.global	isr_DRDY_SetPriority
  78              		.thumb
  79              		.thumb_func
  80              		.type	isr_DRDY_SetPriority, %function
  81              	isr_DRDY_SetPriority:
  82              	.LFB6:
 234:Generated_Source\PSoC5/isr_DRDY.c **** 
 235:Generated_Source\PSoC5/isr_DRDY.c **** 
 236:Generated_Source\PSoC5/isr_DRDY.c **** /*******************************************************************************
 237:Generated_Source\PSoC5/isr_DRDY.c **** * Function Name: isr_DRDY_SetPriority
 238:Generated_Source\PSoC5/isr_DRDY.c **** ********************************************************************************
 239:Generated_Source\PSoC5/isr_DRDY.c **** *
 240:Generated_Source\PSoC5/isr_DRDY.c **** * Summary:
 241:Generated_Source\PSoC5/isr_DRDY.c **** *   Sets the Priority of the Interrupt. 
 242:Generated_Source\PSoC5/isr_DRDY.c **** *
 243:Generated_Source\PSoC5/isr_DRDY.c **** *   Note calling isr_DRDY_Start or isr_DRDY_StartEx will 
 244:Generated_Source\PSoC5/isr_DRDY.c **** *   override any effect this API would have had. This API should only be called
 245:Generated_Source\PSoC5/isr_DRDY.c **** *   after isr_DRDY_Start or isr_DRDY_StartEx has been called. 
 246:Generated_Source\PSoC5/isr_DRDY.c **** *   To set the initial priority for the component, use the Design-Wide Resources
 247:Generated_Source\PSoC5/isr_DRDY.c **** *   Interrupt Editor.
 248:Generated_Source\PSoC5/isr_DRDY.c **** *
 249:Generated_Source\PSoC5/isr_DRDY.c **** *   Note This API has no effect on Non-maskable interrupt NMI).
 250:Generated_Source\PSoC5/isr_DRDY.c **** *
 251:Generated_Source\PSoC5/isr_DRDY.c **** * Parameters:
 252:Generated_Source\PSoC5/isr_DRDY.c **** *   priority: Priority of the interrupt, 0 being the highest priority
 253:Generated_Source\PSoC5/isr_DRDY.c **** *             PSoC 3 and PSoC 5LP: Priority is from 0 to 7.
 254:Generated_Source\PSoC5/isr_DRDY.c **** *             PSoC 4: Priority is from 0 to 3.
 255:Generated_Source\PSoC5/isr_DRDY.c **** *
 256:Generated_Source\PSoC5/isr_DRDY.c **** * Return:
 257:Generated_Source\PSoC5/isr_DRDY.c **** *   None
 258:Generated_Source\PSoC5/isr_DRDY.c **** *
 259:Generated_Source\PSoC5/isr_DRDY.c **** *******************************************************************************/
 260:Generated_Source\PSoC5/isr_DRDY.c **** void isr_DRDY_SetPriority(uint8 priority)
ARM GAS  C:\Users\EA527~1.IVA\AppData\Local\Temp\ccU0wXHg.s 			page 7


 261:Generated_Source\PSoC5/isr_DRDY.c **** {
  83              		.loc 1 261 0
  84              		.cfi_startproc
  85              		@ args = 0, pretend = 0, frame = 0
  86              		@ frame_needed = 0, uses_anonymous_args = 0
  87              		@ link register save eliminated.
  88              	.LVL3:
 262:Generated_Source\PSoC5/isr_DRDY.c ****     *isr_DRDY_INTC_PRIOR = priority << 5;
  89              		.loc 1 262 0
  90 0000 4001     		lsls	r0, r0, #5
  91              	.LVL4:
  92 0002 C0B2     		uxtb	r0, r0
  93 0004 014B     		ldr	r3, .L8
  94 0006 1870     		strb	r0, [r3]
  95 0008 7047     		bx	lr
  96              	.L9:
  97 000a 00BF     		.align	2
  98              	.L8:
  99 000c 05E400E0 		.word	-536812539
 100              		.cfi_endproc
 101              	.LFE6:
 102              		.size	isr_DRDY_SetPriority, .-isr_DRDY_SetPriority
 103              		.section	.text.isr_DRDY_GetPriority,"ax",%progbits
 104              		.align	2
 105              		.global	isr_DRDY_GetPriority
 106              		.thumb
 107              		.thumb_func
 108              		.type	isr_DRDY_GetPriority, %function
 109              	isr_DRDY_GetPriority:
 110              	.LFB7:
 263:Generated_Source\PSoC5/isr_DRDY.c **** }
 264:Generated_Source\PSoC5/isr_DRDY.c **** 
 265:Generated_Source\PSoC5/isr_DRDY.c **** 
 266:Generated_Source\PSoC5/isr_DRDY.c **** /*******************************************************************************
 267:Generated_Source\PSoC5/isr_DRDY.c **** * Function Name: isr_DRDY_GetPriority
 268:Generated_Source\PSoC5/isr_DRDY.c **** ********************************************************************************
 269:Generated_Source\PSoC5/isr_DRDY.c **** *
 270:Generated_Source\PSoC5/isr_DRDY.c **** * Summary:
 271:Generated_Source\PSoC5/isr_DRDY.c **** *   Gets the Priority of the Interrupt.
 272:Generated_Source\PSoC5/isr_DRDY.c **** *
 273:Generated_Source\PSoC5/isr_DRDY.c **** * Parameters:
 274:Generated_Source\PSoC5/isr_DRDY.c **** *   None
 275:Generated_Source\PSoC5/isr_DRDY.c **** *
 276:Generated_Source\PSoC5/isr_DRDY.c **** * Return:
 277:Generated_Source\PSoC5/isr_DRDY.c **** *   Priority of the interrupt, 0 being the highest priority
 278:Generated_Source\PSoC5/isr_DRDY.c **** *    PSoC 3 and PSoC 5LP: Priority is from 0 to 7.
 279:Generated_Source\PSoC5/isr_DRDY.c **** *    PSoC 4: Priority is from 0 to 3.
 280:Generated_Source\PSoC5/isr_DRDY.c **** *
 281:Generated_Source\PSoC5/isr_DRDY.c **** *******************************************************************************/
 282:Generated_Source\PSoC5/isr_DRDY.c **** uint8 isr_DRDY_GetPriority(void)
 283:Generated_Source\PSoC5/isr_DRDY.c **** {
 111              		.loc 1 283 0
 112              		.cfi_startproc
 113              		@ args = 0, pretend = 0, frame = 0
 114              		@ frame_needed = 0, uses_anonymous_args = 0
 115              		@ link register save eliminated.
 284:Generated_Source\PSoC5/isr_DRDY.c ****     uint8 priority;
ARM GAS  C:\Users\EA527~1.IVA\AppData\Local\Temp\ccU0wXHg.s 			page 8


 285:Generated_Source\PSoC5/isr_DRDY.c **** 
 286:Generated_Source\PSoC5/isr_DRDY.c **** 
 287:Generated_Source\PSoC5/isr_DRDY.c ****     priority = *isr_DRDY_INTC_PRIOR >> 5;
 116              		.loc 1 287 0
 117 0000 014B     		ldr	r3, .L11
 118 0002 1878     		ldrb	r0, [r3]	@ zero_extendqisi2
 119              	.LVL5:
 288:Generated_Source\PSoC5/isr_DRDY.c **** 
 289:Generated_Source\PSoC5/isr_DRDY.c ****     return priority;
 290:Generated_Source\PSoC5/isr_DRDY.c **** }
 120              		.loc 1 290 0
 121 0004 4009     		lsrs	r0, r0, #5
 122              	.LVL6:
 123 0006 7047     		bx	lr
 124              	.L12:
 125              		.align	2
 126              	.L11:
 127 0008 05E400E0 		.word	-536812539
 128              		.cfi_endproc
 129              	.LFE7:
 130              		.size	isr_DRDY_GetPriority, .-isr_DRDY_GetPriority
 131              		.section	.text.isr_DRDY_Enable,"ax",%progbits
 132              		.align	2
 133              		.global	isr_DRDY_Enable
 134              		.thumb
 135              		.thumb_func
 136              		.type	isr_DRDY_Enable, %function
 137              	isr_DRDY_Enable:
 138              	.LFB8:
 291:Generated_Source\PSoC5/isr_DRDY.c **** 
 292:Generated_Source\PSoC5/isr_DRDY.c **** 
 293:Generated_Source\PSoC5/isr_DRDY.c **** /*******************************************************************************
 294:Generated_Source\PSoC5/isr_DRDY.c **** * Function Name: isr_DRDY_Enable
 295:Generated_Source\PSoC5/isr_DRDY.c **** ********************************************************************************
 296:Generated_Source\PSoC5/isr_DRDY.c **** *
 297:Generated_Source\PSoC5/isr_DRDY.c **** * Summary:
 298:Generated_Source\PSoC5/isr_DRDY.c **** *   Enables the interrupt to the interrupt controller. Do not call this function
 299:Generated_Source\PSoC5/isr_DRDY.c **** *   unless ISR_Start() has been called or the functionality of the ISR_Start() 
 300:Generated_Source\PSoC5/isr_DRDY.c **** *   function, which sets the vector and the priority, has been called.
 301:Generated_Source\PSoC5/isr_DRDY.c **** *
 302:Generated_Source\PSoC5/isr_DRDY.c **** * Parameters:
 303:Generated_Source\PSoC5/isr_DRDY.c **** *   None
 304:Generated_Source\PSoC5/isr_DRDY.c **** *
 305:Generated_Source\PSoC5/isr_DRDY.c **** * Return:
 306:Generated_Source\PSoC5/isr_DRDY.c **** *   None
 307:Generated_Source\PSoC5/isr_DRDY.c **** *
 308:Generated_Source\PSoC5/isr_DRDY.c **** *******************************************************************************/
 309:Generated_Source\PSoC5/isr_DRDY.c **** void isr_DRDY_Enable(void)
 310:Generated_Source\PSoC5/isr_DRDY.c **** {
 139              		.loc 1 310 0
 140              		.cfi_startproc
 141              		@ args = 0, pretend = 0, frame = 0
 142              		@ frame_needed = 0, uses_anonymous_args = 0
 143              		@ link register save eliminated.
 311:Generated_Source\PSoC5/isr_DRDY.c ****     /* Enable the general interrupt. */
 312:Generated_Source\PSoC5/isr_DRDY.c ****     *isr_DRDY_INTC_SET_EN = isr_DRDY__INTC_MASK;
 144              		.loc 1 312 0
ARM GAS  C:\Users\EA527~1.IVA\AppData\Local\Temp\ccU0wXHg.s 			page 9


 145 0000 2022     		movs	r2, #32
 146 0002 014B     		ldr	r3, .L14
 147 0004 1A60     		str	r2, [r3]
 148 0006 7047     		bx	lr
 149              	.L15:
 150              		.align	2
 151              	.L14:
 152 0008 00E100E0 		.word	-536813312
 153              		.cfi_endproc
 154              	.LFE8:
 155              		.size	isr_DRDY_Enable, .-isr_DRDY_Enable
 156              		.section	.text.isr_DRDY_GetState,"ax",%progbits
 157              		.align	2
 158              		.global	isr_DRDY_GetState
 159              		.thumb
 160              		.thumb_func
 161              		.type	isr_DRDY_GetState, %function
 162              	isr_DRDY_GetState:
 163              	.LFB9:
 313:Generated_Source\PSoC5/isr_DRDY.c **** }
 314:Generated_Source\PSoC5/isr_DRDY.c **** 
 315:Generated_Source\PSoC5/isr_DRDY.c **** 
 316:Generated_Source\PSoC5/isr_DRDY.c **** /*******************************************************************************
 317:Generated_Source\PSoC5/isr_DRDY.c **** * Function Name: isr_DRDY_GetState
 318:Generated_Source\PSoC5/isr_DRDY.c **** ********************************************************************************
 319:Generated_Source\PSoC5/isr_DRDY.c **** *
 320:Generated_Source\PSoC5/isr_DRDY.c **** * Summary:
 321:Generated_Source\PSoC5/isr_DRDY.c **** *   Gets the state (enabled, disabled) of the Interrupt.
 322:Generated_Source\PSoC5/isr_DRDY.c **** *
 323:Generated_Source\PSoC5/isr_DRDY.c **** * Parameters:
 324:Generated_Source\PSoC5/isr_DRDY.c **** *   None
 325:Generated_Source\PSoC5/isr_DRDY.c **** *
 326:Generated_Source\PSoC5/isr_DRDY.c **** * Return:
 327:Generated_Source\PSoC5/isr_DRDY.c **** *   1 if enabled, 0 if disabled.
 328:Generated_Source\PSoC5/isr_DRDY.c **** *
 329:Generated_Source\PSoC5/isr_DRDY.c **** *******************************************************************************/
 330:Generated_Source\PSoC5/isr_DRDY.c **** uint8 isr_DRDY_GetState(void)
 331:Generated_Source\PSoC5/isr_DRDY.c **** {
 164              		.loc 1 331 0
 165              		.cfi_startproc
 166              		@ args = 0, pretend = 0, frame = 0
 167              		@ frame_needed = 0, uses_anonymous_args = 0
 168              		@ link register save eliminated.
 332:Generated_Source\PSoC5/isr_DRDY.c ****     /* Get the state of the general interrupt. */
 333:Generated_Source\PSoC5/isr_DRDY.c ****     return ((*isr_DRDY_INTC_SET_EN & (uint32)isr_DRDY__INTC_MASK) != 0u) ? 1u:0u;
 169              		.loc 1 333 0
 170 0000 044B     		ldr	r3, .L19
 171 0002 1B68     		ldr	r3, [r3]
 172 0004 13F0200F 		tst	r3, #32
 173 0008 01D0     		beq	.L18
 174 000a 0120     		movs	r0, #1
 175 000c 7047     		bx	lr
 176              	.L18:
 177 000e 0020     		movs	r0, #0
 334:Generated_Source\PSoC5/isr_DRDY.c **** }
 178              		.loc 1 334 0
 179 0010 7047     		bx	lr
ARM GAS  C:\Users\EA527~1.IVA\AppData\Local\Temp\ccU0wXHg.s 			page 10


 180              	.L20:
 181 0012 00BF     		.align	2
 182              	.L19:
 183 0014 00E100E0 		.word	-536813312
 184              		.cfi_endproc
 185              	.LFE9:
 186              		.size	isr_DRDY_GetState, .-isr_DRDY_GetState
 187              		.section	.text.isr_DRDY_Disable,"ax",%progbits
 188              		.align	2
 189              		.global	isr_DRDY_Disable
 190              		.thumb
 191              		.thumb_func
 192              		.type	isr_DRDY_Disable, %function
 193              	isr_DRDY_Disable:
 194              	.LFB10:
 335:Generated_Source\PSoC5/isr_DRDY.c **** 
 336:Generated_Source\PSoC5/isr_DRDY.c **** 
 337:Generated_Source\PSoC5/isr_DRDY.c **** /*******************************************************************************
 338:Generated_Source\PSoC5/isr_DRDY.c **** * Function Name: isr_DRDY_Disable
 339:Generated_Source\PSoC5/isr_DRDY.c **** ********************************************************************************
 340:Generated_Source\PSoC5/isr_DRDY.c **** *
 341:Generated_Source\PSoC5/isr_DRDY.c **** * Summary:
 342:Generated_Source\PSoC5/isr_DRDY.c **** *   Disables the Interrupt in the interrupt controller.
 343:Generated_Source\PSoC5/isr_DRDY.c **** *
 344:Generated_Source\PSoC5/isr_DRDY.c **** * Parameters:
 345:Generated_Source\PSoC5/isr_DRDY.c **** *   None
 346:Generated_Source\PSoC5/isr_DRDY.c **** *
 347:Generated_Source\PSoC5/isr_DRDY.c **** * Return:
 348:Generated_Source\PSoC5/isr_DRDY.c **** *   None
 349:Generated_Source\PSoC5/isr_DRDY.c **** *
 350:Generated_Source\PSoC5/isr_DRDY.c **** *******************************************************************************/
 351:Generated_Source\PSoC5/isr_DRDY.c **** void isr_DRDY_Disable(void)
 352:Generated_Source\PSoC5/isr_DRDY.c **** {
 195              		.loc 1 352 0
 196              		.cfi_startproc
 197              		@ args = 0, pretend = 0, frame = 0
 198              		@ frame_needed = 0, uses_anonymous_args = 0
 199              		@ link register save eliminated.
 353:Generated_Source\PSoC5/isr_DRDY.c ****     /* Disable the general interrupt. */
 354:Generated_Source\PSoC5/isr_DRDY.c ****     *isr_DRDY_INTC_CLR_EN = isr_DRDY__INTC_MASK;
 200              		.loc 1 354 0
 201 0000 2022     		movs	r2, #32
 202 0002 014B     		ldr	r3, .L22
 203 0004 1A60     		str	r2, [r3]
 204 0006 7047     		bx	lr
 205              	.L23:
 206              		.align	2
 207              	.L22:
 208 0008 80E100E0 		.word	-536813184
 209              		.cfi_endproc
 210              	.LFE10:
 211              		.size	isr_DRDY_Disable, .-isr_DRDY_Disable
 212              		.section	.text.isr_DRDY_Start,"ax",%progbits
 213              		.align	2
 214              		.global	isr_DRDY_Start
 215              		.thumb
 216              		.thumb_func
ARM GAS  C:\Users\EA527~1.IVA\AppData\Local\Temp\ccU0wXHg.s 			page 11


 217              		.type	isr_DRDY_Start, %function
 218              	isr_DRDY_Start:
 219              	.LFB0:
  63:Generated_Source\PSoC5/isr_DRDY.c ****     /* For all we know the interrupt is active. */
 220              		.loc 1 63 0
 221              		.cfi_startproc
 222              		@ args = 0, pretend = 0, frame = 0
 223              		@ frame_needed = 0, uses_anonymous_args = 0
 224 0000 08B5     		push	{r3, lr}
 225              		.cfi_def_cfa_offset 8
 226              		.cfi_offset 3, -8
 227              		.cfi_offset 14, -4
  65:Generated_Source\PSoC5/isr_DRDY.c **** 
 228              		.loc 1 65 0
 229 0002 FFF7FEFF 		bl	isr_DRDY_Disable
 230              	.LVL7:
  68:Generated_Source\PSoC5/isr_DRDY.c **** 
 231              		.loc 1 68 0
 232 0006 0448     		ldr	r0, .L26
 233 0008 FFF7FEFF 		bl	isr_DRDY_SetVector
 234              	.LVL8:
  71:Generated_Source\PSoC5/isr_DRDY.c **** 
 235              		.loc 1 71 0
 236 000c 0720     		movs	r0, #7
 237 000e FFF7FEFF 		bl	isr_DRDY_SetPriority
 238              	.LVL9:
  74:Generated_Source\PSoC5/isr_DRDY.c **** }
 239              		.loc 1 74 0
 240 0012 FFF7FEFF 		bl	isr_DRDY_Enable
 241              	.LVL10:
 242 0016 08BD     		pop	{r3, pc}
 243              	.L27:
 244              		.align	2
 245              	.L26:
 246 0018 00000000 		.word	isr_DRDY_Interrupt
 247              		.cfi_endproc
 248              	.LFE0:
 249              		.size	isr_DRDY_Start, .-isr_DRDY_Start
 250              		.section	.text.isr_DRDY_StartEx,"ax",%progbits
 251              		.align	2
 252              		.global	isr_DRDY_StartEx
 253              		.thumb
 254              		.thumb_func
 255              		.type	isr_DRDY_StartEx, %function
 256              	isr_DRDY_StartEx:
 257              	.LFB1:
 106:Generated_Source\PSoC5/isr_DRDY.c ****     /* For all we know the interrupt is active. */
 258              		.loc 1 106 0
 259              		.cfi_startproc
 260              		@ args = 0, pretend = 0, frame = 0
 261              		@ frame_needed = 0, uses_anonymous_args = 0
 262              	.LVL11:
 263 0000 10B5     		push	{r4, lr}
 264              		.cfi_def_cfa_offset 8
 265              		.cfi_offset 4, -8
 266              		.cfi_offset 14, -4
 267 0002 0446     		mov	r4, r0
ARM GAS  C:\Users\EA527~1.IVA\AppData\Local\Temp\ccU0wXHg.s 			page 12


 108:Generated_Source\PSoC5/isr_DRDY.c **** 
 268              		.loc 1 108 0
 269 0004 FFF7FEFF 		bl	isr_DRDY_Disable
 270              	.LVL12:
 111:Generated_Source\PSoC5/isr_DRDY.c **** 
 271              		.loc 1 111 0
 272 0008 2046     		mov	r0, r4
 273 000a FFF7FEFF 		bl	isr_DRDY_SetVector
 274              	.LVL13:
 114:Generated_Source\PSoC5/isr_DRDY.c **** 
 275              		.loc 1 114 0
 276 000e 0720     		movs	r0, #7
 277 0010 FFF7FEFF 		bl	isr_DRDY_SetPriority
 278              	.LVL14:
 117:Generated_Source\PSoC5/isr_DRDY.c **** }
 279              		.loc 1 117 0
 280 0014 FFF7FEFF 		bl	isr_DRDY_Enable
 281              	.LVL15:
 282 0018 10BD     		pop	{r4, pc}
 283              		.cfi_endproc
 284              	.LFE1:
 285              		.size	isr_DRDY_StartEx, .-isr_DRDY_StartEx
 286 001a 00BF     		.section	.text.isr_DRDY_Stop,"ax",%progbits
 287              		.align	2
 288              		.global	isr_DRDY_Stop
 289              		.thumb
 290              		.thumb_func
 291              		.type	isr_DRDY_Stop, %function
 292              	isr_DRDY_Stop:
 293              	.LFB2:
 136:Generated_Source\PSoC5/isr_DRDY.c ****     /* Disable this interrupt. */
 294              		.loc 1 136 0
 295              		.cfi_startproc
 296              		@ args = 0, pretend = 0, frame = 0
 297              		@ frame_needed = 0, uses_anonymous_args = 0
 298 0000 08B5     		push	{r3, lr}
 299              		.cfi_def_cfa_offset 8
 300              		.cfi_offset 3, -8
 301              		.cfi_offset 14, -4
 138:Generated_Source\PSoC5/isr_DRDY.c **** 
 302              		.loc 1 138 0
 303 0002 FFF7FEFF 		bl	isr_DRDY_Disable
 304              	.LVL16:
 141:Generated_Source\PSoC5/isr_DRDY.c **** }
 305              		.loc 1 141 0
 306 0006 0248     		ldr	r0, .L32
 307 0008 FFF7FEFF 		bl	isr_DRDY_SetVector
 308              	.LVL17:
 309 000c 08BD     		pop	{r3, pc}
 310              	.L33:
 311 000e 00BF     		.align	2
 312              	.L32:
 313 0010 00000000 		.word	IntDefaultHandler
 314              		.cfi_endproc
 315              	.LFE2:
 316              		.size	isr_DRDY_Stop, .-isr_DRDY_Stop
 317              		.section	.text.isr_DRDY_SetPending,"ax",%progbits
ARM GAS  C:\Users\EA527~1.IVA\AppData\Local\Temp\ccU0wXHg.s 			page 13


 318              		.align	2
 319              		.global	isr_DRDY_SetPending
 320              		.thumb
 321              		.thumb_func
 322              		.type	isr_DRDY_SetPending, %function
 323              	isr_DRDY_SetPending:
 324              	.LFB11:
 355:Generated_Source\PSoC5/isr_DRDY.c **** }
 356:Generated_Source\PSoC5/isr_DRDY.c **** 
 357:Generated_Source\PSoC5/isr_DRDY.c **** 
 358:Generated_Source\PSoC5/isr_DRDY.c **** /*******************************************************************************
 359:Generated_Source\PSoC5/isr_DRDY.c **** * Function Name: isr_DRDY_SetPending
 360:Generated_Source\PSoC5/isr_DRDY.c **** ********************************************************************************
 361:Generated_Source\PSoC5/isr_DRDY.c **** *
 362:Generated_Source\PSoC5/isr_DRDY.c **** * Summary:
 363:Generated_Source\PSoC5/isr_DRDY.c **** *   Causes the Interrupt to enter the pending state, a software method of
 364:Generated_Source\PSoC5/isr_DRDY.c **** *   generating the interrupt.
 365:Generated_Source\PSoC5/isr_DRDY.c **** *
 366:Generated_Source\PSoC5/isr_DRDY.c **** * Parameters:
 367:Generated_Source\PSoC5/isr_DRDY.c **** *   None
 368:Generated_Source\PSoC5/isr_DRDY.c **** *
 369:Generated_Source\PSoC5/isr_DRDY.c **** * Return:
 370:Generated_Source\PSoC5/isr_DRDY.c **** *   None
 371:Generated_Source\PSoC5/isr_DRDY.c **** *
 372:Generated_Source\PSoC5/isr_DRDY.c **** * Side Effects:
 373:Generated_Source\PSoC5/isr_DRDY.c **** *   If interrupts are enabled and the interrupt is set up properly, the ISR is
 374:Generated_Source\PSoC5/isr_DRDY.c **** *   entered (depending on the priority of this interrupt and other pending 
 375:Generated_Source\PSoC5/isr_DRDY.c **** *   interrupts).
 376:Generated_Source\PSoC5/isr_DRDY.c **** *
 377:Generated_Source\PSoC5/isr_DRDY.c **** *******************************************************************************/
 378:Generated_Source\PSoC5/isr_DRDY.c **** void isr_DRDY_SetPending(void)
 379:Generated_Source\PSoC5/isr_DRDY.c **** {
 325              		.loc 1 379 0
 326              		.cfi_startproc
 327              		@ args = 0, pretend = 0, frame = 0
 328              		@ frame_needed = 0, uses_anonymous_args = 0
 329              		@ link register save eliminated.
 380:Generated_Source\PSoC5/isr_DRDY.c ****     *isr_DRDY_INTC_SET_PD = isr_DRDY__INTC_MASK;
 330              		.loc 1 380 0
 331 0000 2022     		movs	r2, #32
 332 0002 014B     		ldr	r3, .L35
 333 0004 1A60     		str	r2, [r3]
 334 0006 7047     		bx	lr
 335              	.L36:
 336              		.align	2
 337              	.L35:
 338 0008 00E200E0 		.word	-536813056
 339              		.cfi_endproc
 340              	.LFE11:
 341              		.size	isr_DRDY_SetPending, .-isr_DRDY_SetPending
 342              		.section	.text.isr_DRDY_ClearPending,"ax",%progbits
 343              		.align	2
 344              		.global	isr_DRDY_ClearPending
 345              		.thumb
 346              		.thumb_func
 347              		.type	isr_DRDY_ClearPending, %function
 348              	isr_DRDY_ClearPending:
ARM GAS  C:\Users\EA527~1.IVA\AppData\Local\Temp\ccU0wXHg.s 			page 14


 349              	.LFB12:
 381:Generated_Source\PSoC5/isr_DRDY.c **** }
 382:Generated_Source\PSoC5/isr_DRDY.c **** 
 383:Generated_Source\PSoC5/isr_DRDY.c **** 
 384:Generated_Source\PSoC5/isr_DRDY.c **** /*******************************************************************************
 385:Generated_Source\PSoC5/isr_DRDY.c **** * Function Name: isr_DRDY_ClearPending
 386:Generated_Source\PSoC5/isr_DRDY.c **** ********************************************************************************
 387:Generated_Source\PSoC5/isr_DRDY.c **** *
 388:Generated_Source\PSoC5/isr_DRDY.c **** * Summary:
 389:Generated_Source\PSoC5/isr_DRDY.c **** *   Clears a pending interrupt in the interrupt controller.
 390:Generated_Source\PSoC5/isr_DRDY.c **** *
 391:Generated_Source\PSoC5/isr_DRDY.c **** *   Note Some interrupt sources are clear-on-read and require the block 
 392:Generated_Source\PSoC5/isr_DRDY.c **** *   interrupt/status register to be read/cleared with the appropriate block API 
 393:Generated_Source\PSoC5/isr_DRDY.c **** *   (GPIO, UART, and so on). Otherwise the ISR will continue to remain in 
 394:Generated_Source\PSoC5/isr_DRDY.c **** *   pending state even though the interrupt itself is cleared using this API.
 395:Generated_Source\PSoC5/isr_DRDY.c **** *
 396:Generated_Source\PSoC5/isr_DRDY.c **** * Parameters:
 397:Generated_Source\PSoC5/isr_DRDY.c **** *   None
 398:Generated_Source\PSoC5/isr_DRDY.c **** *
 399:Generated_Source\PSoC5/isr_DRDY.c **** * Return:
 400:Generated_Source\PSoC5/isr_DRDY.c **** *   None
 401:Generated_Source\PSoC5/isr_DRDY.c **** *
 402:Generated_Source\PSoC5/isr_DRDY.c **** *******************************************************************************/
 403:Generated_Source\PSoC5/isr_DRDY.c **** void isr_DRDY_ClearPending(void)
 404:Generated_Source\PSoC5/isr_DRDY.c **** {
 350              		.loc 1 404 0
 351              		.cfi_startproc
 352              		@ args = 0, pretend = 0, frame = 0
 353              		@ frame_needed = 0, uses_anonymous_args = 0
 354              		@ link register save eliminated.
 405:Generated_Source\PSoC5/isr_DRDY.c ****     *isr_DRDY_INTC_CLR_PD = isr_DRDY__INTC_MASK;
 355              		.loc 1 405 0
 356 0000 2022     		movs	r2, #32
 357 0002 014B     		ldr	r3, .L38
 358 0004 1A60     		str	r2, [r3]
 359 0006 7047     		bx	lr
 360              	.L39:
 361              		.align	2
 362              	.L38:
 363 0008 80E200E0 		.word	-536812928
 364              		.cfi_endproc
 365              	.LFE12:
 366              		.size	isr_DRDY_ClearPending, .-isr_DRDY_ClearPending
 367              		.section	.text.isr_DRDY_Interrupt,"ax",%progbits
 368              		.align	2
 369              		.global	isr_DRDY_Interrupt
 370              		.thumb
 371              		.thumb_func
 372              		.type	isr_DRDY_Interrupt, %function
 373              	isr_DRDY_Interrupt:
 374              	.LFB3:
 162:Generated_Source\PSoC5/isr_DRDY.c ****     #ifdef isr_DRDY_INTERRUPT_INTERRUPT_CALLBACK
 375              		.loc 1 162 0
 376              		.cfi_startproc
 377              		@ args = 0, pretend = 0, frame = 0
 378              		@ frame_needed = 0, uses_anonymous_args = 0
 379 0000 08B5     		push	{r3, lr}
ARM GAS  C:\Users\EA527~1.IVA\AppData\Local\Temp\ccU0wXHg.s 			page 15


 380              		.cfi_def_cfa_offset 8
 381              		.cfi_offset 3, -8
 382              		.cfi_offset 14, -4
 169:Generated_Source\PSoC5/isr_DRDY.c ****     isr_DRDY_ClearPending();
 383              		.loc 1 169 0
 384 0002 0122     		movs	r2, #1
 385 0004 024B     		ldr	r3, .L42
 386 0006 1A60     		str	r2, [r3]
 170:Generated_Source\PSoC5/isr_DRDY.c ****     /* `#END` */
 387              		.loc 1 170 0
 388 0008 FFF7FEFF 		bl	isr_DRDY_ClearPending
 389              	.LVL18:
 390 000c 08BD     		pop	{r3, pc}
 391              	.L43:
 392 000e 00BF     		.align	2
 393              	.L42:
 394 0010 00000000 		.word	DRDY_flag
 395              		.cfi_endproc
 396              	.LFE3:
 397              		.size	isr_DRDY_Interrupt, .-isr_DRDY_Interrupt
 398              		.text
 399              	.Letext0:
 400              		.file 2 "Generated_Source\\PSoC5/cytypes.h"