ARM GAS  C:\Users\EA527~1.IVA\AppData\Local\Temp\ccTVonqv.s 			page 1


   1              		.syntax unified
   2              		.cpu cortex-m3
   3              		.fpu softvfp
   4              		.eabi_attribute 20, 1
   5              		.eabi_attribute 21, 1
   6              		.eabi_attribute 23, 3
   7              		.eabi_attribute 24, 1
   8              		.eabi_attribute 25, 1
   9              		.eabi_attribute 26, 1
  10              		.eabi_attribute 30, 1
  11              		.eabi_attribute 34, 1
  12              		.eabi_attribute 18, 4
  13              		.thumb
  14              		.syntax unified
  15              		.file	"isr_Load_TrShReg.c"
  16              		.text
  17              	.Ltext0:
  18              		.cfi_sections	.debug_frame
  19              		.section	.text.isr_Load_TrShReg_SetVector,"ax",%progbits
  20              		.align	2
  21              		.global	isr_Load_TrShReg_SetVector
  22              		.thumb
  23              		.thumb_func
  24              		.type	isr_Load_TrShReg_SetVector, %function
  25              	isr_Load_TrShReg_SetVector:
  26              	.LFB67:
  27              		.file 1 "Generated_Source\\PSoC5\\isr_Load_TrShReg.c"
   1:Generated_Source\PSoC5/isr_Load_TrShReg.c **** /*******************************************************************************
   2:Generated_Source\PSoC5/isr_Load_TrShReg.c **** * File Name: isr_Load_TrShReg.c  
   3:Generated_Source\PSoC5/isr_Load_TrShReg.c **** * Version 1.70
   4:Generated_Source\PSoC5/isr_Load_TrShReg.c **** *
   5:Generated_Source\PSoC5/isr_Load_TrShReg.c **** *  Description:
   6:Generated_Source\PSoC5/isr_Load_TrShReg.c **** *   API for controlling the state of an interrupt.
   7:Generated_Source\PSoC5/isr_Load_TrShReg.c **** *
   8:Generated_Source\PSoC5/isr_Load_TrShReg.c **** *
   9:Generated_Source\PSoC5/isr_Load_TrShReg.c **** *  Note:
  10:Generated_Source\PSoC5/isr_Load_TrShReg.c **** *
  11:Generated_Source\PSoC5/isr_Load_TrShReg.c **** ********************************************************************************
  12:Generated_Source\PSoC5/isr_Load_TrShReg.c **** * Copyright 2008-2015, Cypress Semiconductor Corporation.  All rights reserved.
  13:Generated_Source\PSoC5/isr_Load_TrShReg.c **** * You may use this file only in accordance with the license, terms, conditions, 
  14:Generated_Source\PSoC5/isr_Load_TrShReg.c **** * disclaimers, and limitations in the end user license agreement accompanying 
  15:Generated_Source\PSoC5/isr_Load_TrShReg.c **** * the software package with which this file was provided.
  16:Generated_Source\PSoC5/isr_Load_TrShReg.c **** *******************************************************************************/
  17:Generated_Source\PSoC5/isr_Load_TrShReg.c **** 
  18:Generated_Source\PSoC5/isr_Load_TrShReg.c **** 
  19:Generated_Source\PSoC5/isr_Load_TrShReg.c **** #include <cydevice_trm.h>
  20:Generated_Source\PSoC5/isr_Load_TrShReg.c **** #include <CyLib.h>
  21:Generated_Source\PSoC5/isr_Load_TrShReg.c **** #include <isr_Load_TrShReg.h>
  22:Generated_Source\PSoC5/isr_Load_TrShReg.c **** #include "cyapicallbacks.h"
  23:Generated_Source\PSoC5/isr_Load_TrShReg.c **** 
  24:Generated_Source\PSoC5/isr_Load_TrShReg.c **** #if !defined(isr_Load_TrShReg__REMOVED) /* Check for removal by optimization */
  25:Generated_Source\PSoC5/isr_Load_TrShReg.c **** 
  26:Generated_Source\PSoC5/isr_Load_TrShReg.c **** /*******************************************************************************
  27:Generated_Source\PSoC5/isr_Load_TrShReg.c **** *  Place your includes, defines and code here 
  28:Generated_Source\PSoC5/isr_Load_TrShReg.c **** ********************************************************************************/
  29:Generated_Source\PSoC5/isr_Load_TrShReg.c **** /* `#START isr_Load_TrShReg_intc` */
  30:Generated_Source\PSoC5/isr_Load_TrShReg.c **** #include <TransmitShiftReg.h>
ARM GAS  C:\Users\EA527~1.IVA\AppData\Local\Temp\ccTVonqv.s 			page 2


  31:Generated_Source\PSoC5/isr_Load_TrShReg.c **** #include <StartTransmit.h>
  32:Generated_Source\PSoC5/isr_Load_TrShReg.c **** #include <sender.h>    
  33:Generated_Source\PSoC5/isr_Load_TrShReg.c **** #include <BitCounterEnc.h>
  34:Generated_Source\PSoC5/isr_Load_TrShReg.c **** #include <TransmitWordShift.h>
  35:Generated_Source\PSoC5/isr_Load_TrShReg.c **** #include <FrameAllow.h>
  36:Generated_Source\PSoC5/isr_Load_TrShReg.c **** #include <FirstLoad.h>
  37:Generated_Source\PSoC5/isr_Load_TrShReg.c **** /* `#END` */
  38:Generated_Source\PSoC5/isr_Load_TrShReg.c **** 
  39:Generated_Source\PSoC5/isr_Load_TrShReg.c **** #ifndef CYINT_IRQ_BASE
  40:Generated_Source\PSoC5/isr_Load_TrShReg.c **** #define CYINT_IRQ_BASE      16
  41:Generated_Source\PSoC5/isr_Load_TrShReg.c **** #endif /* CYINT_IRQ_BASE */
  42:Generated_Source\PSoC5/isr_Load_TrShReg.c **** #ifndef CYINT_VECT_TABLE
  43:Generated_Source\PSoC5/isr_Load_TrShReg.c **** #define CYINT_VECT_TABLE    ((cyisraddress **) CYREG_NVIC_VECT_OFFSET)
  44:Generated_Source\PSoC5/isr_Load_TrShReg.c **** #endif /* CYINT_VECT_TABLE */
  45:Generated_Source\PSoC5/isr_Load_TrShReg.c **** 
  46:Generated_Source\PSoC5/isr_Load_TrShReg.c **** /* Declared in startup, used to set unused interrupts to. */
  47:Generated_Source\PSoC5/isr_Load_TrShReg.c **** CY_ISR_PROTO(IntDefaultHandler);
  48:Generated_Source\PSoC5/isr_Load_TrShReg.c **** 
  49:Generated_Source\PSoC5/isr_Load_TrShReg.c **** 
  50:Generated_Source\PSoC5/isr_Load_TrShReg.c **** /*******************************************************************************
  51:Generated_Source\PSoC5/isr_Load_TrShReg.c **** * Function Name: isr_Load_TrShReg_Start
  52:Generated_Source\PSoC5/isr_Load_TrShReg.c **** ********************************************************************************
  53:Generated_Source\PSoC5/isr_Load_TrShReg.c **** *
  54:Generated_Source\PSoC5/isr_Load_TrShReg.c **** * Summary:
  55:Generated_Source\PSoC5/isr_Load_TrShReg.c **** *  Set up the interrupt and enable it. This function disables the interrupt, 
  56:Generated_Source\PSoC5/isr_Load_TrShReg.c **** *  sets the default interrupt vector, sets the priority from the value in the
  57:Generated_Source\PSoC5/isr_Load_TrShReg.c **** *  Design Wide Resources Interrupt Editor, then enables the interrupt to the 
  58:Generated_Source\PSoC5/isr_Load_TrShReg.c **** *  interrupt controller.
  59:Generated_Source\PSoC5/isr_Load_TrShReg.c **** *
  60:Generated_Source\PSoC5/isr_Load_TrShReg.c **** * Parameters:  
  61:Generated_Source\PSoC5/isr_Load_TrShReg.c **** *   None
  62:Generated_Source\PSoC5/isr_Load_TrShReg.c **** *
  63:Generated_Source\PSoC5/isr_Load_TrShReg.c **** * Return:
  64:Generated_Source\PSoC5/isr_Load_TrShReg.c **** *   None
  65:Generated_Source\PSoC5/isr_Load_TrShReg.c **** *
  66:Generated_Source\PSoC5/isr_Load_TrShReg.c **** *******************************************************************************/
  67:Generated_Source\PSoC5/isr_Load_TrShReg.c **** void isr_Load_TrShReg_Start(void)
  68:Generated_Source\PSoC5/isr_Load_TrShReg.c **** {
  69:Generated_Source\PSoC5/isr_Load_TrShReg.c ****     /* For all we know the interrupt is active. */
  70:Generated_Source\PSoC5/isr_Load_TrShReg.c ****     isr_Load_TrShReg_Disable();
  71:Generated_Source\PSoC5/isr_Load_TrShReg.c **** 
  72:Generated_Source\PSoC5/isr_Load_TrShReg.c ****     /* Set the ISR to point to the isr_Load_TrShReg Interrupt. */
  73:Generated_Source\PSoC5/isr_Load_TrShReg.c ****     isr_Load_TrShReg_SetVector(&isr_Load_TrShReg_Interrupt);
  74:Generated_Source\PSoC5/isr_Load_TrShReg.c **** 
  75:Generated_Source\PSoC5/isr_Load_TrShReg.c ****     /* Set the priority. */
  76:Generated_Source\PSoC5/isr_Load_TrShReg.c ****     isr_Load_TrShReg_SetPriority((uint8)isr_Load_TrShReg_INTC_PRIOR_NUMBER);
  77:Generated_Source\PSoC5/isr_Load_TrShReg.c **** 
  78:Generated_Source\PSoC5/isr_Load_TrShReg.c ****     /* Enable it. */
  79:Generated_Source\PSoC5/isr_Load_TrShReg.c ****     isr_Load_TrShReg_Enable();
  80:Generated_Source\PSoC5/isr_Load_TrShReg.c **** }
  81:Generated_Source\PSoC5/isr_Load_TrShReg.c **** 
  82:Generated_Source\PSoC5/isr_Load_TrShReg.c **** 
  83:Generated_Source\PSoC5/isr_Load_TrShReg.c **** /*******************************************************************************
  84:Generated_Source\PSoC5/isr_Load_TrShReg.c **** * Function Name: isr_Load_TrShReg_StartEx
  85:Generated_Source\PSoC5/isr_Load_TrShReg.c **** ********************************************************************************
  86:Generated_Source\PSoC5/isr_Load_TrShReg.c **** *
  87:Generated_Source\PSoC5/isr_Load_TrShReg.c **** * Summary:
ARM GAS  C:\Users\EA527~1.IVA\AppData\Local\Temp\ccTVonqv.s 			page 3


  88:Generated_Source\PSoC5/isr_Load_TrShReg.c **** *  Sets up the interrupt and enables it. This function disables the interrupt,
  89:Generated_Source\PSoC5/isr_Load_TrShReg.c **** *  sets the interrupt vector based on the address passed in, sets the priority 
  90:Generated_Source\PSoC5/isr_Load_TrShReg.c **** *  from the value in the Design Wide Resources Interrupt Editor, then enables 
  91:Generated_Source\PSoC5/isr_Load_TrShReg.c **** *  the interrupt to the interrupt controller.
  92:Generated_Source\PSoC5/isr_Load_TrShReg.c **** *  
  93:Generated_Source\PSoC5/isr_Load_TrShReg.c **** *  When defining ISR functions, the CY_ISR and CY_ISR_PROTO macros should be 
  94:Generated_Source\PSoC5/isr_Load_TrShReg.c **** *  used to provide consistent definition across compilers:
  95:Generated_Source\PSoC5/isr_Load_TrShReg.c **** *  
  96:Generated_Source\PSoC5/isr_Load_TrShReg.c **** *  Function definition example:
  97:Generated_Source\PSoC5/isr_Load_TrShReg.c **** *   CY_ISR(MyISR)
  98:Generated_Source\PSoC5/isr_Load_TrShReg.c **** *   {
  99:Generated_Source\PSoC5/isr_Load_TrShReg.c **** *   }
 100:Generated_Source\PSoC5/isr_Load_TrShReg.c **** *   Function prototype example:
 101:Generated_Source\PSoC5/isr_Load_TrShReg.c **** *   CY_ISR_PROTO(MyISR);
 102:Generated_Source\PSoC5/isr_Load_TrShReg.c **** *
 103:Generated_Source\PSoC5/isr_Load_TrShReg.c **** * Parameters:  
 104:Generated_Source\PSoC5/isr_Load_TrShReg.c **** *   address: Address of the ISR to set in the interrupt vector table.
 105:Generated_Source\PSoC5/isr_Load_TrShReg.c **** *
 106:Generated_Source\PSoC5/isr_Load_TrShReg.c **** * Return:
 107:Generated_Source\PSoC5/isr_Load_TrShReg.c **** *   None
 108:Generated_Source\PSoC5/isr_Load_TrShReg.c **** *
 109:Generated_Source\PSoC5/isr_Load_TrShReg.c **** *******************************************************************************/
 110:Generated_Source\PSoC5/isr_Load_TrShReg.c **** void isr_Load_TrShReg_StartEx(cyisraddress address)
 111:Generated_Source\PSoC5/isr_Load_TrShReg.c **** {
 112:Generated_Source\PSoC5/isr_Load_TrShReg.c ****     /* For all we know the interrupt is active. */
 113:Generated_Source\PSoC5/isr_Load_TrShReg.c ****     isr_Load_TrShReg_Disable();
 114:Generated_Source\PSoC5/isr_Load_TrShReg.c **** 
 115:Generated_Source\PSoC5/isr_Load_TrShReg.c ****     /* Set the ISR to point to the isr_Load_TrShReg Interrupt. */
 116:Generated_Source\PSoC5/isr_Load_TrShReg.c ****     isr_Load_TrShReg_SetVector(address);
 117:Generated_Source\PSoC5/isr_Load_TrShReg.c **** 
 118:Generated_Source\PSoC5/isr_Load_TrShReg.c ****     /* Set the priority. */
 119:Generated_Source\PSoC5/isr_Load_TrShReg.c ****     isr_Load_TrShReg_SetPriority((uint8)isr_Load_TrShReg_INTC_PRIOR_NUMBER);
 120:Generated_Source\PSoC5/isr_Load_TrShReg.c **** 
 121:Generated_Source\PSoC5/isr_Load_TrShReg.c ****     /* Enable it. */
 122:Generated_Source\PSoC5/isr_Load_TrShReg.c ****     isr_Load_TrShReg_Enable();
 123:Generated_Source\PSoC5/isr_Load_TrShReg.c **** }
 124:Generated_Source\PSoC5/isr_Load_TrShReg.c **** 
 125:Generated_Source\PSoC5/isr_Load_TrShReg.c **** 
 126:Generated_Source\PSoC5/isr_Load_TrShReg.c **** /*******************************************************************************
 127:Generated_Source\PSoC5/isr_Load_TrShReg.c **** * Function Name: isr_Load_TrShReg_Stop
 128:Generated_Source\PSoC5/isr_Load_TrShReg.c **** ********************************************************************************
 129:Generated_Source\PSoC5/isr_Load_TrShReg.c **** *
 130:Generated_Source\PSoC5/isr_Load_TrShReg.c **** * Summary:
 131:Generated_Source\PSoC5/isr_Load_TrShReg.c **** *   Disables and removes the interrupt.
 132:Generated_Source\PSoC5/isr_Load_TrShReg.c **** *
 133:Generated_Source\PSoC5/isr_Load_TrShReg.c **** * Parameters:  
 134:Generated_Source\PSoC5/isr_Load_TrShReg.c **** *   None
 135:Generated_Source\PSoC5/isr_Load_TrShReg.c **** *
 136:Generated_Source\PSoC5/isr_Load_TrShReg.c **** * Return:
 137:Generated_Source\PSoC5/isr_Load_TrShReg.c **** *   None
 138:Generated_Source\PSoC5/isr_Load_TrShReg.c **** *
 139:Generated_Source\PSoC5/isr_Load_TrShReg.c **** *******************************************************************************/
 140:Generated_Source\PSoC5/isr_Load_TrShReg.c **** void isr_Load_TrShReg_Stop(void)
 141:Generated_Source\PSoC5/isr_Load_TrShReg.c **** {
 142:Generated_Source\PSoC5/isr_Load_TrShReg.c ****     /* Disable this interrupt. */
 143:Generated_Source\PSoC5/isr_Load_TrShReg.c ****     isr_Load_TrShReg_Disable();
 144:Generated_Source\PSoC5/isr_Load_TrShReg.c **** 
ARM GAS  C:\Users\EA527~1.IVA\AppData\Local\Temp\ccTVonqv.s 			page 4


 145:Generated_Source\PSoC5/isr_Load_TrShReg.c ****     /* Set the ISR to point to the passive one. */
 146:Generated_Source\PSoC5/isr_Load_TrShReg.c ****     isr_Load_TrShReg_SetVector(&IntDefaultHandler);
 147:Generated_Source\PSoC5/isr_Load_TrShReg.c **** }
 148:Generated_Source\PSoC5/isr_Load_TrShReg.c **** 
 149:Generated_Source\PSoC5/isr_Load_TrShReg.c **** 
 150:Generated_Source\PSoC5/isr_Load_TrShReg.c **** /*******************************************************************************
 151:Generated_Source\PSoC5/isr_Load_TrShReg.c **** * Function Name: isr_Load_TrShReg_Interrupt
 152:Generated_Source\PSoC5/isr_Load_TrShReg.c **** ********************************************************************************
 153:Generated_Source\PSoC5/isr_Load_TrShReg.c **** *
 154:Generated_Source\PSoC5/isr_Load_TrShReg.c **** * Summary:
 155:Generated_Source\PSoC5/isr_Load_TrShReg.c **** *   The default Interrupt Service Routine for isr_Load_TrShReg.
 156:Generated_Source\PSoC5/isr_Load_TrShReg.c **** *
 157:Generated_Source\PSoC5/isr_Load_TrShReg.c **** *   Add custom code between the coments to keep the next version of this file
 158:Generated_Source\PSoC5/isr_Load_TrShReg.c **** *   from over writting your code.
 159:Generated_Source\PSoC5/isr_Load_TrShReg.c **** *
 160:Generated_Source\PSoC5/isr_Load_TrShReg.c **** * Parameters:  
 161:Generated_Source\PSoC5/isr_Load_TrShReg.c **** *
 162:Generated_Source\PSoC5/isr_Load_TrShReg.c **** * Return:
 163:Generated_Source\PSoC5/isr_Load_TrShReg.c **** *   None
 164:Generated_Source\PSoC5/isr_Load_TrShReg.c **** *
 165:Generated_Source\PSoC5/isr_Load_TrShReg.c **** *******************************************************************************/
 166:Generated_Source\PSoC5/isr_Load_TrShReg.c **** CY_ISR(isr_Load_TrShReg_Interrupt)
 167:Generated_Source\PSoC5/isr_Load_TrShReg.c **** {
 168:Generated_Source\PSoC5/isr_Load_TrShReg.c ****     #ifdef isr_Load_TrShReg_INTERRUPT_INTERRUPT_CALLBACK
 169:Generated_Source\PSoC5/isr_Load_TrShReg.c ****         isr_Load_TrShReg_Interrupt_InterruptCallback();
 170:Generated_Source\PSoC5/isr_Load_TrShReg.c ****     #endif /* isr_Load_TrShReg_INTERRUPT_INTERRUPT_CALLBACK */ 
 171:Generated_Source\PSoC5/isr_Load_TrShReg.c **** 
 172:Generated_Source\PSoC5/isr_Load_TrShReg.c ****     /*  Place your Interrupt code here. */
 173:Generated_Source\PSoC5/isr_Load_TrShReg.c ****     /* `#START isr_Load_TrShReg_Interrupt` */
 174:Generated_Source\PSoC5/isr_Load_TrShReg.c ****     Load();
 175:Generated_Source\PSoC5/isr_Load_TrShReg.c ****     //SetNeedLoadFlag();
 176:Generated_Source\PSoC5/isr_Load_TrShReg.c **** 
 177:Generated_Source\PSoC5/isr_Load_TrShReg.c ****     *(char*)(&curStat)=TransmitShiftReg_SR_STATUS;
 178:Generated_Source\PSoC5/isr_Load_TrShReg.c **** //    if( TransmitShiftReg_RET_FIFO_EMPTY == TransmitShiftReg_GetFIFOStatus(TransmitShiftReg_IN_FIF
 179:Generated_Source\PSoC5/isr_Load_TrShReg.c ****     if(curStat.F0_not_empty != 0){
 180:Generated_Source\PSoC5/isr_Load_TrShReg.c ****         StartTransmit_Write(0);
 181:Generated_Source\PSoC5/isr_Load_TrShReg.c ****         BitCounterEnc_ReadStatusRegister( );
 182:Generated_Source\PSoC5/isr_Load_TrShReg.c ****         TransmitWordShift_ClearPending( );
 183:Generated_Source\PSoC5/isr_Load_TrShReg.c ****         TransmitWordShift_Enable( );
 184:Generated_Source\PSoC5/isr_Load_TrShReg.c ****     }
 185:Generated_Source\PSoC5/isr_Load_TrShReg.c ****     TransmitShiftReg_GetIntStatus();
 186:Generated_Source\PSoC5/isr_Load_TrShReg.c ****     isr_Load_TrShReg_ClearPending();
 187:Generated_Source\PSoC5/isr_Load_TrShReg.c ****     /* `#END` */
 188:Generated_Source\PSoC5/isr_Load_TrShReg.c **** }
 189:Generated_Source\PSoC5/isr_Load_TrShReg.c **** 
 190:Generated_Source\PSoC5/isr_Load_TrShReg.c **** 
 191:Generated_Source\PSoC5/isr_Load_TrShReg.c **** /*******************************************************************************
 192:Generated_Source\PSoC5/isr_Load_TrShReg.c **** * Function Name: isr_Load_TrShReg_SetVector
 193:Generated_Source\PSoC5/isr_Load_TrShReg.c **** ********************************************************************************
 194:Generated_Source\PSoC5/isr_Load_TrShReg.c **** *
 195:Generated_Source\PSoC5/isr_Load_TrShReg.c **** * Summary:
 196:Generated_Source\PSoC5/isr_Load_TrShReg.c **** *   Change the ISR vector for the Interrupt. Note calling isr_Load_TrShReg_Start
 197:Generated_Source\PSoC5/isr_Load_TrShReg.c **** *   will override any effect this method would have had. To set the vector 
 198:Generated_Source\PSoC5/isr_Load_TrShReg.c **** *   before the component has been started use isr_Load_TrShReg_StartEx instead.
 199:Generated_Source\PSoC5/isr_Load_TrShReg.c **** * 
 200:Generated_Source\PSoC5/isr_Load_TrShReg.c **** *   When defining ISR functions, the CY_ISR and CY_ISR_PROTO macros should be 
 201:Generated_Source\PSoC5/isr_Load_TrShReg.c **** *   used to provide consistent definition across compilers:
ARM GAS  C:\Users\EA527~1.IVA\AppData\Local\Temp\ccTVonqv.s 			page 5


 202:Generated_Source\PSoC5/isr_Load_TrShReg.c **** *
 203:Generated_Source\PSoC5/isr_Load_TrShReg.c **** *   Function definition example:
 204:Generated_Source\PSoC5/isr_Load_TrShReg.c **** *   CY_ISR(MyISR)
 205:Generated_Source\PSoC5/isr_Load_TrShReg.c **** *   {
 206:Generated_Source\PSoC5/isr_Load_TrShReg.c **** *   }
 207:Generated_Source\PSoC5/isr_Load_TrShReg.c **** *
 208:Generated_Source\PSoC5/isr_Load_TrShReg.c **** *   Function prototype example:
 209:Generated_Source\PSoC5/isr_Load_TrShReg.c **** *     CY_ISR_PROTO(MyISR);
 210:Generated_Source\PSoC5/isr_Load_TrShReg.c **** *
 211:Generated_Source\PSoC5/isr_Load_TrShReg.c **** * Parameters:
 212:Generated_Source\PSoC5/isr_Load_TrShReg.c **** *   address: Address of the ISR to set in the interrupt vector table.
 213:Generated_Source\PSoC5/isr_Load_TrShReg.c **** *
 214:Generated_Source\PSoC5/isr_Load_TrShReg.c **** * Return:
 215:Generated_Source\PSoC5/isr_Load_TrShReg.c **** *   None
 216:Generated_Source\PSoC5/isr_Load_TrShReg.c **** *
 217:Generated_Source\PSoC5/isr_Load_TrShReg.c **** *******************************************************************************/
 218:Generated_Source\PSoC5/isr_Load_TrShReg.c **** void isr_Load_TrShReg_SetVector(cyisraddress address)
 219:Generated_Source\PSoC5/isr_Load_TrShReg.c **** {
  28              		.loc 1 219 0
  29              		.cfi_startproc
  30              		@ args = 0, pretend = 0, frame = 0
  31              		@ frame_needed = 0, uses_anonymous_args = 0
  32              		@ link register save eliminated.
  33              	.LVL0:
 220:Generated_Source\PSoC5/isr_Load_TrShReg.c ****     cyisraddress * ramVectorTable;
 221:Generated_Source\PSoC5/isr_Load_TrShReg.c **** 
 222:Generated_Source\PSoC5/isr_Load_TrShReg.c ****     ramVectorTable = (cyisraddress *) *CYINT_VECT_TABLE;
  34              		.loc 1 222 0
  35 0000 014B     		ldr	r3, .L2
  36 0002 1B68     		ldr	r3, [r3]
  37              	.LVL1:
 223:Generated_Source\PSoC5/isr_Load_TrShReg.c **** 
 224:Generated_Source\PSoC5/isr_Load_TrShReg.c ****     ramVectorTable[CYINT_IRQ_BASE + (uint32)isr_Load_TrShReg__INTC_NUMBER] = address;
  38              		.loc 1 224 0
  39 0004 5864     		str	r0, [r3, #68]
  40 0006 7047     		bx	lr
  41              	.L3:
  42              		.align	2
  43              	.L2:
  44 0008 08ED00E0 		.word	-536810232
  45              		.cfi_endproc
  46              	.LFE67:
  47              		.size	isr_Load_TrShReg_SetVector, .-isr_Load_TrShReg_SetVector
  48              		.section	.text.isr_Load_TrShReg_GetVector,"ax",%progbits
  49              		.align	2
  50              		.global	isr_Load_TrShReg_GetVector
  51              		.thumb
  52              		.thumb_func
  53              		.type	isr_Load_TrShReg_GetVector, %function
  54              	isr_Load_TrShReg_GetVector:
  55              	.LFB68:
 225:Generated_Source\PSoC5/isr_Load_TrShReg.c **** }
 226:Generated_Source\PSoC5/isr_Load_TrShReg.c **** 
 227:Generated_Source\PSoC5/isr_Load_TrShReg.c **** 
 228:Generated_Source\PSoC5/isr_Load_TrShReg.c **** /*******************************************************************************
 229:Generated_Source\PSoC5/isr_Load_TrShReg.c **** * Function Name: isr_Load_TrShReg_GetVector
 230:Generated_Source\PSoC5/isr_Load_TrShReg.c **** ********************************************************************************
ARM GAS  C:\Users\EA527~1.IVA\AppData\Local\Temp\ccTVonqv.s 			page 6


 231:Generated_Source\PSoC5/isr_Load_TrShReg.c **** *
 232:Generated_Source\PSoC5/isr_Load_TrShReg.c **** * Summary:
 233:Generated_Source\PSoC5/isr_Load_TrShReg.c **** *   Gets the "address" of the current ISR vector for the Interrupt.
 234:Generated_Source\PSoC5/isr_Load_TrShReg.c **** *
 235:Generated_Source\PSoC5/isr_Load_TrShReg.c **** * Parameters:
 236:Generated_Source\PSoC5/isr_Load_TrShReg.c **** *   None
 237:Generated_Source\PSoC5/isr_Load_TrShReg.c **** *
 238:Generated_Source\PSoC5/isr_Load_TrShReg.c **** * Return:
 239:Generated_Source\PSoC5/isr_Load_TrShReg.c **** *   Address of the ISR in the interrupt vector table.
 240:Generated_Source\PSoC5/isr_Load_TrShReg.c **** *
 241:Generated_Source\PSoC5/isr_Load_TrShReg.c **** *******************************************************************************/
 242:Generated_Source\PSoC5/isr_Load_TrShReg.c **** cyisraddress isr_Load_TrShReg_GetVector(void)
 243:Generated_Source\PSoC5/isr_Load_TrShReg.c **** {
  56              		.loc 1 243 0
  57              		.cfi_startproc
  58              		@ args = 0, pretend = 0, frame = 0
  59              		@ frame_needed = 0, uses_anonymous_args = 0
  60              		@ link register save eliminated.
 244:Generated_Source\PSoC5/isr_Load_TrShReg.c ****     cyisraddress * ramVectorTable;
 245:Generated_Source\PSoC5/isr_Load_TrShReg.c **** 
 246:Generated_Source\PSoC5/isr_Load_TrShReg.c ****     ramVectorTable = (cyisraddress *) *CYINT_VECT_TABLE;
  61              		.loc 1 246 0
  62 0000 014B     		ldr	r3, .L5
  63 0002 1B68     		ldr	r3, [r3]
  64              	.LVL2:
 247:Generated_Source\PSoC5/isr_Load_TrShReg.c **** 
 248:Generated_Source\PSoC5/isr_Load_TrShReg.c ****     return ramVectorTable[CYINT_IRQ_BASE + (uint32)isr_Load_TrShReg__INTC_NUMBER];
 249:Generated_Source\PSoC5/isr_Load_TrShReg.c **** }
  65              		.loc 1 249 0
  66 0004 586C     		ldr	r0, [r3, #68]
  67 0006 7047     		bx	lr
  68              	.L6:
  69              		.align	2
  70              	.L5:
  71 0008 08ED00E0 		.word	-536810232
  72              		.cfi_endproc
  73              	.LFE68:
  74              		.size	isr_Load_TrShReg_GetVector, .-isr_Load_TrShReg_GetVector
  75              		.section	.text.isr_Load_TrShReg_SetPriority,"ax",%progbits
  76              		.align	2
  77              		.global	isr_Load_TrShReg_SetPriority
  78              		.thumb
  79              		.thumb_func
  80              		.type	isr_Load_TrShReg_SetPriority, %function
  81              	isr_Load_TrShReg_SetPriority:
  82              	.LFB69:
 250:Generated_Source\PSoC5/isr_Load_TrShReg.c **** 
 251:Generated_Source\PSoC5/isr_Load_TrShReg.c **** 
 252:Generated_Source\PSoC5/isr_Load_TrShReg.c **** /*******************************************************************************
 253:Generated_Source\PSoC5/isr_Load_TrShReg.c **** * Function Name: isr_Load_TrShReg_SetPriority
 254:Generated_Source\PSoC5/isr_Load_TrShReg.c **** ********************************************************************************
 255:Generated_Source\PSoC5/isr_Load_TrShReg.c **** *
 256:Generated_Source\PSoC5/isr_Load_TrShReg.c **** * Summary:
 257:Generated_Source\PSoC5/isr_Load_TrShReg.c **** *   Sets the Priority of the Interrupt. 
 258:Generated_Source\PSoC5/isr_Load_TrShReg.c **** *
 259:Generated_Source\PSoC5/isr_Load_TrShReg.c **** *   Note calling isr_Load_TrShReg_Start or isr_Load_TrShReg_StartEx will 
 260:Generated_Source\PSoC5/isr_Load_TrShReg.c **** *   override any effect this API would have had. This API should only be called
ARM GAS  C:\Users\EA527~1.IVA\AppData\Local\Temp\ccTVonqv.s 			page 7


 261:Generated_Source\PSoC5/isr_Load_TrShReg.c **** *   after isr_Load_TrShReg_Start or isr_Load_TrShReg_StartEx has been called. 
 262:Generated_Source\PSoC5/isr_Load_TrShReg.c **** *   To set the initial priority for the component, use the Design-Wide Resources
 263:Generated_Source\PSoC5/isr_Load_TrShReg.c **** *   Interrupt Editor.
 264:Generated_Source\PSoC5/isr_Load_TrShReg.c **** *
 265:Generated_Source\PSoC5/isr_Load_TrShReg.c **** *   Note This API has no effect on Non-maskable interrupt NMI).
 266:Generated_Source\PSoC5/isr_Load_TrShReg.c **** *
 267:Generated_Source\PSoC5/isr_Load_TrShReg.c **** * Parameters:
 268:Generated_Source\PSoC5/isr_Load_TrShReg.c **** *   priority: Priority of the interrupt, 0 being the highest priority
 269:Generated_Source\PSoC5/isr_Load_TrShReg.c **** *             PSoC 3 and PSoC 5LP: Priority is from 0 to 7.
 270:Generated_Source\PSoC5/isr_Load_TrShReg.c **** *             PSoC 4: Priority is from 0 to 3.
 271:Generated_Source\PSoC5/isr_Load_TrShReg.c **** *
 272:Generated_Source\PSoC5/isr_Load_TrShReg.c **** * Return:
 273:Generated_Source\PSoC5/isr_Load_TrShReg.c **** *   None
 274:Generated_Source\PSoC5/isr_Load_TrShReg.c **** *
 275:Generated_Source\PSoC5/isr_Load_TrShReg.c **** *******************************************************************************/
 276:Generated_Source\PSoC5/isr_Load_TrShReg.c **** void isr_Load_TrShReg_SetPriority(uint8 priority)
 277:Generated_Source\PSoC5/isr_Load_TrShReg.c **** {
  83              		.loc 1 277 0
  84              		.cfi_startproc
  85              		@ args = 0, pretend = 0, frame = 0
  86              		@ frame_needed = 0, uses_anonymous_args = 0
  87              		@ link register save eliminated.
  88              	.LVL3:
 278:Generated_Source\PSoC5/isr_Load_TrShReg.c ****     *isr_Load_TrShReg_INTC_PRIOR = priority << 5;
  89              		.loc 1 278 0
  90 0000 4001     		lsls	r0, r0, #5
  91              	.LVL4:
  92 0002 C0B2     		uxtb	r0, r0
  93 0004 014B     		ldr	r3, .L8
  94 0006 1870     		strb	r0, [r3]
  95 0008 7047     		bx	lr
  96              	.L9:
  97 000a 00BF     		.align	2
  98              	.L8:
  99 000c 01E400E0 		.word	-536812543
 100              		.cfi_endproc
 101              	.LFE69:
 102              		.size	isr_Load_TrShReg_SetPriority, .-isr_Load_TrShReg_SetPriority
 103              		.section	.text.isr_Load_TrShReg_GetPriority,"ax",%progbits
 104              		.align	2
 105              		.global	isr_Load_TrShReg_GetPriority
 106              		.thumb
 107              		.thumb_func
 108              		.type	isr_Load_TrShReg_GetPriority, %function
 109              	isr_Load_TrShReg_GetPriority:
 110              	.LFB70:
 279:Generated_Source\PSoC5/isr_Load_TrShReg.c **** }
 280:Generated_Source\PSoC5/isr_Load_TrShReg.c **** 
 281:Generated_Source\PSoC5/isr_Load_TrShReg.c **** 
 282:Generated_Source\PSoC5/isr_Load_TrShReg.c **** /*******************************************************************************
 283:Generated_Source\PSoC5/isr_Load_TrShReg.c **** * Function Name: isr_Load_TrShReg_GetPriority
 284:Generated_Source\PSoC5/isr_Load_TrShReg.c **** ********************************************************************************
 285:Generated_Source\PSoC5/isr_Load_TrShReg.c **** *
 286:Generated_Source\PSoC5/isr_Load_TrShReg.c **** * Summary:
 287:Generated_Source\PSoC5/isr_Load_TrShReg.c **** *   Gets the Priority of the Interrupt.
 288:Generated_Source\PSoC5/isr_Load_TrShReg.c **** *
 289:Generated_Source\PSoC5/isr_Load_TrShReg.c **** * Parameters:
ARM GAS  C:\Users\EA527~1.IVA\AppData\Local\Temp\ccTVonqv.s 			page 8


 290:Generated_Source\PSoC5/isr_Load_TrShReg.c **** *   None
 291:Generated_Source\PSoC5/isr_Load_TrShReg.c **** *
 292:Generated_Source\PSoC5/isr_Load_TrShReg.c **** * Return:
 293:Generated_Source\PSoC5/isr_Load_TrShReg.c **** *   Priority of the interrupt, 0 being the highest priority
 294:Generated_Source\PSoC5/isr_Load_TrShReg.c **** *    PSoC 3 and PSoC 5LP: Priority is from 0 to 7.
 295:Generated_Source\PSoC5/isr_Load_TrShReg.c **** *    PSoC 4: Priority is from 0 to 3.
 296:Generated_Source\PSoC5/isr_Load_TrShReg.c **** *
 297:Generated_Source\PSoC5/isr_Load_TrShReg.c **** *******************************************************************************/
 298:Generated_Source\PSoC5/isr_Load_TrShReg.c **** uint8 isr_Load_TrShReg_GetPriority(void)
 299:Generated_Source\PSoC5/isr_Load_TrShReg.c **** {
 111              		.loc 1 299 0
 112              		.cfi_startproc
 113              		@ args = 0, pretend = 0, frame = 0
 114              		@ frame_needed = 0, uses_anonymous_args = 0
 115              		@ link register save eliminated.
 300:Generated_Source\PSoC5/isr_Load_TrShReg.c ****     uint8 priority;
 301:Generated_Source\PSoC5/isr_Load_TrShReg.c **** 
 302:Generated_Source\PSoC5/isr_Load_TrShReg.c **** 
 303:Generated_Source\PSoC5/isr_Load_TrShReg.c ****     priority = *isr_Load_TrShReg_INTC_PRIOR >> 5;
 116              		.loc 1 303 0
 117 0000 014B     		ldr	r3, .L11
 118 0002 1878     		ldrb	r0, [r3]	@ zero_extendqisi2
 119              	.LVL5:
 304:Generated_Source\PSoC5/isr_Load_TrShReg.c **** 
 305:Generated_Source\PSoC5/isr_Load_TrShReg.c ****     return priority;
 306:Generated_Source\PSoC5/isr_Load_TrShReg.c **** }
 120              		.loc 1 306 0
 121 0004 4009     		lsrs	r0, r0, #5
 122              	.LVL6:
 123 0006 7047     		bx	lr
 124              	.L12:
 125              		.align	2
 126              	.L11:
 127 0008 01E400E0 		.word	-536812543
 128              		.cfi_endproc
 129              	.LFE70:
 130              		.size	isr_Load_TrShReg_GetPriority, .-isr_Load_TrShReg_GetPriority
 131              		.section	.text.isr_Load_TrShReg_Enable,"ax",%progbits
 132              		.align	2
 133              		.global	isr_Load_TrShReg_Enable
 134              		.thumb
 135              		.thumb_func
 136              		.type	isr_Load_TrShReg_Enable, %function
 137              	isr_Load_TrShReg_Enable:
 138              	.LFB71:
 307:Generated_Source\PSoC5/isr_Load_TrShReg.c **** 
 308:Generated_Source\PSoC5/isr_Load_TrShReg.c **** 
 309:Generated_Source\PSoC5/isr_Load_TrShReg.c **** /*******************************************************************************
 310:Generated_Source\PSoC5/isr_Load_TrShReg.c **** * Function Name: isr_Load_TrShReg_Enable
 311:Generated_Source\PSoC5/isr_Load_TrShReg.c **** ********************************************************************************
 312:Generated_Source\PSoC5/isr_Load_TrShReg.c **** *
 313:Generated_Source\PSoC5/isr_Load_TrShReg.c **** * Summary:
 314:Generated_Source\PSoC5/isr_Load_TrShReg.c **** *   Enables the interrupt to the interrupt controller. Do not call this function
 315:Generated_Source\PSoC5/isr_Load_TrShReg.c **** *   unless ISR_Start() has been called or the functionality of the ISR_Start() 
 316:Generated_Source\PSoC5/isr_Load_TrShReg.c **** *   function, which sets the vector and the priority, has been called.
 317:Generated_Source\PSoC5/isr_Load_TrShReg.c **** *
 318:Generated_Source\PSoC5/isr_Load_TrShReg.c **** * Parameters:
ARM GAS  C:\Users\EA527~1.IVA\AppData\Local\Temp\ccTVonqv.s 			page 9


 319:Generated_Source\PSoC5/isr_Load_TrShReg.c **** *   None
 320:Generated_Source\PSoC5/isr_Load_TrShReg.c **** *
 321:Generated_Source\PSoC5/isr_Load_TrShReg.c **** * Return:
 322:Generated_Source\PSoC5/isr_Load_TrShReg.c **** *   None
 323:Generated_Source\PSoC5/isr_Load_TrShReg.c **** *
 324:Generated_Source\PSoC5/isr_Load_TrShReg.c **** *******************************************************************************/
 325:Generated_Source\PSoC5/isr_Load_TrShReg.c **** void isr_Load_TrShReg_Enable(void)
 326:Generated_Source\PSoC5/isr_Load_TrShReg.c **** {
 139              		.loc 1 326 0
 140              		.cfi_startproc
 141              		@ args = 0, pretend = 0, frame = 0
 142              		@ frame_needed = 0, uses_anonymous_args = 0
 143              		@ link register save eliminated.
 327:Generated_Source\PSoC5/isr_Load_TrShReg.c ****     /* Enable the general interrupt. */
 328:Generated_Source\PSoC5/isr_Load_TrShReg.c ****     *isr_Load_TrShReg_INTC_SET_EN = isr_Load_TrShReg__INTC_MASK;
 144              		.loc 1 328 0
 145 0000 0222     		movs	r2, #2
 146 0002 014B     		ldr	r3, .L14
 147 0004 1A60     		str	r2, [r3]
 148 0006 7047     		bx	lr
 149              	.L15:
 150              		.align	2
 151              	.L14:
 152 0008 00E100E0 		.word	-536813312
 153              		.cfi_endproc
 154              	.LFE71:
 155              		.size	isr_Load_TrShReg_Enable, .-isr_Load_TrShReg_Enable
 156              		.section	.text.isr_Load_TrShReg_GetState,"ax",%progbits
 157              		.align	2
 158              		.global	isr_Load_TrShReg_GetState
 159              		.thumb
 160              		.thumb_func
 161              		.type	isr_Load_TrShReg_GetState, %function
 162              	isr_Load_TrShReg_GetState:
 163              	.LFB72:
 329:Generated_Source\PSoC5/isr_Load_TrShReg.c **** }
 330:Generated_Source\PSoC5/isr_Load_TrShReg.c **** 
 331:Generated_Source\PSoC5/isr_Load_TrShReg.c **** 
 332:Generated_Source\PSoC5/isr_Load_TrShReg.c **** /*******************************************************************************
 333:Generated_Source\PSoC5/isr_Load_TrShReg.c **** * Function Name: isr_Load_TrShReg_GetState
 334:Generated_Source\PSoC5/isr_Load_TrShReg.c **** ********************************************************************************
 335:Generated_Source\PSoC5/isr_Load_TrShReg.c **** *
 336:Generated_Source\PSoC5/isr_Load_TrShReg.c **** * Summary:
 337:Generated_Source\PSoC5/isr_Load_TrShReg.c **** *   Gets the state (enabled, disabled) of the Interrupt.
 338:Generated_Source\PSoC5/isr_Load_TrShReg.c **** *
 339:Generated_Source\PSoC5/isr_Load_TrShReg.c **** * Parameters:
 340:Generated_Source\PSoC5/isr_Load_TrShReg.c **** *   None
 341:Generated_Source\PSoC5/isr_Load_TrShReg.c **** *
 342:Generated_Source\PSoC5/isr_Load_TrShReg.c **** * Return:
 343:Generated_Source\PSoC5/isr_Load_TrShReg.c **** *   1 if enabled, 0 if disabled.
 344:Generated_Source\PSoC5/isr_Load_TrShReg.c **** *
 345:Generated_Source\PSoC5/isr_Load_TrShReg.c **** *******************************************************************************/
 346:Generated_Source\PSoC5/isr_Load_TrShReg.c **** uint8 isr_Load_TrShReg_GetState(void)
 347:Generated_Source\PSoC5/isr_Load_TrShReg.c **** {
 164              		.loc 1 347 0
 165              		.cfi_startproc
 166              		@ args = 0, pretend = 0, frame = 0
ARM GAS  C:\Users\EA527~1.IVA\AppData\Local\Temp\ccTVonqv.s 			page 10


 167              		@ frame_needed = 0, uses_anonymous_args = 0
 168              		@ link register save eliminated.
 348:Generated_Source\PSoC5/isr_Load_TrShReg.c ****     /* Get the state of the general interrupt. */
 349:Generated_Source\PSoC5/isr_Load_TrShReg.c ****     return ((*isr_Load_TrShReg_INTC_SET_EN & (uint32)isr_Load_TrShReg__INTC_MASK) != 0u) ? 1u:0u;
 169              		.loc 1 349 0
 170 0000 044B     		ldr	r3, .L19
 171 0002 1B68     		ldr	r3, [r3]
 172 0004 13F0020F 		tst	r3, #2
 173 0008 01D0     		beq	.L18
 174 000a 0120     		movs	r0, #1
 175 000c 7047     		bx	lr
 176              	.L18:
 177 000e 0020     		movs	r0, #0
 350:Generated_Source\PSoC5/isr_Load_TrShReg.c **** }
 178              		.loc 1 350 0
 179 0010 7047     		bx	lr
 180              	.L20:
 181 0012 00BF     		.align	2
 182              	.L19:
 183 0014 00E100E0 		.word	-536813312
 184              		.cfi_endproc
 185              	.LFE72:
 186              		.size	isr_Load_TrShReg_GetState, .-isr_Load_TrShReg_GetState
 187              		.section	.text.isr_Load_TrShReg_Disable,"ax",%progbits
 188              		.align	2
 189              		.global	isr_Load_TrShReg_Disable
 190              		.thumb
 191              		.thumb_func
 192              		.type	isr_Load_TrShReg_Disable, %function
 193              	isr_Load_TrShReg_Disable:
 194              	.LFB73:
 351:Generated_Source\PSoC5/isr_Load_TrShReg.c **** 
 352:Generated_Source\PSoC5/isr_Load_TrShReg.c **** 
 353:Generated_Source\PSoC5/isr_Load_TrShReg.c **** /*******************************************************************************
 354:Generated_Source\PSoC5/isr_Load_TrShReg.c **** * Function Name: isr_Load_TrShReg_Disable
 355:Generated_Source\PSoC5/isr_Load_TrShReg.c **** ********************************************************************************
 356:Generated_Source\PSoC5/isr_Load_TrShReg.c **** *
 357:Generated_Source\PSoC5/isr_Load_TrShReg.c **** * Summary:
 358:Generated_Source\PSoC5/isr_Load_TrShReg.c **** *   Disables the Interrupt in the interrupt controller.
 359:Generated_Source\PSoC5/isr_Load_TrShReg.c **** *
 360:Generated_Source\PSoC5/isr_Load_TrShReg.c **** * Parameters:
 361:Generated_Source\PSoC5/isr_Load_TrShReg.c **** *   None
 362:Generated_Source\PSoC5/isr_Load_TrShReg.c **** *
 363:Generated_Source\PSoC5/isr_Load_TrShReg.c **** * Return:
 364:Generated_Source\PSoC5/isr_Load_TrShReg.c **** *   None
 365:Generated_Source\PSoC5/isr_Load_TrShReg.c **** *
 366:Generated_Source\PSoC5/isr_Load_TrShReg.c **** *******************************************************************************/
 367:Generated_Source\PSoC5/isr_Load_TrShReg.c **** void isr_Load_TrShReg_Disable(void)
 368:Generated_Source\PSoC5/isr_Load_TrShReg.c **** {
 195              		.loc 1 368 0
 196              		.cfi_startproc
 197              		@ args = 0, pretend = 0, frame = 0
 198              		@ frame_needed = 0, uses_anonymous_args = 0
 199              		@ link register save eliminated.
 369:Generated_Source\PSoC5/isr_Load_TrShReg.c ****     /* Disable the general interrupt. */
 370:Generated_Source\PSoC5/isr_Load_TrShReg.c ****     *isr_Load_TrShReg_INTC_CLR_EN = isr_Load_TrShReg__INTC_MASK;
 200              		.loc 1 370 0
ARM GAS  C:\Users\EA527~1.IVA\AppData\Local\Temp\ccTVonqv.s 			page 11


 201 0000 0222     		movs	r2, #2
 202 0002 014B     		ldr	r3, .L22
 203 0004 1A60     		str	r2, [r3]
 204 0006 7047     		bx	lr
 205              	.L23:
 206              		.align	2
 207              	.L22:
 208 0008 80E100E0 		.word	-536813184
 209              		.cfi_endproc
 210              	.LFE73:
 211              		.size	isr_Load_TrShReg_Disable, .-isr_Load_TrShReg_Disable
 212              		.section	.text.isr_Load_TrShReg_Start,"ax",%progbits
 213              		.align	2
 214              		.global	isr_Load_TrShReg_Start
 215              		.thumb
 216              		.thumb_func
 217              		.type	isr_Load_TrShReg_Start, %function
 218              	isr_Load_TrShReg_Start:
 219              	.LFB63:
  68:Generated_Source\PSoC5/isr_Load_TrShReg.c ****     /* For all we know the interrupt is active. */
 220              		.loc 1 68 0
 221              		.cfi_startproc
 222              		@ args = 0, pretend = 0, frame = 0
 223              		@ frame_needed = 0, uses_anonymous_args = 0
 224 0000 08B5     		push	{r3, lr}
 225              		.cfi_def_cfa_offset 8
 226              		.cfi_offset 3, -8
 227              		.cfi_offset 14, -4
  70:Generated_Source\PSoC5/isr_Load_TrShReg.c **** 
 228              		.loc 1 70 0
 229 0002 FFF7FEFF 		bl	isr_Load_TrShReg_Disable
 230              	.LVL7:
  73:Generated_Source\PSoC5/isr_Load_TrShReg.c **** 
 231              		.loc 1 73 0
 232 0006 0448     		ldr	r0, .L26
 233 0008 FFF7FEFF 		bl	isr_Load_TrShReg_SetVector
 234              	.LVL8:
  76:Generated_Source\PSoC5/isr_Load_TrShReg.c **** 
 235              		.loc 1 76 0
 236 000c 0620     		movs	r0, #6
 237 000e FFF7FEFF 		bl	isr_Load_TrShReg_SetPriority
 238              	.LVL9:
  79:Generated_Source\PSoC5/isr_Load_TrShReg.c **** }
 239              		.loc 1 79 0
 240 0012 FFF7FEFF 		bl	isr_Load_TrShReg_Enable
 241              	.LVL10:
 242 0016 08BD     		pop	{r3, pc}
 243              	.L27:
 244              		.align	2
 245              	.L26:
 246 0018 00000000 		.word	isr_Load_TrShReg_Interrupt
 247              		.cfi_endproc
 248              	.LFE63:
 249              		.size	isr_Load_TrShReg_Start, .-isr_Load_TrShReg_Start
 250              		.section	.text.isr_Load_TrShReg_StartEx,"ax",%progbits
 251              		.align	2
 252              		.global	isr_Load_TrShReg_StartEx
ARM GAS  C:\Users\EA527~1.IVA\AppData\Local\Temp\ccTVonqv.s 			page 12


 253              		.thumb
 254              		.thumb_func
 255              		.type	isr_Load_TrShReg_StartEx, %function
 256              	isr_Load_TrShReg_StartEx:
 257              	.LFB64:
 111:Generated_Source\PSoC5/isr_Load_TrShReg.c ****     /* For all we know the interrupt is active. */
 258              		.loc 1 111 0
 259              		.cfi_startproc
 260              		@ args = 0, pretend = 0, frame = 0
 261              		@ frame_needed = 0, uses_anonymous_args = 0
 262              	.LVL11:
 263 0000 10B5     		push	{r4, lr}
 264              		.cfi_def_cfa_offset 8
 265              		.cfi_offset 4, -8
 266              		.cfi_offset 14, -4
 267 0002 0446     		mov	r4, r0
 113:Generated_Source\PSoC5/isr_Load_TrShReg.c **** 
 268              		.loc 1 113 0
 269 0004 FFF7FEFF 		bl	isr_Load_TrShReg_Disable
 270              	.LVL12:
 116:Generated_Source\PSoC5/isr_Load_TrShReg.c **** 
 271              		.loc 1 116 0
 272 0008 2046     		mov	r0, r4
 273 000a FFF7FEFF 		bl	isr_Load_TrShReg_SetVector
 274              	.LVL13:
 119:Generated_Source\PSoC5/isr_Load_TrShReg.c **** 
 275              		.loc 1 119 0
 276 000e 0620     		movs	r0, #6
 277 0010 FFF7FEFF 		bl	isr_Load_TrShReg_SetPriority
 278              	.LVL14:
 122:Generated_Source\PSoC5/isr_Load_TrShReg.c **** }
 279              		.loc 1 122 0
 280 0014 FFF7FEFF 		bl	isr_Load_TrShReg_Enable
 281              	.LVL15:
 282 0018 10BD     		pop	{r4, pc}
 283              		.cfi_endproc
 284              	.LFE64:
 285              		.size	isr_Load_TrShReg_StartEx, .-isr_Load_TrShReg_StartEx
 286 001a 00BF     		.section	.text.isr_Load_TrShReg_Stop,"ax",%progbits
 287              		.align	2
 288              		.global	isr_Load_TrShReg_Stop
 289              		.thumb
 290              		.thumb_func
 291              		.type	isr_Load_TrShReg_Stop, %function
 292              	isr_Load_TrShReg_Stop:
 293              	.LFB65:
 141:Generated_Source\PSoC5/isr_Load_TrShReg.c ****     /* Disable this interrupt. */
 294              		.loc 1 141 0
 295              		.cfi_startproc
 296              		@ args = 0, pretend = 0, frame = 0
 297              		@ frame_needed = 0, uses_anonymous_args = 0
 298 0000 08B5     		push	{r3, lr}
 299              		.cfi_def_cfa_offset 8
 300              		.cfi_offset 3, -8
 301              		.cfi_offset 14, -4
 143:Generated_Source\PSoC5/isr_Load_TrShReg.c **** 
 302              		.loc 1 143 0
ARM GAS  C:\Users\EA527~1.IVA\AppData\Local\Temp\ccTVonqv.s 			page 13


 303 0002 FFF7FEFF 		bl	isr_Load_TrShReg_Disable
 304              	.LVL16:
 146:Generated_Source\PSoC5/isr_Load_TrShReg.c **** }
 305              		.loc 1 146 0
 306 0006 0248     		ldr	r0, .L32
 307 0008 FFF7FEFF 		bl	isr_Load_TrShReg_SetVector
 308              	.LVL17:
 309 000c 08BD     		pop	{r3, pc}
 310              	.L33:
 311 000e 00BF     		.align	2
 312              	.L32:
 313 0010 00000000 		.word	IntDefaultHandler
 314              		.cfi_endproc
 315              	.LFE65:
 316              		.size	isr_Load_TrShReg_Stop, .-isr_Load_TrShReg_Stop
 317              		.section	.text.isr_Load_TrShReg_SetPending,"ax",%progbits
 318              		.align	2
 319              		.global	isr_Load_TrShReg_SetPending
 320              		.thumb
 321              		.thumb_func
 322              		.type	isr_Load_TrShReg_SetPending, %function
 323              	isr_Load_TrShReg_SetPending:
 324              	.LFB74:
 371:Generated_Source\PSoC5/isr_Load_TrShReg.c **** }
 372:Generated_Source\PSoC5/isr_Load_TrShReg.c **** 
 373:Generated_Source\PSoC5/isr_Load_TrShReg.c **** 
 374:Generated_Source\PSoC5/isr_Load_TrShReg.c **** /*******************************************************************************
 375:Generated_Source\PSoC5/isr_Load_TrShReg.c **** * Function Name: isr_Load_TrShReg_SetPending
 376:Generated_Source\PSoC5/isr_Load_TrShReg.c **** ********************************************************************************
 377:Generated_Source\PSoC5/isr_Load_TrShReg.c **** *
 378:Generated_Source\PSoC5/isr_Load_TrShReg.c **** * Summary:
 379:Generated_Source\PSoC5/isr_Load_TrShReg.c **** *   Causes the Interrupt to enter the pending state, a software method of
 380:Generated_Source\PSoC5/isr_Load_TrShReg.c **** *   generating the interrupt.
 381:Generated_Source\PSoC5/isr_Load_TrShReg.c **** *
 382:Generated_Source\PSoC5/isr_Load_TrShReg.c **** * Parameters:
 383:Generated_Source\PSoC5/isr_Load_TrShReg.c **** *   None
 384:Generated_Source\PSoC5/isr_Load_TrShReg.c **** *
 385:Generated_Source\PSoC5/isr_Load_TrShReg.c **** * Return:
 386:Generated_Source\PSoC5/isr_Load_TrShReg.c **** *   None
 387:Generated_Source\PSoC5/isr_Load_TrShReg.c **** *
 388:Generated_Source\PSoC5/isr_Load_TrShReg.c **** * Side Effects:
 389:Generated_Source\PSoC5/isr_Load_TrShReg.c **** *   If interrupts are enabled and the interrupt is set up properly, the ISR is
 390:Generated_Source\PSoC5/isr_Load_TrShReg.c **** *   entered (depending on the priority of this interrupt and other pending 
 391:Generated_Source\PSoC5/isr_Load_TrShReg.c **** *   interrupts).
 392:Generated_Source\PSoC5/isr_Load_TrShReg.c **** *
 393:Generated_Source\PSoC5/isr_Load_TrShReg.c **** *******************************************************************************/
 394:Generated_Source\PSoC5/isr_Load_TrShReg.c **** void isr_Load_TrShReg_SetPending(void)
 395:Generated_Source\PSoC5/isr_Load_TrShReg.c **** {
 325              		.loc 1 395 0
 326              		.cfi_startproc
 327              		@ args = 0, pretend = 0, frame = 0
 328              		@ frame_needed = 0, uses_anonymous_args = 0
 329              		@ link register save eliminated.
 396:Generated_Source\PSoC5/isr_Load_TrShReg.c ****     *isr_Load_TrShReg_INTC_SET_PD = isr_Load_TrShReg__INTC_MASK;
 330              		.loc 1 396 0
 331 0000 0222     		movs	r2, #2
 332 0002 014B     		ldr	r3, .L35
ARM GAS  C:\Users\EA527~1.IVA\AppData\Local\Temp\ccTVonqv.s 			page 14


 333 0004 1A60     		str	r2, [r3]
 334 0006 7047     		bx	lr
 335              	.L36:
 336              		.align	2
 337              	.L35:
 338 0008 00E200E0 		.word	-536813056
 339              		.cfi_endproc
 340              	.LFE74:
 341              		.size	isr_Load_TrShReg_SetPending, .-isr_Load_TrShReg_SetPending
 342              		.section	.text.isr_Load_TrShReg_ClearPending,"ax",%progbits
 343              		.align	2
 344              		.global	isr_Load_TrShReg_ClearPending
 345              		.thumb
 346              		.thumb_func
 347              		.type	isr_Load_TrShReg_ClearPending, %function
 348              	isr_Load_TrShReg_ClearPending:
 349              	.LFB75:
 397:Generated_Source\PSoC5/isr_Load_TrShReg.c **** }
 398:Generated_Source\PSoC5/isr_Load_TrShReg.c **** 
 399:Generated_Source\PSoC5/isr_Load_TrShReg.c **** 
 400:Generated_Source\PSoC5/isr_Load_TrShReg.c **** /*******************************************************************************
 401:Generated_Source\PSoC5/isr_Load_TrShReg.c **** * Function Name: isr_Load_TrShReg_ClearPending
 402:Generated_Source\PSoC5/isr_Load_TrShReg.c **** ********************************************************************************
 403:Generated_Source\PSoC5/isr_Load_TrShReg.c **** *
 404:Generated_Source\PSoC5/isr_Load_TrShReg.c **** * Summary:
 405:Generated_Source\PSoC5/isr_Load_TrShReg.c **** *   Clears a pending interrupt in the interrupt controller.
 406:Generated_Source\PSoC5/isr_Load_TrShReg.c **** *
 407:Generated_Source\PSoC5/isr_Load_TrShReg.c **** *   Note Some interrupt sources are clear-on-read and require the block 
 408:Generated_Source\PSoC5/isr_Load_TrShReg.c **** *   interrupt/status register to be read/cleared with the appropriate block API 
 409:Generated_Source\PSoC5/isr_Load_TrShReg.c **** *   (GPIO, UART, and so on). Otherwise the ISR will continue to remain in 
 410:Generated_Source\PSoC5/isr_Load_TrShReg.c **** *   pending state even though the interrupt itself is cleared using this API.
 411:Generated_Source\PSoC5/isr_Load_TrShReg.c **** *
 412:Generated_Source\PSoC5/isr_Load_TrShReg.c **** * Parameters:
 413:Generated_Source\PSoC5/isr_Load_TrShReg.c **** *   None
 414:Generated_Source\PSoC5/isr_Load_TrShReg.c **** *
 415:Generated_Source\PSoC5/isr_Load_TrShReg.c **** * Return:
 416:Generated_Source\PSoC5/isr_Load_TrShReg.c **** *   None
 417:Generated_Source\PSoC5/isr_Load_TrShReg.c **** *
 418:Generated_Source\PSoC5/isr_Load_TrShReg.c **** *******************************************************************************/
 419:Generated_Source\PSoC5/isr_Load_TrShReg.c **** void isr_Load_TrShReg_ClearPending(void)
 420:Generated_Source\PSoC5/isr_Load_TrShReg.c **** {
 350              		.loc 1 420 0
 351              		.cfi_startproc
 352              		@ args = 0, pretend = 0, frame = 0
 353              		@ frame_needed = 0, uses_anonymous_args = 0
 354              		@ link register save eliminated.
 421:Generated_Source\PSoC5/isr_Load_TrShReg.c ****     *isr_Load_TrShReg_INTC_CLR_PD = isr_Load_TrShReg__INTC_MASK;
 355              		.loc 1 421 0
 356 0000 0222     		movs	r2, #2
 357 0002 014B     		ldr	r3, .L38
 358 0004 1A60     		str	r2, [r3]
 359 0006 7047     		bx	lr
 360              	.L39:
 361              		.align	2
 362              	.L38:
 363 0008 80E200E0 		.word	-536812928
 364              		.cfi_endproc
ARM GAS  C:\Users\EA527~1.IVA\AppData\Local\Temp\ccTVonqv.s 			page 15


 365              	.LFE75:
 366              		.size	isr_Load_TrShReg_ClearPending, .-isr_Load_TrShReg_ClearPending
 367              		.section	.text.isr_Load_TrShReg_Interrupt,"ax",%progbits
 368              		.align	2
 369              		.global	isr_Load_TrShReg_Interrupt
 370              		.thumb
 371              		.thumb_func
 372              		.type	isr_Load_TrShReg_Interrupt, %function
 373              	isr_Load_TrShReg_Interrupt:
 374              	.LFB66:
 167:Generated_Source\PSoC5/isr_Load_TrShReg.c ****     #ifdef isr_Load_TrShReg_INTERRUPT_INTERRUPT_CALLBACK
 375              		.loc 1 167 0
 376              		.cfi_startproc
 377              		@ args = 0, pretend = 0, frame = 0
 378              		@ frame_needed = 0, uses_anonymous_args = 0
 379 0000 08B5     		push	{r3, lr}
 380              		.cfi_def_cfa_offset 8
 381              		.cfi_offset 3, -8
 382              		.cfi_offset 14, -4
 174:Generated_Source\PSoC5/isr_Load_TrShReg.c ****     //SetNeedLoadFlag();
 383              		.loc 1 174 0
 384 0002 FFF7FEFF 		bl	Load
 385              	.LVL18:
 177:Generated_Source\PSoC5/isr_Load_TrShReg.c **** //    if( TransmitShiftReg_RET_FIFO_EMPTY == TransmitShiftReg_GetFIFOStatus(TransmitShiftReg_IN_FIF
 386              		.loc 1 177 0
 387 0006 0B4B     		ldr	r3, .L43
 388 0008 1B78     		ldrb	r3, [r3]	@ zero_extendqisi2
 389 000a DBB2     		uxtb	r3, r3
 390 000c 0A4A     		ldr	r2, .L43+4
 391 000e 1370     		strb	r3, [r2]
 179:Generated_Source\PSoC5/isr_Load_TrShReg.c ****         StartTransmit_Write(0);
 392              		.loc 1 179 0
 393 0010 13F0080F 		tst	r3, #8
 394 0014 08D0     		beq	.L41
 180:Generated_Source\PSoC5/isr_Load_TrShReg.c ****         BitCounterEnc_ReadStatusRegister( );
 395              		.loc 1 180 0
 396 0016 0020     		movs	r0, #0
 397 0018 FFF7FEFF 		bl	StartTransmit_Write
 398              	.LVL19:
 181:Generated_Source\PSoC5/isr_Load_TrShReg.c ****         TransmitWordShift_ClearPending( );
 399              		.loc 1 181 0
 400 001c FFF7FEFF 		bl	BitCounterEnc_ReadStatusRegister
 401              	.LVL20:
 182:Generated_Source\PSoC5/isr_Load_TrShReg.c ****         TransmitWordShift_Enable( );
 402              		.loc 1 182 0
 403 0020 FFF7FEFF 		bl	TransmitWordShift_ClearPending
 404              	.LVL21:
 183:Generated_Source\PSoC5/isr_Load_TrShReg.c ****     }
 405              		.loc 1 183 0
 406 0024 FFF7FEFF 		bl	TransmitWordShift_Enable
 407              	.LVL22:
 408              	.L41:
 185:Generated_Source\PSoC5/isr_Load_TrShReg.c ****     isr_Load_TrShReg_ClearPending();
 409              		.loc 1 185 0
 410 0028 FFF7FEFF 		bl	TransmitShiftReg_GetIntStatus
 411              	.LVL23:
 186:Generated_Source\PSoC5/isr_Load_TrShReg.c ****     /* `#END` */
ARM GAS  C:\Users\EA527~1.IVA\AppData\Local\Temp\ccTVonqv.s 			page 16


 412              		.loc 1 186 0
 413 002c FFF7FEFF 		bl	isr_Load_TrShReg_ClearPending
 414              	.LVL24:
 415 0030 08BD     		pop	{r3, pc}
 416              	.L44:
 417 0032 00BF     		.align	2
 418              	.L43:
 419 0034 6E640040 		.word	1073767534
 420 0038 00000000 		.word	curStat
 421              		.cfi_endproc
 422              	.LFE66:
 423              		.size	isr_Load_TrShReg_Interrupt, .-isr_Load_TrShReg_Interrupt
 424              		.text
 425              	.Letext0:
 426              		.file 2 "c:\\program files (x86)\\cypress\\psoc creator\\4.2\\psoc creator\\import\\gnu\\arm\\5.4.
 427              		.file 3 "c:\\program files (x86)\\cypress\\psoc creator\\4.2\\psoc creator\\import\\gnu\\arm\\5.4.
 428              		.file 4 "Generated_Source\\PSoC5/cytypes.h"
 429              		.file 5 "./sender.h"
 430              		.file 6 "Generated_Source\\PSoC5/core_cm3.h"
 431              		.file 7 "Generated_Source\\PSoC5/StartTransmit.h"
 432              		.file 8 "Generated_Source\\PSoC5/BitCounterEnc.h"
 433              		.file 9 "Generated_Source\\PSoC5/TransmitWordShift.h"
 434              		.file 10 "Generated_Source\\PSoC5/TransmitShiftReg.h"