ARM GAS  C:\Users\EA527~1.IVA\AppData\Local\Temp\cceVEiyv.s 			page 1


   1              		.syntax unified
   2              		.cpu cortex-m3
   3              		.fpu softvfp
   4              		.eabi_attribute 20, 1
   5              		.eabi_attribute 21, 1
   6              		.eabi_attribute 23, 3
   7              		.eabi_attribute 24, 1
   8              		.eabi_attribute 25, 1
   9              		.eabi_attribute 26, 1
  10              		.eabi_attribute 30, 1
  11              		.eabi_attribute 34, 1
  12              		.eabi_attribute 18, 4
  13              		.thumb
  14              		.syntax unified
  15              		.file	"isr_TransmitWordShift.c"
  16              		.text
  17              	.Ltext0:
  18              		.cfi_sections	.debug_frame
  19              		.section	.text.isr_TransmitWordShift_SetVector,"ax",%progbits
  20              		.align	2
  21              		.global	isr_TransmitWordShift_SetVector
  22              		.thumb
  23              		.thumb_func
  24              		.type	isr_TransmitWordShift_SetVector, %function
  25              	isr_TransmitWordShift_SetVector:
  26              	.LFB4:
  27              		.file 1 "Generated_Source\\PSoC5\\isr_TransmitWordShift.c"
   1:Generated_Source\PSoC5/isr_TransmitWordShift.c **** /*******************************************************************************
   2:Generated_Source\PSoC5/isr_TransmitWordShift.c **** * File Name: isr_TransmitWordShift.c  
   3:Generated_Source\PSoC5/isr_TransmitWordShift.c **** * Version 1.70
   4:Generated_Source\PSoC5/isr_TransmitWordShift.c **** *
   5:Generated_Source\PSoC5/isr_TransmitWordShift.c **** *  Description:
   6:Generated_Source\PSoC5/isr_TransmitWordShift.c **** *   API for controlling the state of an interrupt.
   7:Generated_Source\PSoC5/isr_TransmitWordShift.c **** *
   8:Generated_Source\PSoC5/isr_TransmitWordShift.c **** *
   9:Generated_Source\PSoC5/isr_TransmitWordShift.c **** *  Note:
  10:Generated_Source\PSoC5/isr_TransmitWordShift.c **** *
  11:Generated_Source\PSoC5/isr_TransmitWordShift.c **** ********************************************************************************
  12:Generated_Source\PSoC5/isr_TransmitWordShift.c **** * Copyright 2008-2015, Cypress Semiconductor Corporation.  All rights reserved.
  13:Generated_Source\PSoC5/isr_TransmitWordShift.c **** * You may use this file only in accordance with the license, terms, conditions, 
  14:Generated_Source\PSoC5/isr_TransmitWordShift.c **** * disclaimers, and limitations in the end user license agreement accompanying 
  15:Generated_Source\PSoC5/isr_TransmitWordShift.c **** * the software package with which this file was provided.
  16:Generated_Source\PSoC5/isr_TransmitWordShift.c **** *******************************************************************************/
  17:Generated_Source\PSoC5/isr_TransmitWordShift.c **** 
  18:Generated_Source\PSoC5/isr_TransmitWordShift.c **** 
  19:Generated_Source\PSoC5/isr_TransmitWordShift.c **** #include <cydevice_trm.h>
  20:Generated_Source\PSoC5/isr_TransmitWordShift.c **** #include <CyLib.h>
  21:Generated_Source\PSoC5/isr_TransmitWordShift.c **** #include <isr_TransmitWordShift.h>
  22:Generated_Source\PSoC5/isr_TransmitWordShift.c **** #include "cyapicallbacks.h"
  23:Generated_Source\PSoC5/isr_TransmitWordShift.c **** 
  24:Generated_Source\PSoC5/isr_TransmitWordShift.c **** #if !defined(isr_TransmitWordShift__REMOVED) /* Check for removal by optimization */
  25:Generated_Source\PSoC5/isr_TransmitWordShift.c **** 
  26:Generated_Source\PSoC5/isr_TransmitWordShift.c **** /*******************************************************************************
  27:Generated_Source\PSoC5/isr_TransmitWordShift.c **** *  Place your includes, defines and code here 
  28:Generated_Source\PSoC5/isr_TransmitWordShift.c **** ********************************************************************************/
  29:Generated_Source\PSoC5/isr_TransmitWordShift.c **** /* `#START isr_TransmitWordShift_intc` */
  30:Generated_Source\PSoC5/isr_TransmitWordShift.c **** #include <StartTransmit.h>
ARM GAS  C:\Users\EA527~1.IVA\AppData\Local\Temp\cceVEiyv.s 			page 2


  31:Generated_Source\PSoC5/isr_TransmitWordShift.c **** #include <sender.h>
  32:Generated_Source\PSoC5/isr_TransmitWordShift.c **** #include <BitCounterEnc.h>
  33:Generated_Source\PSoC5/isr_TransmitWordShift.c ****     #include <line_buf.h>
  34:Generated_Source\PSoC5/isr_TransmitWordShift.c **** /* `#END` */
  35:Generated_Source\PSoC5/isr_TransmitWordShift.c **** 
  36:Generated_Source\PSoC5/isr_TransmitWordShift.c **** #ifndef CYINT_IRQ_BASE
  37:Generated_Source\PSoC5/isr_TransmitWordShift.c **** #define CYINT_IRQ_BASE      16
  38:Generated_Source\PSoC5/isr_TransmitWordShift.c **** #endif /* CYINT_IRQ_BASE */
  39:Generated_Source\PSoC5/isr_TransmitWordShift.c **** #ifndef CYINT_VECT_TABLE
  40:Generated_Source\PSoC5/isr_TransmitWordShift.c **** #define CYINT_VECT_TABLE    ((cyisraddress **) CYREG_NVIC_VECT_OFFSET)
  41:Generated_Source\PSoC5/isr_TransmitWordShift.c **** #endif /* CYINT_VECT_TABLE */
  42:Generated_Source\PSoC5/isr_TransmitWordShift.c **** 
  43:Generated_Source\PSoC5/isr_TransmitWordShift.c **** /* Declared in startup, used to set unused interrupts to. */
  44:Generated_Source\PSoC5/isr_TransmitWordShift.c **** CY_ISR_PROTO(IntDefaultHandler);
  45:Generated_Source\PSoC5/isr_TransmitWordShift.c **** 
  46:Generated_Source\PSoC5/isr_TransmitWordShift.c **** 
  47:Generated_Source\PSoC5/isr_TransmitWordShift.c **** /*******************************************************************************
  48:Generated_Source\PSoC5/isr_TransmitWordShift.c **** * Function Name: isr_TransmitWordShift_Start
  49:Generated_Source\PSoC5/isr_TransmitWordShift.c **** ********************************************************************************
  50:Generated_Source\PSoC5/isr_TransmitWordShift.c **** *
  51:Generated_Source\PSoC5/isr_TransmitWordShift.c **** * Summary:
  52:Generated_Source\PSoC5/isr_TransmitWordShift.c **** *  Set up the interrupt and enable it. This function disables the interrupt, 
  53:Generated_Source\PSoC5/isr_TransmitWordShift.c **** *  sets the default interrupt vector, sets the priority from the value in the
  54:Generated_Source\PSoC5/isr_TransmitWordShift.c **** *  Design Wide Resources Interrupt Editor, then enables the interrupt to the 
  55:Generated_Source\PSoC5/isr_TransmitWordShift.c **** *  interrupt controller.
  56:Generated_Source\PSoC5/isr_TransmitWordShift.c **** *
  57:Generated_Source\PSoC5/isr_TransmitWordShift.c **** * Parameters:  
  58:Generated_Source\PSoC5/isr_TransmitWordShift.c **** *   None
  59:Generated_Source\PSoC5/isr_TransmitWordShift.c **** *
  60:Generated_Source\PSoC5/isr_TransmitWordShift.c **** * Return:
  61:Generated_Source\PSoC5/isr_TransmitWordShift.c **** *   None
  62:Generated_Source\PSoC5/isr_TransmitWordShift.c **** *
  63:Generated_Source\PSoC5/isr_TransmitWordShift.c **** *******************************************************************************/
  64:Generated_Source\PSoC5/isr_TransmitWordShift.c **** void isr_TransmitWordShift_Start(void)
  65:Generated_Source\PSoC5/isr_TransmitWordShift.c **** {
  66:Generated_Source\PSoC5/isr_TransmitWordShift.c ****     /* For all we know the interrupt is active. */
  67:Generated_Source\PSoC5/isr_TransmitWordShift.c ****     isr_TransmitWordShift_Disable();
  68:Generated_Source\PSoC5/isr_TransmitWordShift.c **** 
  69:Generated_Source\PSoC5/isr_TransmitWordShift.c ****     /* Set the ISR to point to the isr_TransmitWordShift Interrupt. */
  70:Generated_Source\PSoC5/isr_TransmitWordShift.c ****     isr_TransmitWordShift_SetVector(&isr_TransmitWordShift_Interrupt);
  71:Generated_Source\PSoC5/isr_TransmitWordShift.c **** 
  72:Generated_Source\PSoC5/isr_TransmitWordShift.c ****     /* Set the priority. */
  73:Generated_Source\PSoC5/isr_TransmitWordShift.c ****     isr_TransmitWordShift_SetPriority((uint8)isr_TransmitWordShift_INTC_PRIOR_NUMBER);
  74:Generated_Source\PSoC5/isr_TransmitWordShift.c **** 
  75:Generated_Source\PSoC5/isr_TransmitWordShift.c ****     /* Enable it. */
  76:Generated_Source\PSoC5/isr_TransmitWordShift.c ****     isr_TransmitWordShift_Enable();
  77:Generated_Source\PSoC5/isr_TransmitWordShift.c **** }
  78:Generated_Source\PSoC5/isr_TransmitWordShift.c **** 
  79:Generated_Source\PSoC5/isr_TransmitWordShift.c **** 
  80:Generated_Source\PSoC5/isr_TransmitWordShift.c **** /*******************************************************************************
  81:Generated_Source\PSoC5/isr_TransmitWordShift.c **** * Function Name: isr_TransmitWordShift_StartEx
  82:Generated_Source\PSoC5/isr_TransmitWordShift.c **** ********************************************************************************
  83:Generated_Source\PSoC5/isr_TransmitWordShift.c **** *
  84:Generated_Source\PSoC5/isr_TransmitWordShift.c **** * Summary:
  85:Generated_Source\PSoC5/isr_TransmitWordShift.c **** *  Sets up the interrupt and enables it. This function disables the interrupt,
  86:Generated_Source\PSoC5/isr_TransmitWordShift.c **** *  sets the interrupt vector based on the address passed in, sets the priority 
  87:Generated_Source\PSoC5/isr_TransmitWordShift.c **** *  from the value in the Design Wide Resources Interrupt Editor, then enables 
ARM GAS  C:\Users\EA527~1.IVA\AppData\Local\Temp\cceVEiyv.s 			page 3


  88:Generated_Source\PSoC5/isr_TransmitWordShift.c **** *  the interrupt to the interrupt controller.
  89:Generated_Source\PSoC5/isr_TransmitWordShift.c **** *  
  90:Generated_Source\PSoC5/isr_TransmitWordShift.c **** *  When defining ISR functions, the CY_ISR and CY_ISR_PROTO macros should be 
  91:Generated_Source\PSoC5/isr_TransmitWordShift.c **** *  used to provide consistent definition across compilers:
  92:Generated_Source\PSoC5/isr_TransmitWordShift.c **** *  
  93:Generated_Source\PSoC5/isr_TransmitWordShift.c **** *  Function definition example:
  94:Generated_Source\PSoC5/isr_TransmitWordShift.c **** *   CY_ISR(MyISR)
  95:Generated_Source\PSoC5/isr_TransmitWordShift.c **** *   {
  96:Generated_Source\PSoC5/isr_TransmitWordShift.c **** *   }
  97:Generated_Source\PSoC5/isr_TransmitWordShift.c **** *   Function prototype example:
  98:Generated_Source\PSoC5/isr_TransmitWordShift.c **** *   CY_ISR_PROTO(MyISR);
  99:Generated_Source\PSoC5/isr_TransmitWordShift.c **** *
 100:Generated_Source\PSoC5/isr_TransmitWordShift.c **** * Parameters:  
 101:Generated_Source\PSoC5/isr_TransmitWordShift.c **** *   address: Address of the ISR to set in the interrupt vector table.
 102:Generated_Source\PSoC5/isr_TransmitWordShift.c **** *
 103:Generated_Source\PSoC5/isr_TransmitWordShift.c **** * Return:
 104:Generated_Source\PSoC5/isr_TransmitWordShift.c **** *   None
 105:Generated_Source\PSoC5/isr_TransmitWordShift.c **** *
 106:Generated_Source\PSoC5/isr_TransmitWordShift.c **** *******************************************************************************/
 107:Generated_Source\PSoC5/isr_TransmitWordShift.c **** void isr_TransmitWordShift_StartEx(cyisraddress address)
 108:Generated_Source\PSoC5/isr_TransmitWordShift.c **** {
 109:Generated_Source\PSoC5/isr_TransmitWordShift.c ****     /* For all we know the interrupt is active. */
 110:Generated_Source\PSoC5/isr_TransmitWordShift.c ****     isr_TransmitWordShift_Disable();
 111:Generated_Source\PSoC5/isr_TransmitWordShift.c **** 
 112:Generated_Source\PSoC5/isr_TransmitWordShift.c ****     /* Set the ISR to point to the isr_TransmitWordShift Interrupt. */
 113:Generated_Source\PSoC5/isr_TransmitWordShift.c ****     isr_TransmitWordShift_SetVector(address);
 114:Generated_Source\PSoC5/isr_TransmitWordShift.c **** 
 115:Generated_Source\PSoC5/isr_TransmitWordShift.c ****     /* Set the priority. */
 116:Generated_Source\PSoC5/isr_TransmitWordShift.c ****     isr_TransmitWordShift_SetPriority((uint8)isr_TransmitWordShift_INTC_PRIOR_NUMBER);
 117:Generated_Source\PSoC5/isr_TransmitWordShift.c **** 
 118:Generated_Source\PSoC5/isr_TransmitWordShift.c ****     /* Enable it. */
 119:Generated_Source\PSoC5/isr_TransmitWordShift.c ****     isr_TransmitWordShift_Enable();
 120:Generated_Source\PSoC5/isr_TransmitWordShift.c **** }
 121:Generated_Source\PSoC5/isr_TransmitWordShift.c **** 
 122:Generated_Source\PSoC5/isr_TransmitWordShift.c **** 
 123:Generated_Source\PSoC5/isr_TransmitWordShift.c **** /*******************************************************************************
 124:Generated_Source\PSoC5/isr_TransmitWordShift.c **** * Function Name: isr_TransmitWordShift_Stop
 125:Generated_Source\PSoC5/isr_TransmitWordShift.c **** ********************************************************************************
 126:Generated_Source\PSoC5/isr_TransmitWordShift.c **** *
 127:Generated_Source\PSoC5/isr_TransmitWordShift.c **** * Summary:
 128:Generated_Source\PSoC5/isr_TransmitWordShift.c **** *   Disables and removes the interrupt.
 129:Generated_Source\PSoC5/isr_TransmitWordShift.c **** *
 130:Generated_Source\PSoC5/isr_TransmitWordShift.c **** * Parameters:  
 131:Generated_Source\PSoC5/isr_TransmitWordShift.c **** *   None
 132:Generated_Source\PSoC5/isr_TransmitWordShift.c **** *
 133:Generated_Source\PSoC5/isr_TransmitWordShift.c **** * Return:
 134:Generated_Source\PSoC5/isr_TransmitWordShift.c **** *   None
 135:Generated_Source\PSoC5/isr_TransmitWordShift.c **** *
 136:Generated_Source\PSoC5/isr_TransmitWordShift.c **** *******************************************************************************/
 137:Generated_Source\PSoC5/isr_TransmitWordShift.c **** void isr_TransmitWordShift_Stop(void)
 138:Generated_Source\PSoC5/isr_TransmitWordShift.c **** {
 139:Generated_Source\PSoC5/isr_TransmitWordShift.c ****     /* Disable this interrupt. */
 140:Generated_Source\PSoC5/isr_TransmitWordShift.c ****     isr_TransmitWordShift_Disable();
 141:Generated_Source\PSoC5/isr_TransmitWordShift.c **** 
 142:Generated_Source\PSoC5/isr_TransmitWordShift.c ****     /* Set the ISR to point to the passive one. */
 143:Generated_Source\PSoC5/isr_TransmitWordShift.c ****     isr_TransmitWordShift_SetVector(&IntDefaultHandler);
 144:Generated_Source\PSoC5/isr_TransmitWordShift.c **** }
ARM GAS  C:\Users\EA527~1.IVA\AppData\Local\Temp\cceVEiyv.s 			page 4


 145:Generated_Source\PSoC5/isr_TransmitWordShift.c **** 
 146:Generated_Source\PSoC5/isr_TransmitWordShift.c **** 
 147:Generated_Source\PSoC5/isr_TransmitWordShift.c **** /*******************************************************************************
 148:Generated_Source\PSoC5/isr_TransmitWordShift.c **** * Function Name: isr_TransmitWordShift_Interrupt
 149:Generated_Source\PSoC5/isr_TransmitWordShift.c **** ********************************************************************************
 150:Generated_Source\PSoC5/isr_TransmitWordShift.c **** *
 151:Generated_Source\PSoC5/isr_TransmitWordShift.c **** * Summary:
 152:Generated_Source\PSoC5/isr_TransmitWordShift.c **** *   The default Interrupt Service Routine for isr_TransmitWordShift.
 153:Generated_Source\PSoC5/isr_TransmitWordShift.c **** *
 154:Generated_Source\PSoC5/isr_TransmitWordShift.c **** *   Add custom code between the coments to keep the next version of this file
 155:Generated_Source\PSoC5/isr_TransmitWordShift.c **** *   from over writting your code.
 156:Generated_Source\PSoC5/isr_TransmitWordShift.c **** *
 157:Generated_Source\PSoC5/isr_TransmitWordShift.c **** * Parameters:  
 158:Generated_Source\PSoC5/isr_TransmitWordShift.c **** *
 159:Generated_Source\PSoC5/isr_TransmitWordShift.c **** * Return:
 160:Generated_Source\PSoC5/isr_TransmitWordShift.c **** *   None
 161:Generated_Source\PSoC5/isr_TransmitWordShift.c **** *
 162:Generated_Source\PSoC5/isr_TransmitWordShift.c **** *******************************************************************************/
 163:Generated_Source\PSoC5/isr_TransmitWordShift.c **** CY_ISR(isr_TransmitWordShift_Interrupt)
 164:Generated_Source\PSoC5/isr_TransmitWordShift.c **** {
 165:Generated_Source\PSoC5/isr_TransmitWordShift.c ****     #ifdef isr_TransmitWordShift_INTERRUPT_INTERRUPT_CALLBACK
 166:Generated_Source\PSoC5/isr_TransmitWordShift.c ****         isr_TransmitWordShift_Interrupt_InterruptCallback();
 167:Generated_Source\PSoC5/isr_TransmitWordShift.c ****     #endif /* isr_TransmitWordShift_INTERRUPT_INTERRUPT_CALLBACK */ 
 168:Generated_Source\PSoC5/isr_TransmitWordShift.c **** 
 169:Generated_Source\PSoC5/isr_TransmitWordShift.c ****     /*  Place your Interrupt code here. */
 170:Generated_Source\PSoC5/isr_TransmitWordShift.c ****     /* `#START isr_TransmitWordShift_Interrupt` */
 171:Generated_Source\PSoC5/isr_TransmitWordShift.c ****         
 172:Generated_Source\PSoC5/isr_TransmitWordShift.c ****         flag_read_done = 1;
 173:Generated_Source\PSoC5/isr_TransmitWordShift.c ****         ClearStatus();
 174:Generated_Source\PSoC5/isr_TransmitWordShift.c ****         BitCounterEnc_ReadStatusRegister();
 175:Generated_Source\PSoC5/isr_TransmitWordShift.c ****         isr_TransmitWordShift_ClearPending();
 176:Generated_Source\PSoC5/isr_TransmitWordShift.c ****         isr_TransmitWordShift_Disable();
 177:Generated_Source\PSoC5/isr_TransmitWordShift.c ****         
 178:Generated_Source\PSoC5/isr_TransmitWordShift.c ****     /* `#END` */
 179:Generated_Source\PSoC5/isr_TransmitWordShift.c **** }
 180:Generated_Source\PSoC5/isr_TransmitWordShift.c **** 
 181:Generated_Source\PSoC5/isr_TransmitWordShift.c **** 
 182:Generated_Source\PSoC5/isr_TransmitWordShift.c **** /*******************************************************************************
 183:Generated_Source\PSoC5/isr_TransmitWordShift.c **** * Function Name: isr_TransmitWordShift_SetVector
 184:Generated_Source\PSoC5/isr_TransmitWordShift.c **** ********************************************************************************
 185:Generated_Source\PSoC5/isr_TransmitWordShift.c **** *
 186:Generated_Source\PSoC5/isr_TransmitWordShift.c **** * Summary:
 187:Generated_Source\PSoC5/isr_TransmitWordShift.c **** *   Change the ISR vector for the Interrupt. Note calling isr_TransmitWordShift_Start
 188:Generated_Source\PSoC5/isr_TransmitWordShift.c **** *   will override any effect this method would have had. To set the vector 
 189:Generated_Source\PSoC5/isr_TransmitWordShift.c **** *   before the component has been started use isr_TransmitWordShift_StartEx instead.
 190:Generated_Source\PSoC5/isr_TransmitWordShift.c **** * 
 191:Generated_Source\PSoC5/isr_TransmitWordShift.c **** *   When defining ISR functions, the CY_ISR and CY_ISR_PROTO macros should be 
 192:Generated_Source\PSoC5/isr_TransmitWordShift.c **** *   used to provide consistent definition across compilers:
 193:Generated_Source\PSoC5/isr_TransmitWordShift.c **** *
 194:Generated_Source\PSoC5/isr_TransmitWordShift.c **** *   Function definition example:
 195:Generated_Source\PSoC5/isr_TransmitWordShift.c **** *   CY_ISR(MyISR)
 196:Generated_Source\PSoC5/isr_TransmitWordShift.c **** *   {
 197:Generated_Source\PSoC5/isr_TransmitWordShift.c **** *   }
 198:Generated_Source\PSoC5/isr_TransmitWordShift.c **** *
 199:Generated_Source\PSoC5/isr_TransmitWordShift.c **** *   Function prototype example:
 200:Generated_Source\PSoC5/isr_TransmitWordShift.c **** *     CY_ISR_PROTO(MyISR);
 201:Generated_Source\PSoC5/isr_TransmitWordShift.c **** *
ARM GAS  C:\Users\EA527~1.IVA\AppData\Local\Temp\cceVEiyv.s 			page 5


 202:Generated_Source\PSoC5/isr_TransmitWordShift.c **** * Parameters:
 203:Generated_Source\PSoC5/isr_TransmitWordShift.c **** *   address: Address of the ISR to set in the interrupt vector table.
 204:Generated_Source\PSoC5/isr_TransmitWordShift.c **** *
 205:Generated_Source\PSoC5/isr_TransmitWordShift.c **** * Return:
 206:Generated_Source\PSoC5/isr_TransmitWordShift.c **** *   None
 207:Generated_Source\PSoC5/isr_TransmitWordShift.c **** *
 208:Generated_Source\PSoC5/isr_TransmitWordShift.c **** *******************************************************************************/
 209:Generated_Source\PSoC5/isr_TransmitWordShift.c **** void isr_TransmitWordShift_SetVector(cyisraddress address)
 210:Generated_Source\PSoC5/isr_TransmitWordShift.c **** {
  28              		.loc 1 210 0
  29              		.cfi_startproc
  30              		@ args = 0, pretend = 0, frame = 0
  31              		@ frame_needed = 0, uses_anonymous_args = 0
  32              		@ link register save eliminated.
  33              	.LVL0:
 211:Generated_Source\PSoC5/isr_TransmitWordShift.c ****     cyisraddress * ramVectorTable;
 212:Generated_Source\PSoC5/isr_TransmitWordShift.c **** 
 213:Generated_Source\PSoC5/isr_TransmitWordShift.c ****     ramVectorTable = (cyisraddress *) *CYINT_VECT_TABLE;
  34              		.loc 1 213 0
  35 0000 014B     		ldr	r3, .L2
  36 0002 1B68     		ldr	r3, [r3]
  37              	.LVL1:
 214:Generated_Source\PSoC5/isr_TransmitWordShift.c **** 
 215:Generated_Source\PSoC5/isr_TransmitWordShift.c ****     ramVectorTable[CYINT_IRQ_BASE + (uint32)isr_TransmitWordShift__INTC_NUMBER] = address;
  38              		.loc 1 215 0
  39 0004 D865     		str	r0, [r3, #92]
  40 0006 7047     		bx	lr
  41              	.L3:
  42              		.align	2
  43              	.L2:
  44 0008 08ED00E0 		.word	-536810232
  45              		.cfi_endproc
  46              	.LFE4:
  47              		.size	isr_TransmitWordShift_SetVector, .-isr_TransmitWordShift_SetVector
  48              		.section	.text.isr_TransmitWordShift_GetVector,"ax",%progbits
  49              		.align	2
  50              		.global	isr_TransmitWordShift_GetVector
  51              		.thumb
  52              		.thumb_func
  53              		.type	isr_TransmitWordShift_GetVector, %function
  54              	isr_TransmitWordShift_GetVector:
  55              	.LFB5:
 216:Generated_Source\PSoC5/isr_TransmitWordShift.c **** }
 217:Generated_Source\PSoC5/isr_TransmitWordShift.c **** 
 218:Generated_Source\PSoC5/isr_TransmitWordShift.c **** 
 219:Generated_Source\PSoC5/isr_TransmitWordShift.c **** /*******************************************************************************
 220:Generated_Source\PSoC5/isr_TransmitWordShift.c **** * Function Name: isr_TransmitWordShift_GetVector
 221:Generated_Source\PSoC5/isr_TransmitWordShift.c **** ********************************************************************************
 222:Generated_Source\PSoC5/isr_TransmitWordShift.c **** *
 223:Generated_Source\PSoC5/isr_TransmitWordShift.c **** * Summary:
 224:Generated_Source\PSoC5/isr_TransmitWordShift.c **** *   Gets the "address" of the current ISR vector for the Interrupt.
 225:Generated_Source\PSoC5/isr_TransmitWordShift.c **** *
 226:Generated_Source\PSoC5/isr_TransmitWordShift.c **** * Parameters:
 227:Generated_Source\PSoC5/isr_TransmitWordShift.c **** *   None
 228:Generated_Source\PSoC5/isr_TransmitWordShift.c **** *
 229:Generated_Source\PSoC5/isr_TransmitWordShift.c **** * Return:
 230:Generated_Source\PSoC5/isr_TransmitWordShift.c **** *   Address of the ISR in the interrupt vector table.
ARM GAS  C:\Users\EA527~1.IVA\AppData\Local\Temp\cceVEiyv.s 			page 6


 231:Generated_Source\PSoC5/isr_TransmitWordShift.c **** *
 232:Generated_Source\PSoC5/isr_TransmitWordShift.c **** *******************************************************************************/
 233:Generated_Source\PSoC5/isr_TransmitWordShift.c **** cyisraddress isr_TransmitWordShift_GetVector(void)
 234:Generated_Source\PSoC5/isr_TransmitWordShift.c **** {
  56              		.loc 1 234 0
  57              		.cfi_startproc
  58              		@ args = 0, pretend = 0, frame = 0
  59              		@ frame_needed = 0, uses_anonymous_args = 0
  60              		@ link register save eliminated.
 235:Generated_Source\PSoC5/isr_TransmitWordShift.c ****     cyisraddress * ramVectorTable;
 236:Generated_Source\PSoC5/isr_TransmitWordShift.c **** 
 237:Generated_Source\PSoC5/isr_TransmitWordShift.c ****     ramVectorTable = (cyisraddress *) *CYINT_VECT_TABLE;
  61              		.loc 1 237 0
  62 0000 014B     		ldr	r3, .L5
  63 0002 1B68     		ldr	r3, [r3]
  64              	.LVL2:
 238:Generated_Source\PSoC5/isr_TransmitWordShift.c **** 
 239:Generated_Source\PSoC5/isr_TransmitWordShift.c ****     return ramVectorTable[CYINT_IRQ_BASE + (uint32)isr_TransmitWordShift__INTC_NUMBER];
 240:Generated_Source\PSoC5/isr_TransmitWordShift.c **** }
  65              		.loc 1 240 0
  66 0004 D86D     		ldr	r0, [r3, #92]
  67 0006 7047     		bx	lr
  68              	.L6:
  69              		.align	2
  70              	.L5:
  71 0008 08ED00E0 		.word	-536810232
  72              		.cfi_endproc
  73              	.LFE5:
  74              		.size	isr_TransmitWordShift_GetVector, .-isr_TransmitWordShift_GetVector
  75              		.section	.text.isr_TransmitWordShift_SetPriority,"ax",%progbits
  76              		.align	2
  77              		.global	isr_TransmitWordShift_SetPriority
  78              		.thumb
  79              		.thumb_func
  80              		.type	isr_TransmitWordShift_SetPriority, %function
  81              	isr_TransmitWordShift_SetPriority:
  82              	.LFB6:
 241:Generated_Source\PSoC5/isr_TransmitWordShift.c **** 
 242:Generated_Source\PSoC5/isr_TransmitWordShift.c **** 
 243:Generated_Source\PSoC5/isr_TransmitWordShift.c **** /*******************************************************************************
 244:Generated_Source\PSoC5/isr_TransmitWordShift.c **** * Function Name: isr_TransmitWordShift_SetPriority
 245:Generated_Source\PSoC5/isr_TransmitWordShift.c **** ********************************************************************************
 246:Generated_Source\PSoC5/isr_TransmitWordShift.c **** *
 247:Generated_Source\PSoC5/isr_TransmitWordShift.c **** * Summary:
 248:Generated_Source\PSoC5/isr_TransmitWordShift.c **** *   Sets the Priority of the Interrupt. 
 249:Generated_Source\PSoC5/isr_TransmitWordShift.c **** *
 250:Generated_Source\PSoC5/isr_TransmitWordShift.c **** *   Note calling isr_TransmitWordShift_Start or isr_TransmitWordShift_StartEx will 
 251:Generated_Source\PSoC5/isr_TransmitWordShift.c **** *   override any effect this API would have had. This API should only be called
 252:Generated_Source\PSoC5/isr_TransmitWordShift.c **** *   after isr_TransmitWordShift_Start or isr_TransmitWordShift_StartEx has been called. 
 253:Generated_Source\PSoC5/isr_TransmitWordShift.c **** *   To set the initial priority for the component, use the Design-Wide Resources
 254:Generated_Source\PSoC5/isr_TransmitWordShift.c **** *   Interrupt Editor.
 255:Generated_Source\PSoC5/isr_TransmitWordShift.c **** *
 256:Generated_Source\PSoC5/isr_TransmitWordShift.c **** *   Note This API has no effect on Non-maskable interrupt NMI).
 257:Generated_Source\PSoC5/isr_TransmitWordShift.c **** *
 258:Generated_Source\PSoC5/isr_TransmitWordShift.c **** * Parameters:
 259:Generated_Source\PSoC5/isr_TransmitWordShift.c **** *   priority: Priority of the interrupt, 0 being the highest priority
 260:Generated_Source\PSoC5/isr_TransmitWordShift.c **** *             PSoC 3 and PSoC 5LP: Priority is from 0 to 7.
ARM GAS  C:\Users\EA527~1.IVA\AppData\Local\Temp\cceVEiyv.s 			page 7


 261:Generated_Source\PSoC5/isr_TransmitWordShift.c **** *             PSoC 4: Priority is from 0 to 3.
 262:Generated_Source\PSoC5/isr_TransmitWordShift.c **** *
 263:Generated_Source\PSoC5/isr_TransmitWordShift.c **** * Return:
 264:Generated_Source\PSoC5/isr_TransmitWordShift.c **** *   None
 265:Generated_Source\PSoC5/isr_TransmitWordShift.c **** *
 266:Generated_Source\PSoC5/isr_TransmitWordShift.c **** *******************************************************************************/
 267:Generated_Source\PSoC5/isr_TransmitWordShift.c **** void isr_TransmitWordShift_SetPriority(uint8 priority)
 268:Generated_Source\PSoC5/isr_TransmitWordShift.c **** {
  83              		.loc 1 268 0
  84              		.cfi_startproc
  85              		@ args = 0, pretend = 0, frame = 0
  86              		@ frame_needed = 0, uses_anonymous_args = 0
  87              		@ link register save eliminated.
  88              	.LVL3:
 269:Generated_Source\PSoC5/isr_TransmitWordShift.c ****     *isr_TransmitWordShift_INTC_PRIOR = priority << 5;
  89              		.loc 1 269 0
  90 0000 4001     		lsls	r0, r0, #5
  91              	.LVL4:
  92 0002 C0B2     		uxtb	r0, r0
  93 0004 014B     		ldr	r3, .L8
  94 0006 1870     		strb	r0, [r3]
  95 0008 7047     		bx	lr
  96              	.L9:
  97 000a 00BF     		.align	2
  98              	.L8:
  99 000c 07E400E0 		.word	-536812537
 100              		.cfi_endproc
 101              	.LFE6:
 102              		.size	isr_TransmitWordShift_SetPriority, .-isr_TransmitWordShift_SetPriority
 103              		.section	.text.isr_TransmitWordShift_GetPriority,"ax",%progbits
 104              		.align	2
 105              		.global	isr_TransmitWordShift_GetPriority
 106              		.thumb
 107              		.thumb_func
 108              		.type	isr_TransmitWordShift_GetPriority, %function
 109              	isr_TransmitWordShift_GetPriority:
 110              	.LFB7:
 270:Generated_Source\PSoC5/isr_TransmitWordShift.c **** }
 271:Generated_Source\PSoC5/isr_TransmitWordShift.c **** 
 272:Generated_Source\PSoC5/isr_TransmitWordShift.c **** 
 273:Generated_Source\PSoC5/isr_TransmitWordShift.c **** /*******************************************************************************
 274:Generated_Source\PSoC5/isr_TransmitWordShift.c **** * Function Name: isr_TransmitWordShift_GetPriority
 275:Generated_Source\PSoC5/isr_TransmitWordShift.c **** ********************************************************************************
 276:Generated_Source\PSoC5/isr_TransmitWordShift.c **** *
 277:Generated_Source\PSoC5/isr_TransmitWordShift.c **** * Summary:
 278:Generated_Source\PSoC5/isr_TransmitWordShift.c **** *   Gets the Priority of the Interrupt.
 279:Generated_Source\PSoC5/isr_TransmitWordShift.c **** *
 280:Generated_Source\PSoC5/isr_TransmitWordShift.c **** * Parameters:
 281:Generated_Source\PSoC5/isr_TransmitWordShift.c **** *   None
 282:Generated_Source\PSoC5/isr_TransmitWordShift.c **** *
 283:Generated_Source\PSoC5/isr_TransmitWordShift.c **** * Return:
 284:Generated_Source\PSoC5/isr_TransmitWordShift.c **** *   Priority of the interrupt, 0 being the highest priority
 285:Generated_Source\PSoC5/isr_TransmitWordShift.c **** *    PSoC 3 and PSoC 5LP: Priority is from 0 to 7.
 286:Generated_Source\PSoC5/isr_TransmitWordShift.c **** *    PSoC 4: Priority is from 0 to 3.
 287:Generated_Source\PSoC5/isr_TransmitWordShift.c **** *
 288:Generated_Source\PSoC5/isr_TransmitWordShift.c **** *******************************************************************************/
 289:Generated_Source\PSoC5/isr_TransmitWordShift.c **** uint8 isr_TransmitWordShift_GetPriority(void)
ARM GAS  C:\Users\EA527~1.IVA\AppData\Local\Temp\cceVEiyv.s 			page 8


 290:Generated_Source\PSoC5/isr_TransmitWordShift.c **** {
 111              		.loc 1 290 0
 112              		.cfi_startproc
 113              		@ args = 0, pretend = 0, frame = 0
 114              		@ frame_needed = 0, uses_anonymous_args = 0
 115              		@ link register save eliminated.
 291:Generated_Source\PSoC5/isr_TransmitWordShift.c ****     uint8 priority;
 292:Generated_Source\PSoC5/isr_TransmitWordShift.c **** 
 293:Generated_Source\PSoC5/isr_TransmitWordShift.c **** 
 294:Generated_Source\PSoC5/isr_TransmitWordShift.c ****     priority = *isr_TransmitWordShift_INTC_PRIOR >> 5;
 116              		.loc 1 294 0
 117 0000 014B     		ldr	r3, .L11
 118 0002 1878     		ldrb	r0, [r3]	@ zero_extendqisi2
 119              	.LVL5:
 295:Generated_Source\PSoC5/isr_TransmitWordShift.c **** 
 296:Generated_Source\PSoC5/isr_TransmitWordShift.c ****     return priority;
 297:Generated_Source\PSoC5/isr_TransmitWordShift.c **** }
 120              		.loc 1 297 0
 121 0004 4009     		lsrs	r0, r0, #5
 122              	.LVL6:
 123 0006 7047     		bx	lr
 124              	.L12:
 125              		.align	2
 126              	.L11:
 127 0008 07E400E0 		.word	-536812537
 128              		.cfi_endproc
 129              	.LFE7:
 130              		.size	isr_TransmitWordShift_GetPriority, .-isr_TransmitWordShift_GetPriority
 131              		.section	.text.isr_TransmitWordShift_Enable,"ax",%progbits
 132              		.align	2
 133              		.global	isr_TransmitWordShift_Enable
 134              		.thumb
 135              		.thumb_func
 136              		.type	isr_TransmitWordShift_Enable, %function
 137              	isr_TransmitWordShift_Enable:
 138              	.LFB8:
 298:Generated_Source\PSoC5/isr_TransmitWordShift.c **** 
 299:Generated_Source\PSoC5/isr_TransmitWordShift.c **** 
 300:Generated_Source\PSoC5/isr_TransmitWordShift.c **** /*******************************************************************************
 301:Generated_Source\PSoC5/isr_TransmitWordShift.c **** * Function Name: isr_TransmitWordShift_Enable
 302:Generated_Source\PSoC5/isr_TransmitWordShift.c **** ********************************************************************************
 303:Generated_Source\PSoC5/isr_TransmitWordShift.c **** *
 304:Generated_Source\PSoC5/isr_TransmitWordShift.c **** * Summary:
 305:Generated_Source\PSoC5/isr_TransmitWordShift.c **** *   Enables the interrupt to the interrupt controller. Do not call this function
 306:Generated_Source\PSoC5/isr_TransmitWordShift.c **** *   unless ISR_Start() has been called or the functionality of the ISR_Start() 
 307:Generated_Source\PSoC5/isr_TransmitWordShift.c **** *   function, which sets the vector and the priority, has been called.
 308:Generated_Source\PSoC5/isr_TransmitWordShift.c **** *
 309:Generated_Source\PSoC5/isr_TransmitWordShift.c **** * Parameters:
 310:Generated_Source\PSoC5/isr_TransmitWordShift.c **** *   None
 311:Generated_Source\PSoC5/isr_TransmitWordShift.c **** *
 312:Generated_Source\PSoC5/isr_TransmitWordShift.c **** * Return:
 313:Generated_Source\PSoC5/isr_TransmitWordShift.c **** *   None
 314:Generated_Source\PSoC5/isr_TransmitWordShift.c **** *
 315:Generated_Source\PSoC5/isr_TransmitWordShift.c **** *******************************************************************************/
 316:Generated_Source\PSoC5/isr_TransmitWordShift.c **** void isr_TransmitWordShift_Enable(void)
 317:Generated_Source\PSoC5/isr_TransmitWordShift.c **** {
 139              		.loc 1 317 0
ARM GAS  C:\Users\EA527~1.IVA\AppData\Local\Temp\cceVEiyv.s 			page 9


 140              		.cfi_startproc
 141              		@ args = 0, pretend = 0, frame = 0
 142              		@ frame_needed = 0, uses_anonymous_args = 0
 143              		@ link register save eliminated.
 318:Generated_Source\PSoC5/isr_TransmitWordShift.c ****     /* Enable the general interrupt. */
 319:Generated_Source\PSoC5/isr_TransmitWordShift.c ****     *isr_TransmitWordShift_INTC_SET_EN = isr_TransmitWordShift__INTC_MASK;
 144              		.loc 1 319 0
 145 0000 8022     		movs	r2, #128
 146 0002 014B     		ldr	r3, .L14
 147 0004 1A60     		str	r2, [r3]
 148 0006 7047     		bx	lr
 149              	.L15:
 150              		.align	2
 151              	.L14:
 152 0008 00E100E0 		.word	-536813312
 153              		.cfi_endproc
 154              	.LFE8:
 155              		.size	isr_TransmitWordShift_Enable, .-isr_TransmitWordShift_Enable
 156              		.section	.text.isr_TransmitWordShift_GetState,"ax",%progbits
 157              		.align	2
 158              		.global	isr_TransmitWordShift_GetState
 159              		.thumb
 160              		.thumb_func
 161              		.type	isr_TransmitWordShift_GetState, %function
 162              	isr_TransmitWordShift_GetState:
 163              	.LFB9:
 320:Generated_Source\PSoC5/isr_TransmitWordShift.c **** }
 321:Generated_Source\PSoC5/isr_TransmitWordShift.c **** 
 322:Generated_Source\PSoC5/isr_TransmitWordShift.c **** 
 323:Generated_Source\PSoC5/isr_TransmitWordShift.c **** /*******************************************************************************
 324:Generated_Source\PSoC5/isr_TransmitWordShift.c **** * Function Name: isr_TransmitWordShift_GetState
 325:Generated_Source\PSoC5/isr_TransmitWordShift.c **** ********************************************************************************
 326:Generated_Source\PSoC5/isr_TransmitWordShift.c **** *
 327:Generated_Source\PSoC5/isr_TransmitWordShift.c **** * Summary:
 328:Generated_Source\PSoC5/isr_TransmitWordShift.c **** *   Gets the state (enabled, disabled) of the Interrupt.
 329:Generated_Source\PSoC5/isr_TransmitWordShift.c **** *
 330:Generated_Source\PSoC5/isr_TransmitWordShift.c **** * Parameters:
 331:Generated_Source\PSoC5/isr_TransmitWordShift.c **** *   None
 332:Generated_Source\PSoC5/isr_TransmitWordShift.c **** *
 333:Generated_Source\PSoC5/isr_TransmitWordShift.c **** * Return:
 334:Generated_Source\PSoC5/isr_TransmitWordShift.c **** *   1 if enabled, 0 if disabled.
 335:Generated_Source\PSoC5/isr_TransmitWordShift.c **** *
 336:Generated_Source\PSoC5/isr_TransmitWordShift.c **** *******************************************************************************/
 337:Generated_Source\PSoC5/isr_TransmitWordShift.c **** uint8 isr_TransmitWordShift_GetState(void)
 338:Generated_Source\PSoC5/isr_TransmitWordShift.c **** {
 164              		.loc 1 338 0
 165              		.cfi_startproc
 166              		@ args = 0, pretend = 0, frame = 0
 167              		@ frame_needed = 0, uses_anonymous_args = 0
 168              		@ link register save eliminated.
 339:Generated_Source\PSoC5/isr_TransmitWordShift.c ****     /* Get the state of the general interrupt. */
 340:Generated_Source\PSoC5/isr_TransmitWordShift.c ****     return ((*isr_TransmitWordShift_INTC_SET_EN & (uint32)isr_TransmitWordShift__INTC_MASK) != 0u) 
 169              		.loc 1 340 0
 170 0000 044B     		ldr	r3, .L19
 171 0002 1B68     		ldr	r3, [r3]
 172 0004 13F0800F 		tst	r3, #128
 173 0008 01D0     		beq	.L18
ARM GAS  C:\Users\EA527~1.IVA\AppData\Local\Temp\cceVEiyv.s 			page 10


 174 000a 0120     		movs	r0, #1
 175 000c 7047     		bx	lr
 176              	.L18:
 177 000e 0020     		movs	r0, #0
 341:Generated_Source\PSoC5/isr_TransmitWordShift.c **** }
 178              		.loc 1 341 0
 179 0010 7047     		bx	lr
 180              	.L20:
 181 0012 00BF     		.align	2
 182              	.L19:
 183 0014 00E100E0 		.word	-536813312
 184              		.cfi_endproc
 185              	.LFE9:
 186              		.size	isr_TransmitWordShift_GetState, .-isr_TransmitWordShift_GetState
 187              		.section	.text.isr_TransmitWordShift_Disable,"ax",%progbits
 188              		.align	2
 189              		.global	isr_TransmitWordShift_Disable
 190              		.thumb
 191              		.thumb_func
 192              		.type	isr_TransmitWordShift_Disable, %function
 193              	isr_TransmitWordShift_Disable:
 194              	.LFB10:
 342:Generated_Source\PSoC5/isr_TransmitWordShift.c **** 
 343:Generated_Source\PSoC5/isr_TransmitWordShift.c **** 
 344:Generated_Source\PSoC5/isr_TransmitWordShift.c **** /*******************************************************************************
 345:Generated_Source\PSoC5/isr_TransmitWordShift.c **** * Function Name: isr_TransmitWordShift_Disable
 346:Generated_Source\PSoC5/isr_TransmitWordShift.c **** ********************************************************************************
 347:Generated_Source\PSoC5/isr_TransmitWordShift.c **** *
 348:Generated_Source\PSoC5/isr_TransmitWordShift.c **** * Summary:
 349:Generated_Source\PSoC5/isr_TransmitWordShift.c **** *   Disables the Interrupt in the interrupt controller.
 350:Generated_Source\PSoC5/isr_TransmitWordShift.c **** *
 351:Generated_Source\PSoC5/isr_TransmitWordShift.c **** * Parameters:
 352:Generated_Source\PSoC5/isr_TransmitWordShift.c **** *   None
 353:Generated_Source\PSoC5/isr_TransmitWordShift.c **** *
 354:Generated_Source\PSoC5/isr_TransmitWordShift.c **** * Return:
 355:Generated_Source\PSoC5/isr_TransmitWordShift.c **** *   None
 356:Generated_Source\PSoC5/isr_TransmitWordShift.c **** *
 357:Generated_Source\PSoC5/isr_TransmitWordShift.c **** *******************************************************************************/
 358:Generated_Source\PSoC5/isr_TransmitWordShift.c **** void isr_TransmitWordShift_Disable(void)
 359:Generated_Source\PSoC5/isr_TransmitWordShift.c **** {
 195              		.loc 1 359 0
 196              		.cfi_startproc
 197              		@ args = 0, pretend = 0, frame = 0
 198              		@ frame_needed = 0, uses_anonymous_args = 0
 199              		@ link register save eliminated.
 360:Generated_Source\PSoC5/isr_TransmitWordShift.c ****     /* Disable the general interrupt. */
 361:Generated_Source\PSoC5/isr_TransmitWordShift.c ****     *isr_TransmitWordShift_INTC_CLR_EN = isr_TransmitWordShift__INTC_MASK;
 200              		.loc 1 361 0
 201 0000 8022     		movs	r2, #128
 202 0002 014B     		ldr	r3, .L22
 203 0004 1A60     		str	r2, [r3]
 204 0006 7047     		bx	lr
 205              	.L23:
 206              		.align	2
 207              	.L22:
 208 0008 80E100E0 		.word	-536813184
 209              		.cfi_endproc
ARM GAS  C:\Users\EA527~1.IVA\AppData\Local\Temp\cceVEiyv.s 			page 11


 210              	.LFE10:
 211              		.size	isr_TransmitWordShift_Disable, .-isr_TransmitWordShift_Disable
 212              		.section	.text.isr_TransmitWordShift_Start,"ax",%progbits
 213              		.align	2
 214              		.global	isr_TransmitWordShift_Start
 215              		.thumb
 216              		.thumb_func
 217              		.type	isr_TransmitWordShift_Start, %function
 218              	isr_TransmitWordShift_Start:
 219              	.LFB0:
  65:Generated_Source\PSoC5/isr_TransmitWordShift.c ****     /* For all we know the interrupt is active. */
 220              		.loc 1 65 0
 221              		.cfi_startproc
 222              		@ args = 0, pretend = 0, frame = 0
 223              		@ frame_needed = 0, uses_anonymous_args = 0
 224 0000 08B5     		push	{r3, lr}
 225              		.cfi_def_cfa_offset 8
 226              		.cfi_offset 3, -8
 227              		.cfi_offset 14, -4
  67:Generated_Source\PSoC5/isr_TransmitWordShift.c **** 
 228              		.loc 1 67 0
 229 0002 FFF7FEFF 		bl	isr_TransmitWordShift_Disable
 230              	.LVL7:
  70:Generated_Source\PSoC5/isr_TransmitWordShift.c **** 
 231              		.loc 1 70 0
 232 0006 0448     		ldr	r0, .L26
 233 0008 FFF7FEFF 		bl	isr_TransmitWordShift_SetVector
 234              	.LVL8:
  73:Generated_Source\PSoC5/isr_TransmitWordShift.c **** 
 235              		.loc 1 73 0
 236 000c 0620     		movs	r0, #6
 237 000e FFF7FEFF 		bl	isr_TransmitWordShift_SetPriority
 238              	.LVL9:
  76:Generated_Source\PSoC5/isr_TransmitWordShift.c **** }
 239              		.loc 1 76 0
 240 0012 FFF7FEFF 		bl	isr_TransmitWordShift_Enable
 241              	.LVL10:
 242 0016 08BD     		pop	{r3, pc}
 243              	.L27:
 244              		.align	2
 245              	.L26:
 246 0018 00000000 		.word	isr_TransmitWordShift_Interrupt
 247              		.cfi_endproc
 248              	.LFE0:
 249              		.size	isr_TransmitWordShift_Start, .-isr_TransmitWordShift_Start
 250              		.section	.text.isr_TransmitWordShift_StartEx,"ax",%progbits
 251              		.align	2
 252              		.global	isr_TransmitWordShift_StartEx
 253              		.thumb
 254              		.thumb_func
 255              		.type	isr_TransmitWordShift_StartEx, %function
 256              	isr_TransmitWordShift_StartEx:
 257              	.LFB1:
 108:Generated_Source\PSoC5/isr_TransmitWordShift.c ****     /* For all we know the interrupt is active. */
 258              		.loc 1 108 0
 259              		.cfi_startproc
 260              		@ args = 0, pretend = 0, frame = 0
ARM GAS  C:\Users\EA527~1.IVA\AppData\Local\Temp\cceVEiyv.s 			page 12


 261              		@ frame_needed = 0, uses_anonymous_args = 0
 262              	.LVL11:
 263 0000 10B5     		push	{r4, lr}
 264              		.cfi_def_cfa_offset 8
 265              		.cfi_offset 4, -8
 266              		.cfi_offset 14, -4
 267 0002 0446     		mov	r4, r0
 110:Generated_Source\PSoC5/isr_TransmitWordShift.c **** 
 268              		.loc 1 110 0
 269 0004 FFF7FEFF 		bl	isr_TransmitWordShift_Disable
 270              	.LVL12:
 113:Generated_Source\PSoC5/isr_TransmitWordShift.c **** 
 271              		.loc 1 113 0
 272 0008 2046     		mov	r0, r4
 273 000a FFF7FEFF 		bl	isr_TransmitWordShift_SetVector
 274              	.LVL13:
 116:Generated_Source\PSoC5/isr_TransmitWordShift.c **** 
 275              		.loc 1 116 0
 276 000e 0620     		movs	r0, #6
 277 0010 FFF7FEFF 		bl	isr_TransmitWordShift_SetPriority
 278              	.LVL14:
 119:Generated_Source\PSoC5/isr_TransmitWordShift.c **** }
 279              		.loc 1 119 0
 280 0014 FFF7FEFF 		bl	isr_TransmitWordShift_Enable
 281              	.LVL15:
 282 0018 10BD     		pop	{r4, pc}
 283              		.cfi_endproc
 284              	.LFE1:
 285              		.size	isr_TransmitWordShift_StartEx, .-isr_TransmitWordShift_StartEx
 286 001a 00BF     		.section	.text.isr_TransmitWordShift_Stop,"ax",%progbits
 287              		.align	2
 288              		.global	isr_TransmitWordShift_Stop
 289              		.thumb
 290              		.thumb_func
 291              		.type	isr_TransmitWordShift_Stop, %function
 292              	isr_TransmitWordShift_Stop:
 293              	.LFB2:
 138:Generated_Source\PSoC5/isr_TransmitWordShift.c ****     /* Disable this interrupt. */
 294              		.loc 1 138 0
 295              		.cfi_startproc
 296              		@ args = 0, pretend = 0, frame = 0
 297              		@ frame_needed = 0, uses_anonymous_args = 0
 298 0000 08B5     		push	{r3, lr}
 299              		.cfi_def_cfa_offset 8
 300              		.cfi_offset 3, -8
 301              		.cfi_offset 14, -4
 140:Generated_Source\PSoC5/isr_TransmitWordShift.c **** 
 302              		.loc 1 140 0
 303 0002 FFF7FEFF 		bl	isr_TransmitWordShift_Disable
 304              	.LVL16:
 143:Generated_Source\PSoC5/isr_TransmitWordShift.c **** }
 305              		.loc 1 143 0
 306 0006 0248     		ldr	r0, .L32
 307 0008 FFF7FEFF 		bl	isr_TransmitWordShift_SetVector
 308              	.LVL17:
 309 000c 08BD     		pop	{r3, pc}
 310              	.L33:
ARM GAS  C:\Users\EA527~1.IVA\AppData\Local\Temp\cceVEiyv.s 			page 13


 311 000e 00BF     		.align	2
 312              	.L32:
 313 0010 00000000 		.word	IntDefaultHandler
 314              		.cfi_endproc
 315              	.LFE2:
 316              		.size	isr_TransmitWordShift_Stop, .-isr_TransmitWordShift_Stop
 317              		.section	.text.isr_TransmitWordShift_SetPending,"ax",%progbits
 318              		.align	2
 319              		.global	isr_TransmitWordShift_SetPending
 320              		.thumb
 321              		.thumb_func
 322              		.type	isr_TransmitWordShift_SetPending, %function
 323              	isr_TransmitWordShift_SetPending:
 324              	.LFB11:
 362:Generated_Source\PSoC5/isr_TransmitWordShift.c **** }
 363:Generated_Source\PSoC5/isr_TransmitWordShift.c **** 
 364:Generated_Source\PSoC5/isr_TransmitWordShift.c **** 
 365:Generated_Source\PSoC5/isr_TransmitWordShift.c **** /*******************************************************************************
 366:Generated_Source\PSoC5/isr_TransmitWordShift.c **** * Function Name: isr_TransmitWordShift_SetPending
 367:Generated_Source\PSoC5/isr_TransmitWordShift.c **** ********************************************************************************
 368:Generated_Source\PSoC5/isr_TransmitWordShift.c **** *
 369:Generated_Source\PSoC5/isr_TransmitWordShift.c **** * Summary:
 370:Generated_Source\PSoC5/isr_TransmitWordShift.c **** *   Causes the Interrupt to enter the pending state, a software method of
 371:Generated_Source\PSoC5/isr_TransmitWordShift.c **** *   generating the interrupt.
 372:Generated_Source\PSoC5/isr_TransmitWordShift.c **** *
 373:Generated_Source\PSoC5/isr_TransmitWordShift.c **** * Parameters:
 374:Generated_Source\PSoC5/isr_TransmitWordShift.c **** *   None
 375:Generated_Source\PSoC5/isr_TransmitWordShift.c **** *
 376:Generated_Source\PSoC5/isr_TransmitWordShift.c **** * Return:
 377:Generated_Source\PSoC5/isr_TransmitWordShift.c **** *   None
 378:Generated_Source\PSoC5/isr_TransmitWordShift.c **** *
 379:Generated_Source\PSoC5/isr_TransmitWordShift.c **** * Side Effects:
 380:Generated_Source\PSoC5/isr_TransmitWordShift.c **** *   If interrupts are enabled and the interrupt is set up properly, the ISR is
 381:Generated_Source\PSoC5/isr_TransmitWordShift.c **** *   entered (depending on the priority of this interrupt and other pending 
 382:Generated_Source\PSoC5/isr_TransmitWordShift.c **** *   interrupts).
 383:Generated_Source\PSoC5/isr_TransmitWordShift.c **** *
 384:Generated_Source\PSoC5/isr_TransmitWordShift.c **** *******************************************************************************/
 385:Generated_Source\PSoC5/isr_TransmitWordShift.c **** void isr_TransmitWordShift_SetPending(void)
 386:Generated_Source\PSoC5/isr_TransmitWordShift.c **** {
 325              		.loc 1 386 0
 326              		.cfi_startproc
 327              		@ args = 0, pretend = 0, frame = 0
 328              		@ frame_needed = 0, uses_anonymous_args = 0
 329              		@ link register save eliminated.
 387:Generated_Source\PSoC5/isr_TransmitWordShift.c ****     *isr_TransmitWordShift_INTC_SET_PD = isr_TransmitWordShift__INTC_MASK;
 330              		.loc 1 387 0
 331 0000 8022     		movs	r2, #128
 332 0002 014B     		ldr	r3, .L35
 333 0004 1A60     		str	r2, [r3]
 334 0006 7047     		bx	lr
 335              	.L36:
 336              		.align	2
 337              	.L35:
 338 0008 00E200E0 		.word	-536813056
 339              		.cfi_endproc
 340              	.LFE11:
 341              		.size	isr_TransmitWordShift_SetPending, .-isr_TransmitWordShift_SetPending
ARM GAS  C:\Users\EA527~1.IVA\AppData\Local\Temp\cceVEiyv.s 			page 14


 342              		.section	.text.isr_TransmitWordShift_ClearPending,"ax",%progbits
 343              		.align	2
 344              		.global	isr_TransmitWordShift_ClearPending
 345              		.thumb
 346              		.thumb_func
 347              		.type	isr_TransmitWordShift_ClearPending, %function
 348              	isr_TransmitWordShift_ClearPending:
 349              	.LFB12:
 388:Generated_Source\PSoC5/isr_TransmitWordShift.c **** }
 389:Generated_Source\PSoC5/isr_TransmitWordShift.c **** 
 390:Generated_Source\PSoC5/isr_TransmitWordShift.c **** 
 391:Generated_Source\PSoC5/isr_TransmitWordShift.c **** /*******************************************************************************
 392:Generated_Source\PSoC5/isr_TransmitWordShift.c **** * Function Name: isr_TransmitWordShift_ClearPending
 393:Generated_Source\PSoC5/isr_TransmitWordShift.c **** ********************************************************************************
 394:Generated_Source\PSoC5/isr_TransmitWordShift.c **** *
 395:Generated_Source\PSoC5/isr_TransmitWordShift.c **** * Summary:
 396:Generated_Source\PSoC5/isr_TransmitWordShift.c **** *   Clears a pending interrupt in the interrupt controller.
 397:Generated_Source\PSoC5/isr_TransmitWordShift.c **** *
 398:Generated_Source\PSoC5/isr_TransmitWordShift.c **** *   Note Some interrupt sources are clear-on-read and require the block 
 399:Generated_Source\PSoC5/isr_TransmitWordShift.c **** *   interrupt/status register to be read/cleared with the appropriate block API 
 400:Generated_Source\PSoC5/isr_TransmitWordShift.c **** *   (GPIO, UART, and so on). Otherwise the ISR will continue to remain in 
 401:Generated_Source\PSoC5/isr_TransmitWordShift.c **** *   pending state even though the interrupt itself is cleared using this API.
 402:Generated_Source\PSoC5/isr_TransmitWordShift.c **** *
 403:Generated_Source\PSoC5/isr_TransmitWordShift.c **** * Parameters:
 404:Generated_Source\PSoC5/isr_TransmitWordShift.c **** *   None
 405:Generated_Source\PSoC5/isr_TransmitWordShift.c **** *
 406:Generated_Source\PSoC5/isr_TransmitWordShift.c **** * Return:
 407:Generated_Source\PSoC5/isr_TransmitWordShift.c **** *   None
 408:Generated_Source\PSoC5/isr_TransmitWordShift.c **** *
 409:Generated_Source\PSoC5/isr_TransmitWordShift.c **** *******************************************************************************/
 410:Generated_Source\PSoC5/isr_TransmitWordShift.c **** void isr_TransmitWordShift_ClearPending(void)
 411:Generated_Source\PSoC5/isr_TransmitWordShift.c **** {
 350              		.loc 1 411 0
 351              		.cfi_startproc
 352              		@ args = 0, pretend = 0, frame = 0
 353              		@ frame_needed = 0, uses_anonymous_args = 0
 354              		@ link register save eliminated.
 412:Generated_Source\PSoC5/isr_TransmitWordShift.c ****     *isr_TransmitWordShift_INTC_CLR_PD = isr_TransmitWordShift__INTC_MASK;
 355              		.loc 1 412 0
 356 0000 8022     		movs	r2, #128
 357 0002 014B     		ldr	r3, .L38
 358 0004 1A60     		str	r2, [r3]
 359 0006 7047     		bx	lr
 360              	.L39:
 361              		.align	2
 362              	.L38:
 363 0008 80E200E0 		.word	-536812928
 364              		.cfi_endproc
 365              	.LFE12:
 366              		.size	isr_TransmitWordShift_ClearPending, .-isr_TransmitWordShift_ClearPending
 367              		.section	.text.isr_TransmitWordShift_Interrupt,"ax",%progbits
 368              		.align	2
 369              		.global	isr_TransmitWordShift_Interrupt
 370              		.thumb
 371              		.thumb_func
 372              		.type	isr_TransmitWordShift_Interrupt, %function
 373              	isr_TransmitWordShift_Interrupt:
ARM GAS  C:\Users\EA527~1.IVA\AppData\Local\Temp\cceVEiyv.s 			page 15


 374              	.LFB3:
 164:Generated_Source\PSoC5/isr_TransmitWordShift.c ****     #ifdef isr_TransmitWordShift_INTERRUPT_INTERRUPT_CALLBACK
 375              		.loc 1 164 0
 376              		.cfi_startproc
 377              		@ args = 0, pretend = 0, frame = 0
 378              		@ frame_needed = 0, uses_anonymous_args = 0
 379 0000 08B5     		push	{r3, lr}
 380              		.cfi_def_cfa_offset 8
 381              		.cfi_offset 3, -8
 382              		.cfi_offset 14, -4
 172:Generated_Source\PSoC5/isr_TransmitWordShift.c ****         ClearStatus();
 383              		.loc 1 172 0
 384 0002 0122     		movs	r2, #1
 385 0004 054B     		ldr	r3, .L42
 386 0006 1A70     		strb	r2, [r3]
 173:Generated_Source\PSoC5/isr_TransmitWordShift.c ****         BitCounterEnc_ReadStatusRegister();
 387              		.loc 1 173 0
 388 0008 FFF7FEFF 		bl	ClearStatus
 389              	.LVL18:
 174:Generated_Source\PSoC5/isr_TransmitWordShift.c ****         isr_TransmitWordShift_ClearPending();
 390              		.loc 1 174 0
 391 000c FFF7FEFF 		bl	BitCounterEnc_ReadStatusRegister
 392              	.LVL19:
 175:Generated_Source\PSoC5/isr_TransmitWordShift.c ****         isr_TransmitWordShift_Disable();
 393              		.loc 1 175 0
 394 0010 FFF7FEFF 		bl	isr_TransmitWordShift_ClearPending
 395              	.LVL20:
 176:Generated_Source\PSoC5/isr_TransmitWordShift.c ****         
 396              		.loc 1 176 0
 397 0014 FFF7FEFF 		bl	isr_TransmitWordShift_Disable
 398              	.LVL21:
 399 0018 08BD     		pop	{r3, pc}
 400              	.L43:
 401 001a 00BF     		.align	2
 402              	.L42:
 403 001c 00000000 		.word	flag_read_done
 404              		.cfi_endproc
 405              	.LFE3:
 406              		.size	isr_TransmitWordShift_Interrupt, .-isr_TransmitWordShift_Interrupt
 407              		.text
 408              	.Letext0:
 409              		.file 2 "Generated_Source\\PSoC5/cytypes.h"
 410              		.file 3 "./sender.h"
 411              		.file 4 "Generated_Source\\PSoC5/BitCounterEnc.h"
 412              		.file 5 "./line_buf.h"