ARM GAS  C:\Users\EA527~1.IVA\AppData\Local\Temp\cc1zy5zM.s 			page 1


   1              		.syntax unified
   2              		.cpu cortex-m3
   3              		.fpu softvfp
   4              		.eabi_attribute 20, 1
   5              		.eabi_attribute 21, 1
   6              		.eabi_attribute 23, 3
   7              		.eabi_attribute 24, 1
   8              		.eabi_attribute 25, 1
   9              		.eabi_attribute 26, 1
  10              		.eabi_attribute 30, 1
  11              		.eabi_attribute 34, 1
  12              		.eabi_attribute 18, 4
  13              		.thumb
  14              		.syntax unified
  15              		.file	"main.c"
  16              		.text
  17              	.Ltext0:
  18              		.cfi_sections	.debug_frame
  19              		.section	.text.main,"ax",%progbits
  20              		.align	2
  21              		.global	main
  22              		.thumb
  23              		.thumb_func
  24              		.type	main, %function
  25              	main:
  26              	.LFB63:
  27              		.file 1 "main.c"
   1:main.c        **** /* ========================================
   2:main.c        ****  *
   3:main.c        ****  * Copyright YOUR COMPANY, THE YEAR
   4:main.c        ****  * All Rights Reserved
   5:main.c        ****  * UNPUBLISHED, LICENSED SOFTWARE.
   6:main.c        ****  *
   7:main.c        ****  * CONFIDENTIAL AND PROPRIETARY INFORMATION
   8:main.c        ****  * WHICH IS THE PROPERTY OF your company.
   9:main.c        ****  *
  10:main.c        ****  * ========================================
  11:main.c        **** */
  12:main.c        **** 
  13:main.c        **** 
  14:main.c        **** #include <global.h>
  15:main.c        **** #include "sender.h"
  16:main.c        **** #include "reciver.h"
  17:main.c        **** #include <Clock.h>
  18:main.c        **** #include <BitCounterDec.h>
  19:main.c        **** #include <line_buf.h>
  20:main.c        **** #include <SPI_ADC_ADS131E08.h>
  21:main.c        **** #include <FirstFrame.h>
  22:main.c        **** #include <ControlFrame.h>
  23:main.c        **** 
  24:main.c        **** uint32 incr_compare = 512; // –∑–∞–≤–∏—Å–∏—Ç –æ—Ç —Ç–æ–π —á–∞—Å—Ç–æ—Ç—ã, –∫–æ—Ç–æ—Ä—É—é –º—ã —Ö–æ—Ç
  25:main.c        **** 
  26:main.c        **** uint32 massage[1] = { 0xFAAAAAAF };
  27:main.c        **** 
  28:main.c        **** const uint32 main_freq =  72000000LL;
  29:main.c        **** const uint32 desired_freq  = 4096000LL;
  30:main.c        **** const uint32 low_freq  = 3400000LL;
ARM GAS  C:\Users\EA527~1.IVA\AppData\Local\Temp\cc1zy5zM.s 			page 2


  31:main.c        **** const uint32 high_freq  = 4500000LL;
  32:main.c        **** const uint32 divider_freq = (8LL);
  33:main.c        **** const uint32 capacity = (0xffLL);  //capacity battery
  34:main.c        **** const uint16 comp_capacity = 4096;
  35:main.c        **** 
  36:main.c        **** uint8 test_reg, test_reg2;
  37:main.c        **** 
  38:main.c        **** uint32 divide_stay;
  39:main.c        **** 
  40:main.c        **** 
  41:main.c        **** #define LENGTH_OF(Array) (sizeof(Array)/sizeof(Array[0]))
  42:main.c        **** 
  43:main.c        **** volatile long   NewFrequency;
  44:main.c        **** long   LowFrequency;
  45:main.c        **** long   HighFrequency;
  46:main.c        **** uint32 DRDY_flag = 0;
  47:main.c        **** 
  48:main.c        **** control_ind_adc_frame ind_control_adc;
  49:main.c        **** control_gen_adc_frame gen_control;
  50:main.c        **** 
  51:main.c        **** adc_regim_set ADS131E08_CurSet = {ADS131E08_CONFIG1_DEFAULT, ADS131E08_CONFIG2_DEFAULT, ADS131E08_C
  52:main.c        ****                                     ADS131E08_CHSET_DEFAULT, ADS131E08_CHSET_DEFAULT, ADS131E08_CHS
  53:main.c        ****                                     ADS131E08_CHSET_POWERDOWN, ADS131E08_CHSET_POWERDOWN, ADS131E08
  54:main.c        **** 
  55:main.c        **** int main(void)
  56:main.c        **** 
  57:main.c        **** {    
  28              		.loc 1 57 0
  29              		.cfi_startproc
  30              		@ args = 0, pretend = 0, frame = 0
  31              		@ frame_needed = 0, uses_anonymous_args = 0
  32 0000 38B5     		push	{r3, r4, r5, lr}
  33              		.cfi_def_cfa_offset 16
  34              		.cfi_offset 3, -16
  35              		.cfi_offset 4, -12
  36              		.cfi_offset 5, -8
  37              		.cfi_offset 14, -4
  58:main.c        ****     
  59:main.c        ****     incr_compare = desired_freq / 1L;
  38              		.loc 1 59 0
  39 0002 4FF47A12 		mov	r2, #4096000
  40 0006 7B4B     		ldr	r3, .L14
  41 0008 1A60     		str	r2, [r3]
  60:main.c        **** 
  61:main.c        ****     NewFrequency = ( long long ) capacity * divider_freq * desired_freq / (1 * main_freq);    //977
  42              		.loc 1 61 0
  43 000a 7422     		movs	r2, #116
  44 000c 7A4B     		ldr	r3, .L14+4
  45 000e 1A60     		str	r2, [r3]
  62:main.c        ****     LowFrequency = ( long long ) capacity * low_freq * divider_freq / (1 * main_freq);
  46              		.loc 1 62 0
  47 0010 6022     		movs	r2, #96
  48 0012 7A4B     		ldr	r3, .L14+8
  49 0014 1A60     		str	r2, [r3]
  63:main.c        ****     HighFrequency = ( long long ) capacity * high_freq * divider_freq / (1 * main_freq);
  50              		.loc 1 63 0
  51 0016 7F22     		movs	r2, #127
ARM GAS  C:\Users\EA527~1.IVA\AppData\Local\Temp\cc1zy5zM.s 			page 3


  52 0018 794B     		ldr	r3, .L14+12
  53 001a 1A60     		str	r2, [r3]
  64:main.c        ****     
  65:main.c        ****     CyGlobalIntDisable; /* Enable global interrupts. */
  54              		.loc 1 65 0
  55              		.syntax unified
  56              	@ 65 "main.c" 1
  57 001c 72B6     		CPSID   i
  58              	@ 0 "" 2
  66:main.c        ****     /* Place your initialization/startup code here (e.g. MyInst_Start()) */
  67:main.c        ****     
  68:main.c        ****     // Init Encoder devices
  69:main.c        ****     TransmitShiftReg_Start( );
  59              		.loc 1 69 0
  60              		.thumb
  61              		.syntax unified
  62 001e FFF7FEFF 		bl	TransmitShiftReg_Start
  63              	.LVL0:
  70:main.c        ****     BitCounterEnc_Start( );
  64              		.loc 1 70 0
  65 0022 FFF7FEFF 		bl	BitCounterEnc_Start
  66              	.LVL1:
  71:main.c        ****     
  72:main.c        **** 	// Init Decoder devices
  73:main.c        **** 	RecieveShiftReg_Start() ;
  67              		.loc 1 73 0
  68 0026 FFF7FEFF 		bl	RecieveShiftReg_Start
  69              	.LVL2:
  74:main.c        **** 	Waiter_Start() ;
  70              		.loc 1 74 0
  71 002a FFF7FEFF 		bl	Waiter_Start
  72              	.LVL3:
  75:main.c        ****     BitCounterDec_Start() ;
  73              		.loc 1 75 0
  74 002e FFF7FEFF 		bl	BitCounterDec_Start
  75              	.LVL4:
  76:main.c        ****     VDAC8_1_Start();
  76              		.loc 1 76 0
  77 0032 FFF7FEFF 		bl	VDAC8_1_Start
  78              	.LVL5:
  77:main.c        ****     Comp_1_Start();
  79              		.loc 1 77 0
  80 0036 FFF7FEFF 		bl	Comp_1_Start
  81              	.LVL6:
  78:main.c        ****     Comp_2_Start();
  82              		.loc 1 78 0
  83 003a FFF7FEFF 		bl	Comp_2_Start
  84              	.LVL7:
  79:main.c        ****     Opamp_1_Start();
  85              		.loc 1 79 0
  86 003e FFF7FEFF 		bl	Opamp_1_Start
  87              	.LVL8:
  80:main.c        ****     
  81:main.c        ****     // Init Clock devices
  82:main.c        ****     Period_Start();
  88              		.loc 1 82 0
  89 0042 FFF7FEFF 		bl	Period_Start
ARM GAS  C:\Users\EA527~1.IVA\AppData\Local\Temp\cc1zy5zM.s 			page 4


  90              	.LVL9:
  83:main.c        ****     SigmaReg_Start();
  91              		.loc 1 83 0
  92 0046 FFF7FEFF 		bl	SigmaReg_Start
  93              	.LVL10:
  84:main.c        ****     Boundary8bit_Start();
  94              		.loc 1 84 0
  95 004a FFF7FEFF 		bl	Boundary8bit_Start
  96              	.LVL11:
  85:main.c        **** 
  86:main.c        ****     SPI_ADC_Start();
  97              		.loc 1 86 0
  98 004e FFF7FEFF 		bl	SPI_ADC_Start
  99              	.LVL12:
  87:main.c        ****     
  88:main.c        ****     // Init Interrupte
  89:main.c        ****     
  90:main.c        ****     cap_comp_tc_Start();
 100              		.loc 1 90 0
 101 0052 FFF7FEFF 		bl	cap_comp_tc_Start
 102              	.LVL13:
  91:main.c        ****     EndFrame_Start();
 103              		.loc 1 91 0
 104 0056 FFF7FEFF 		bl	EndFrame_Start
 105              	.LVL14:
  92:main.c        ****     isr_Load_TrShReg_Start();
 106              		.loc 1 92 0
 107 005a FFF7FEFF 		bl	isr_Load_TrShReg_Start
 108              	.LVL15:
  93:main.c        **** 	WordShifted_Start();
 109              		.loc 1 93 0
 110 005e FFF7FEFF 		bl	WordShifted_Start
 111              	.LVL16:
  94:main.c        ****     isr_TransmitWordShift_Start( );
 112              		.loc 1 94 0
 113 0062 FFF7FEFF 		bl	isr_TransmitWordShift_Start
 114              	.LVL17:
  95:main.c        ****     isr_TransmitWordShift_Disable( );
 115              		.loc 1 95 0
 116 0066 FFF7FEFF 		bl	isr_TransmitWordShift_Disable
 117              	.LVL18:
  96:main.c        ****     Capture_low_InterruptEnable();
 118              		.loc 1 96 0
 119 006a FFF7FEFF 		bl	Capture_low_InterruptEnable
 120              	.LVL19:
  97:main.c        ****     isr_DRDY_Start();
 121              		.loc 1 97 0
 122 006e FFF7FEFF 		bl	isr_DRDY_Start
 123              	.LVL20:
  98:main.c        ****     
  99:main.c        ****     CyGlobalIntEnable; /* Enable global interrupts. */
 124              		.loc 1 99 0
 125              		.syntax unified
 126              	@ 99 "main.c" 1
 127 0072 62B6     		CPSIE   i
 128              	@ 0 "" 2
 100:main.c        ****     
ARM GAS  C:\Users\EA527~1.IVA\AppData\Local\Temp\cc1zy5zM.s 			page 5


 101:main.c        ****     
 102:main.c        ****     PrepareToSend();
 129              		.loc 1 102 0
 130              		.thumb
 131              		.syntax unified
 132 0074 FFF7FEFF 		bl	PrepareToSend
 133              	.LVL21:
 103:main.c        ****     Send();
 134              		.loc 1 103 0
 135 0078 FFF7FEFF 		bl	Send
 136              	.LVL22:
 104:main.c        ****     FrameAllow_Write(0);
 137              		.loc 1 104 0
 138 007c 0020     		movs	r0, #0
 139 007e FFF7FEFF 		bl	FrameAllow_Write
 140              	.LVL23:
 141              	.L2:
 105:main.c        ****     
 106:main.c        ****     while(status==TRBUSY);
 142              		.loc 1 106 0 discriminator 1
 143 0082 604B     		ldr	r3, .L14+16
 144 0084 1B68     		ldr	r3, [r3]
 145 0086 002B     		cmp	r3, #0
 146 0088 FBD0     		beq	.L2
 107:main.c        ****     
 108:main.c        ****     FrameAllow_Write(1);
 147              		.loc 1 108 0
 148 008a 0120     		movs	r0, #1
 149 008c FFF7FEFF 		bl	FrameAllow_Write
 150              	.LVL24:
 109:main.c        ****            
 110:main.c        ****     UpdateFrequency(NewFrequency); 
 151              		.loc 1 110 0
 152 0090 594B     		ldr	r3, .L14+4
 153 0092 1868     		ldr	r0, [r3]
 154 0094 FFF7FEFF 		bl	UpdateFrequency
 155              	.LVL25:
 111:main.c        ****     
 112:main.c        ****     /*Call func PrepareToStore until initialisation*/
 113:main.c        ****     PrepareToStore();
 156              		.loc 1 113 0
 157 0098 FFF7FEFF 		bl	PrepareToStore
 158              	.LVL26:
 114:main.c        ****     
 115:main.c        ****     result cur_result = ERROR;
 116:main.c        ****     
 117:main.c        ****     //Setting time sinc adc DRDY
 118:main.c        ****     
 119:main.c        ****     divide_stay = (ADS131E08_SetTime_1KSPS * 2) % comp_capacity;
 159              		.loc 1 119 0
 160 009c 4FF40162 		mov	r2, #2064
 161 00a0 594B     		ldr	r3, .L14+20
 162 00a2 1A60     		str	r2, [r3]
 120:main.c        ****     
 121:main.c        ****     
 122:main.c        ****     //SPI_ADC_ADS131E08_RESET;
 123:main.c        ****     //SPI_ADC_ADS131E08_OFFSETCAL;
ARM GAS  C:\Users\EA527~1.IVA\AppData\Local\Temp\cc1zy5zM.s 			page 6


 124:main.c        ****     SPI_ADC_ADS131E08_SDataC;
 163              		.loc 1 124 0
 164 00a4 1120     		movs	r0, #17
 165 00a6 FFF7FEFF 		bl	SPI_ADC_ADS131E08_SendAnyCommand
 166              	.LVL27:
 167              	.LBB2:
 125:main.c        ****     
 126:main.c        ****     for (uint8 i=0; i < 12; i++){
 168              		.loc 1 126 0
 169 00aa 0025     		movs	r5, #0
 170 00ac 0AE0     		b	.L3
 171              	.LVL28:
 172              	.L4:
 127:main.c        ****         do{
 128:main.c        ****             cur_result = SPI_ADC_ADS131E08_WReg_Check(ADS131E08_CurSet.array[i],ADS131E08_CONFIG1_A
 173              		.loc 1 128 0 discriminator 1
 174 00ae 514B     		ldr	r3, .L14
 175 00b0 2B44     		add	r3, r3, r5
 176 00b2 6C1C     		adds	r4, r5, #1
 177 00b4 E4B2     		uxtb	r4, r4
 178 00b6 2146     		mov	r1, r4
 179 00b8 1879     		ldrb	r0, [r3, #4]	@ zero_extendqisi2
 180 00ba FFF7FEFF 		bl	SPI_ADC_ADS131E08_WReg_Check
 181              	.LVL29:
 129:main.c        ****         }while(cur_result == ERROR);
 182              		.loc 1 129 0 discriminator 1
 183 00be 0028     		cmp	r0, #0
 184 00c0 F5D0     		beq	.L4
 126:main.c        ****         do{
 185              		.loc 1 126 0
 186 00c2 2546     		mov	r5, r4
 187              	.LVL30:
 188              	.L3:
 126:main.c        ****         do{
 189              		.loc 1 126 0 is_stmt 0 discriminator 1
 190 00c4 0B2D     		cmp	r5, #11
 191 00c6 F2D9     		bls	.L4
 192              	.LBE2:
 130:main.c        ****     }
 131:main.c        ****     /*
 132:main.c        ****     cur_result = SPI_ADC_ADS131E08_WReg_Check(ADS131E08_CONFIG1_DEFAULT,ADS131E08_CONFIG1_ADDRESS);
 133:main.c        ****     cur_result = SPI_ADC_ADS131E08_WReg_Check(ADS131E08_CONFIG2_DEFAULT,ADS131E08_CONFIG2_ADDRESS);
 134:main.c        ****     cur_result = SPI_ADC_ADS131E08_WReg_Check(ADS131E08_CONFIG3_DEFAULT,ADS131E08_CONFIG3_ADDRESS);
 135:main.c        ****     cur_result = SPI_ADC_ADS131E08_WReg_Check(ADS131E08_FAULT_DEFAULT,ADS131E08_FAULT_ADDRESS);
 136:main.c        ****     cur_result = SPI_ADC_ADS131E08_WReg_Check(ADS131E08_CHSET_DEFAULT,ADS131E08_CH1SET_ADDRESS);
 137:main.c        ****     cur_result = SPI_ADC_ADS131E08_WReg_Check(ADS131E08_CHSET_DEFAULT,ADS131E08_CH2SET_ADDRESS);
 138:main.c        ****     cur_result = SPI_ADC_ADS131E08_WReg_Check(ADS131E08_CHSET_DEFAULT,ADS131E08_CH3SET_ADDRESS);
 139:main.c        ****     cur_result = SPI_ADC_ADS131E08_WReg_Check(ADS131E08_CHSET_DEFAULT,ADS131E08_CH4SET_ADDRESS);
 140:main.c        ****     cur_result = SPI_ADC_ADS131E08_WReg_Check(ADS131E08_CHSET_POWERDOWN,ADS131E08_CH5SET_ADDRESS);
 141:main.c        ****     cur_result = SPI_ADC_ADS131E08_WReg_Check(ADS131E08_CHSET_POWERDOWN,ADS131E08_CH6SET_ADDRESS);
 142:main.c        ****     cur_result = SPI_ADC_ADS131E08_WReg_Check(ADS131E08_CHSET_POWERDOWN,ADS131E08_CH7SET_ADDRESS);
 143:main.c        ****     cur_result = SPI_ADC_ADS131E08_WReg_Check(ADS131E08_CHSET_POWERDOWN,ADS131E08_CH8SET_ADDRESS);
 144:main.c        ****     */
 145:main.c        ****     //SPI_ADC_ADS131E08_RData;
 146:main.c        ****     
 147:main.c        ****     Comp_low_Write((uint8)divide_stay);
 193              		.loc 1 147 0 is_stmt 1
ARM GAS  C:\Users\EA527~1.IVA\AppData\Local\Temp\cc1zy5zM.s 			page 7


 194 00c8 4F4C     		ldr	r4, .L14+20
 195 00ca 2078     		ldrb	r0, [r4]	@ zero_extendqisi2
 196 00cc FFF7FEFF 		bl	Comp_low_Write
 197              	.LVL31:
 148:main.c        ****     divide_stay >>= 8; 
 198              		.loc 1 148 0
 199 00d0 2068     		ldr	r0, [r4]
 200 00d2 000A     		lsrs	r0, r0, #8
 201 00d4 2060     		str	r0, [r4]
 149:main.c        ****     Comp_high_Write((uint8)divide_stay);
 202              		.loc 1 149 0
 203 00d6 C0B2     		uxtb	r0, r0
 204 00d8 FFF7FEFF 		bl	Comp_high_Write
 205              	.LVL32:
 150:main.c        ****     
 151:main.c        ****     Control_Capture_3_Write(3);
 206              		.loc 1 151 0
 207 00dc 0320     		movs	r0, #3
 208 00de FFF7FEFF 		bl	Control_Capture_3_Write
 209              	.LVL33:
 152:main.c        ****     Control_Capture_3_Write(1);
 210              		.loc 1 152 0
 211 00e2 0120     		movs	r0, #1
 212 00e4 FFF7FEFF 		bl	Control_Capture_3_Write
 213              	.LVL34:
 153:main.c        ****     UpdateFrequency(NewFrequency);
 214              		.loc 1 153 0
 215 00e8 434B     		ldr	r3, .L14+4
 216 00ea 1868     		ldr	r0, [r3]
 217 00ec FFF7FEFF 		bl	UpdateFrequency
 218              	.LVL35:
 219              	.L5:
 154:main.c        ****     
 155:main.c        ****     while(1) 
 156:main.c        ****     {
 157:main.c        ****         
 158:main.c        ****         if (UpdateFrequencyFlag != 0){
 220              		.loc 1 158 0
 221 00f0 464B     		ldr	r3, .L14+24
 222 00f2 1B68     		ldr	r3, [r3]
 223 00f4 5BB1     		cbz	r3, .L6
 159:main.c        ****             PrepareNewFrequency();
 224              		.loc 1 159 0
 225 00f6 FFF7FEFF 		bl	PrepareNewFrequency
 226              	.LVL36:
 160:main.c        ****             if(UpdateFrequencyFlag != 0){
 227              		.loc 1 160 0
 228 00fa 444B     		ldr	r3, .L14+24
 229 00fc 1B68     		ldr	r3, [r3]
 230 00fe 33B1     		cbz	r3, .L6
 161:main.c        ****                 UpdateFrequency(NewFrequency);
 231              		.loc 1 161 0
 232 0100 3D4B     		ldr	r3, .L14+4
 233 0102 1868     		ldr	r0, [r3]
 234 0104 FFF7FEFF 		bl	UpdateFrequency
 235              	.LVL37:
 162:main.c        ****                 UpdateFrequencyFlag = 0;
ARM GAS  C:\Users\EA527~1.IVA\AppData\Local\Temp\cc1zy5zM.s 			page 8


 236              		.loc 1 162 0
 237 0108 0022     		movs	r2, #0
 238 010a 404B     		ldr	r3, .L14+24
 239 010c 1A60     		str	r2, [r3]
 240              	.L6:
 163:main.c        ****             }
 164:main.c        ****         }
 165:main.c        ****         
 166:main.c        ****         if (DRDY_flag){
 241              		.loc 1 166 0
 242 010e 404B     		ldr	r3, .L14+28
 243 0110 1B68     		ldr	r3, [r3]
 244 0112 43B1     		cbz	r3, .L7
 167:main.c        ****             DRDY_flag=0;
 245              		.loc 1 167 0
 246 0114 0022     		movs	r2, #0
 247 0116 3E4B     		ldr	r3, .L14+28
 248 0118 1A60     		str	r2, [r3]
 168:main.c        ****             SPI_Data_ADS131E08[0] = ADS131E08_RDATA;
 249              		.loc 1 168 0
 250 011a 3E48     		ldr	r0, .L14+32
 251 011c 1223     		movs	r3, #18
 252 011e 0360     		str	r3, [r0]
 169:main.c        ****             SPI_Transaction((uint8*) SPI_Data_ADS131E08, ADC_SPI_PACKET_LENGTH); // may be optimize
 253              		.loc 1 169 0
 254 0120 1021     		movs	r1, #16
 255 0122 FFF7FEFF 		bl	SPI_Transaction
 256              	.LVL38:
 257              	.L7:
 170:main.c        ****         }
 171:main.c        ****         
 172:main.c        ****         /*TO DO     ===============================================
 173:main.c        ****          *   1 –ü—Ä–æ–∞–Ω–∞–ª–∏–∑–∏—Ä–æ–≤—Ç—å —Ñ–ª–∞–≥ –≥–æ—Ç–æ–≤–Ω–æ—Å—Ç–∏ –ê–¶–ü –∏ –ø—Ä–æ—á–∏—Ç–
 174:main.c        ****          *   2 –æ–ø—Ä–æ—Å–∏—Ç—å –∞–∫—Å–µ–ª–µ—Ä–æ–º–µ—Ç—Ä –∏ –ø–æ–¥–≥–æ—Ç–æ–≤–∏—Ç—å —É—Å—Ä–µ–¥–Ω–µ–Ω
 175:main.c        ****          *   ======================================================
 176:main.c        ****         */
 177:main.c        ****         
 178:main.c        ****         /*  ======================================================
 179:main.c        ****          *   flag_write_done set 1 in EndFrame interrupte
 180:main.c        ****          *   flag_read_done set 1 in isr_Load_TrShReg interrupte
 181:main.c        ****          *  ======================================================
 182:main.c        ****         */
 183:main.c        ****         if ((flag_read_done == 1) && (flag_write_done == 1)){
 258              		.loc 1 183 0
 259 0126 3C4B     		ldr	r3, .L14+36
 260 0128 1B78     		ldrb	r3, [r3]	@ zero_extendqisi2
 261 012a DBB2     		uxtb	r3, r3
 262 012c 012B     		cmp	r3, #1
 263 012e DFD1     		bne	.L5
 264              		.loc 1 183 0 is_stmt 0 discriminator 1
 265 0130 3A4B     		ldr	r3, .L14+40
 266 0132 1B78     		ldrb	r3, [r3]	@ zero_extendqisi2
 267 0134 DBB2     		uxtb	r3, r3
 268 0136 012B     		cmp	r3, #1
 269 0138 DAD1     		bne	.L5
 184:main.c        ****             flag_read_done = 0;
 270              		.loc 1 184 0 is_stmt 1
ARM GAS  C:\Users\EA527~1.IVA\AppData\Local\Temp\cc1zy5zM.s 			page 9


 271 013a 0023     		movs	r3, #0
 272 013c 364A     		ldr	r2, .L14+36
 273 013e 1370     		strb	r3, [r2]
 185:main.c        ****             flag_write_done = 0;
 274              		.loc 1 185 0
 275 0140 364A     		ldr	r2, .L14+40
 276 0142 1370     		strb	r3, [r2]
 186:main.c        ****             /*copy least control frame*/
 187:main.c        ****             
 188:main.c        ****             
 189:main.c        ****             if((line_buf[PACKET_LENGTH - 4] & FRAME_TAG_MASK) == FRAME_TAG_CONTROL){
 190:main.c        ****                 if ((line_buf[PACKET_LENGTH - 4] & SUBFRAME_TAG_MASK) == SUBFRAME_TAG_IND_CONTROL)
 191:main.c        ****                     memcpy(&ind_control_adc, (void*) &line_buf[PACKET_LENGTH - 4], 4);
 192:main.c        ****                 if ((line_buf[PACKET_LENGTH - 4] & SUBFRAME_TAG_MASK) == SUBFRAME_TAG_GEN_CONTROL)
 193:main.c        ****                     memcpy(&gen_control, (void*) &line_buf[PACKET_LENGTH - 4], 4);
 194:main.c        ****             }
 195:main.c        ****             
 196:main.c        ****             
 197:main.c        ****             /*TO DO
 198:main.c        ****             1 –ü—Ä–æ–∞–Ω–∞–ª–∏–∑–∏—Ä–æ–≤—Ç—å —Ñ—Ä–µ–π–º —É–ø—Ä–∞–≤–ª–µ–Ω–∏—è –∏ –∏—Å–ø–æ–ª–Ω–∏—Ç—å 
 199:main.c        ****             2 –ü–æ–¥–≥–æ—Ç–æ–≤–∏—Ç—å —Ñ—Ä–µ–π–º –¥–ª—è –ø–µ—Ä–µ–¥–∞—á–∏ –∏ –∑–∞–≥—Ä—É–∑–∏—Ç—å –≤ FI
 200:main.c        ****             */
 201:main.c        ****             if(ADC_SPI_PACKET_LENGTH <= SPI_ADC_GetRxBufferSize()){
 277              		.loc 1 201 0
 278 0144 FFF7FEFF 		bl	SPI_ADC_GetRxBufferSize
 279              	.LVL39:
 280 0148 0F28     		cmp	r0, #15
 281 014a 07D8     		bhi	.L12
 282 014c 47E0     		b	.L10
 283              	.LVL40:
 284              	.L11:
 285              	.LBB3:
 202:main.c        ****                 // may be optimize for ignore read pwdown chanels adc
 203:main.c        ****                 for (int i = 0; i < ADC_SPI_PACKET_LENGTH; i++){
 204:main.c        ****                     SPI_Data_ADS131E08[i] = SPI_ADC_ReadRxData();
 286              		.loc 1 204 0 discriminator 3
 287 014e FFF7FEFF 		bl	SPI_ADC_ReadRxData
 288              	.LVL41:
 289 0152 304B     		ldr	r3, .L14+32
 290 0154 43F82400 		str	r0, [r3, r4, lsl #2]
 203:main.c        ****                     SPI_Data_ADS131E08[i] = SPI_ADC_ReadRxData();
 291              		.loc 1 203 0 discriminator 3
 292 0158 0134     		adds	r4, r4, #1
 293              	.LVL42:
 294 015a 00E0     		b	.L9
 295              	.LVL43:
 296              	.L12:
 297              	.LBE3:
 298 015c 0024     		movs	r4, #0
 299              	.L9:
 300              	.LVL44:
 301              	.LBB4:
 203:main.c        ****                     SPI_Data_ADS131E08[i] = SPI_ADC_ReadRxData();
 302              		.loc 1 203 0 is_stmt 0 discriminator 1
 303 015e 0F2C     		cmp	r4, #15
 304 0160 F5DD     		ble	.L11
 305              	.LBE4:
ARM GAS  C:\Users\EA527~1.IVA\AppData\Local\Temp\cc1zy5zM.s 			page 10


 205:main.c        ****                 }
 206:main.c        ****                 Data_ADS131E08.RData = SPI_Data_ADS131E08[0];
 306              		.loc 1 206 0 is_stmt 1
 307 0162 2C4B     		ldr	r3, .L14+32
 308 0164 1968     		ldr	r1, [r3]
 309 0166 2E4A     		ldr	r2, .L14+44
 310 0168 1170     		strb	r1, [r2]
 207:main.c        ****                 Data_ADS131E08.adc_status = SPI_Data_ADS131E08[3] | (SPI_Data_ADS131E08[2] << 8) | 
 311              		.loc 1 207 0
 312 016a D968     		ldr	r1, [r3, #12]
 313 016c 9868     		ldr	r0, [r3, #8]
 314 016e 41EA0021 		orr	r1, r1, r0, lsl #8
 315 0172 5868     		ldr	r0, [r3, #4]
 316 0174 41EA0041 		orr	r1, r1, r0, lsl #16
 317 0178 1068     		ldr	r0, [r2]
 318 017a 61F31F20 		bfi	r0, r1, #8, #24
 319 017e 1060     		str	r0, [r2]
 208:main.c        ****                 Data_ADS131E08.data_ch1 = SPI_Data_ADS131E08[6] | (SPI_Data_ADS131E08[5] << 8) | (S
 320              		.loc 1 208 0
 321 0180 9969     		ldr	r1, [r3, #24]
 322 0182 5869     		ldr	r0, [r3, #20]
 323 0184 41EA0021 		orr	r1, r1, r0, lsl #8
 324 0188 1869     		ldr	r0, [r3, #16]
 325 018a 41EA0041 		orr	r1, r1, r0, lsl #16
 326 018e 5068     		ldr	r0, [r2, #4]
 327 0190 61F31700 		bfi	r0, r1, #0, #24
 328 0194 5060     		str	r0, [r2, #4]
 209:main.c        ****                 Data_ADS131E08.data_ch2 = SPI_Data_ADS131E08[9] | (SPI_Data_ADS131E08[8] << 8) | (S
 329              		.loc 1 209 0
 330 0196 596A     		ldr	r1, [r3, #36]
 331 0198 186A     		ldr	r0, [r3, #32]
 332 019a 41EA0021 		orr	r1, r1, r0, lsl #8
 333 019e D869     		ldr	r0, [r3, #28]
 334 01a0 41EA0041 		orr	r1, r1, r0, lsl #16
 335 01a4 9068     		ldr	r0, [r2, #8]
 336 01a6 61F31700 		bfi	r0, r1, #0, #24
 337 01aa 9060     		str	r0, [r2, #8]
 210:main.c        ****                 Data_ADS131E08.data_ch3 = SPI_Data_ADS131E08[12] | (SPI_Data_ADS131E08[11] << 8) | 
 338              		.loc 1 210 0
 339 01ac 196B     		ldr	r1, [r3, #48]
 340 01ae D86A     		ldr	r0, [r3, #44]
 341 01b0 41EA0021 		orr	r1, r1, r0, lsl #8
 342 01b4 986A     		ldr	r0, [r3, #40]
 343 01b6 41EA0041 		orr	r1, r1, r0, lsl #16
 344 01ba D068     		ldr	r0, [r2, #12]
 345 01bc 61F31700 		bfi	r0, r1, #0, #24
 346 01c0 D060     		str	r0, [r2, #12]
 211:main.c        ****                 Data_ADS131E08.data_ch4 = SPI_Data_ADS131E08[15] | (SPI_Data_ADS131E08[14] << 8) | 
 347              		.loc 1 211 0
 348 01c2 D96B     		ldr	r1, [r3, #60]
 349 01c4 986B     		ldr	r0, [r3, #56]
 350 01c6 41EA0021 		orr	r1, r1, r0, lsl #8
 351 01ca 5B6B     		ldr	r3, [r3, #52]
 352 01cc 41EA0341 		orr	r1, r1, r3, lsl #16
 353 01d0 1369     		ldr	r3, [r2, #16]
 354 01d2 61F31703 		bfi	r3, r1, #0, #24
 355 01d6 1361     		str	r3, [r2, #16]
ARM GAS  C:\Users\EA527~1.IVA\AppData\Local\Temp\cc1zy5zM.s 			page 11


 212:main.c        ****                 last_adc_data_sended = 0;
 356              		.loc 1 212 0
 357 01d8 0022     		movs	r2, #0
 358 01da 124B     		ldr	r3, .L14+48
 359 01dc 1A60     		str	r2, [r3]
 360              	.LVL45:
 361              	.L10:
 213:main.c        ****             }
 214:main.c        ****             
 215:main.c        ****             PrepareFirstFrame();
 362              		.loc 1 215 0
 363 01de FFF7FEFF 		bl	PrepareFirstFrame
 364              	.LVL46:
 216:main.c        ****             CopyFirstFrame();
 365              		.loc 1 216 0
 366 01e2 FFF7FEFF 		bl	CopyFirstFrame
 367              	.LVL47:
 217:main.c        ****             PrepareToStore();
 368              		.loc 1 217 0
 369 01e6 FFF7FEFF 		bl	PrepareToStore
 370              	.LVL48:
 218:main.c        ****             
 219:main.c        ****             PrepareToSend();
 371              		.loc 1 219 0
 372 01ea FFF7FEFF 		bl	PrepareToSend
 373              	.LVL49:
 220:main.c        ****             Send();
 374              		.loc 1 220 0
 375 01ee FFF7FEFF 		bl	Send
 376              	.LVL50:
 377 01f2 7DE7     		b	.L5
 378              	.L15:
 379              		.align	2
 380              	.L14:
 381 01f4 00000000 		.word	.LANCHOR0
 382 01f8 00000000 		.word	NewFrequency
 383 01fc 00000000 		.word	LowFrequency
 384 0200 00000000 		.word	HighFrequency
 385 0204 00000000 		.word	status
 386 0208 00000000 		.word	divide_stay
 387 020c 00000000 		.word	UpdateFrequencyFlag
 388 0210 00000000 		.word	.LANCHOR1
 389 0214 00000000 		.word	SPI_Data_ADS131E08
 390 0218 00000000 		.word	flag_read_done
 391 021c 00000000 		.word	flag_write_done
 392 0220 00000000 		.word	Data_ADS131E08
 393 0224 00000000 		.word	last_adc_data_sended
 394              		.cfi_endproc
 395              	.LFE63:
 396              		.size	main, .-main
 397              		.global	ADS131E08_CurSet
 398              		.comm	gen_control,16,4
 399              		.comm	ind_control_adc,16,4
 400              		.global	DRDY_flag
 401              		.comm	HighFrequency,4,4
 402              		.comm	LowFrequency,4,4
 403              		.comm	NewFrequency,4,4
ARM GAS  C:\Users\EA527~1.IVA\AppData\Local\Temp\cc1zy5zM.s 			page 12


 404              		.comm	divide_stay,4,4
 405              		.comm	test_reg2,1,1
 406              		.comm	test_reg,1,1
 407              		.global	comp_capacity
 408              		.global	capacity
 409              		.global	divider_freq
 410              		.global	high_freq
 411              		.global	low_freq
 412              		.global	desired_freq
 413              		.global	main_freq
 414              		.global	massage
 415              		.global	incr_compare
 416              		.section	.rodata
 417              		.align	2
 418              		.type	comp_capacity, %object
 419              		.size	comp_capacity, 2
 420              	comp_capacity:
 421 0000 0010     		.short	4096
 422 0002 0000     		.space	2
 423              		.type	capacity, %object
 424              		.size	capacity, 4
 425              	capacity:
 426 0004 FF000000 		.word	255
 427              		.type	divider_freq, %object
 428              		.size	divider_freq, 4
 429              	divider_freq:
 430 0008 08000000 		.word	8
 431              		.type	high_freq, %object
 432              		.size	high_freq, 4
 433              	high_freq:
 434 000c 20AA4400 		.word	4500000
 435              		.type	low_freq, %object
 436              		.size	low_freq, 4
 437              	low_freq:
 438 0010 40E13300 		.word	3400000
 439              		.type	desired_freq, %object
 440              		.size	desired_freq, 4
 441              	desired_freq:
 442 0014 00803E00 		.word	4096000
 443              		.type	main_freq, %object
 444              		.size	main_freq, 4
 445              	main_freq:
 446 0018 00A24A04 		.word	72000000
 447              		.data
 448              		.align	2
 449              		.set	.LANCHOR0,. + 0
 450              		.type	incr_compare, %object
 451              		.size	incr_compare, 4
 452              	incr_compare:
 453 0000 00020000 		.word	512
 454              		.type	ADS131E08_CurSet, %object
 455              		.size	ADS131E08_CurSet, 12
 456              	ADS131E08_CurSet:
 457 0004 96       		.byte	-106
 458 0005 E0       		.byte	-32
 459 0006 CC       		.byte	-52
 460 0007 00       		.byte	0
ARM GAS  C:\Users\EA527~1.IVA\AppData\Local\Temp\cc1zy5zM.s 			page 13


 461 0008 10       		.byte	16
 462 0009 10       		.byte	16
 463 000a 10       		.byte	16
 464 000b 10       		.byte	16
 465 000c 90       		.byte	-112
 466 000d 90       		.byte	-112
 467 000e 90       		.byte	-112
 468 000f 90       		.byte	-112
 469              		.type	massage, %object
 470              		.size	massage, 4
 471              	massage:
 472 0010 AFAAAAFA 		.word	-89478481
 473              		.bss
 474              		.align	2
 475              		.set	.LANCHOR1,. + 0
 476              		.type	DRDY_flag, %object
 477              		.size	DRDY_flag, 4
 478              	DRDY_flag:
 479 0000 00000000 		.space	4
 480              		.text
 481              	.Letext0:
 482              		.file 2 "c:\\program files (x86)\\cypress\\psoc creator\\4.2\\psoc creator\\import\\gnu\\arm\\5.4.
 483              		.file 3 "c:\\program files (x86)\\cypress\\psoc creator\\4.2\\psoc creator\\import\\gnu\\arm\\5.4.
 484              		.file 4 "Generated_Source\\PSoC5/cytypes.h"
 485              		.file 5 "sender.h"
 486              		.file 6 "./types.h"
 487              		.file 7 "./SPI_ADC_ADS131E08.h"
 488              		.file 8 "./ControlFrame.h"
 489              		.file 9 "Generated_Source\\PSoC5/core_cm3.h"
 490              		.file 10 "./global.h"
 491              		.file 11 "./line_buf.h"
 492              		.file 12 "./FirstFrame.h"
 493              		.file 13 "Generated_Source\\PSoC5/SPI_ADC.h"
 494              		.file 14 "Generated_Source\\PSoC5/TransmitShiftReg.h"
 495              		.file 15 "Generated_Source\\PSoC5/BitCounterEnc.h"
 496              		.file 16 "Generated_Source\\PSoC5/RecieveShiftReg.h"
 497              		.file 17 "Generated_Source\\PSoC5/Waiter.h"
 498              		.file 18 "Generated_Source\\PSoC5/BitCounterDec.h"
 499              		.file 19 "Generated_Source\\PSoC5/VDAC8_1.h"
 500              		.file 20 "Generated_Source\\PSoC5/Comp_1.h"
 501              		.file 21 "Generated_Source\\PSoC5/Comp_2.h"
 502              		.file 22 "Generated_Source\\PSoC5/Opamp_1.h"
 503              		.file 23 "Generated_Source\\PSoC5/Period.h"
 504              		.file 24 "Generated_Source\\PSoC5/SigmaReg.h"
 505              		.file 25 "Generated_Source\\PSoC5/Boundary8bit.h"
 506              		.file 26 "Generated_Source\\PSoC5/cap_comp_tc.h"
 507              		.file 27 "Generated_Source\\PSoC5/EndFrame.h"
 508              		.file 28 "Generated_Source\\PSoC5/isr_Load_TrShReg.h"
 509              		.file 29 "Generated_Source\\PSoC5/WordShifted.h"
 510              		.file 30 "Generated_Source\\PSoC5/isr_TransmitWordShift.h"
 511              		.file 31 "Generated_Source\\PSoC5/Capture_low.h"
 512              		.file 32 "Generated_Source\\PSoC5/isr_DRDY.h"
 513              		.file 33 "Generated_Source\\PSoC5/FrameAllow.h"
 514              		.file 34 "./Clock.h"
 515              		.file 35 "reciver.h"
 516              		.file 36 "Generated_Source\\PSoC5/Comp_low.h"
 517              		.file 37 "Generated_Source\\PSoC5/Comp_high.h"
ARM GAS  C:\Users\EA527~1.IVA\AppData\Local\Temp\cc1zy5zM.s 			page 14


 518              		.file 38 "Generated_Source\\PSoC5/Control_Capture_3.h"