ARM GAS  C:\Users\EA527~1.IVA\AppData\Local\Temp\ccltsKcu.s 			page 1


   1              		.syntax unified
   2              		.cpu cortex-m3
   3              		.fpu softvfp
   4              		.eabi_attribute 20, 1
   5              		.eabi_attribute 21, 1
   6              		.eabi_attribute 23, 3
   7              		.eabi_attribute 24, 1
   8              		.eabi_attribute 25, 1
   9              		.eabi_attribute 26, 1
  10              		.eabi_attribute 30, 1
  11              		.eabi_attribute 34, 1
  12              		.eabi_attribute 18, 4
  13              		.thumb
  14              		.syntax unified
  15              		.file	"RecieveShiftReg.c"
  16              		.text
  17              	.Ltext0:
  18              		.cfi_sections	.debug_frame
  19              		.section	.text.RecieveShiftReg_EnableInt,"ax",%progbits
  20              		.align	2
  21              		.global	RecieveShiftReg_EnableInt
  22              		.thumb
  23              		.thumb_func
  24              		.type	RecieveShiftReg_EnableInt, %function
  25              	RecieveShiftReg_EnableInt:
  26              	.LFB4:
  27              		.file 1 "Generated_Source\\PSoC5\\RecieveShiftReg.c"
   1:Generated_Source\PSoC5/RecieveShiftReg.c **** /*******************************************************************************
   2:Generated_Source\PSoC5/RecieveShiftReg.c **** * File Name: RecieveShiftReg.c
   3:Generated_Source\PSoC5/RecieveShiftReg.c **** * Version 2.30
   4:Generated_Source\PSoC5/RecieveShiftReg.c **** *
   5:Generated_Source\PSoC5/RecieveShiftReg.c **** * Description:
   6:Generated_Source\PSoC5/RecieveShiftReg.c **** *  This file provides the API source code for the Shift Register component.
   7:Generated_Source\PSoC5/RecieveShiftReg.c **** *
   8:Generated_Source\PSoC5/RecieveShiftReg.c **** * Note: none
   9:Generated_Source\PSoC5/RecieveShiftReg.c **** *
  10:Generated_Source\PSoC5/RecieveShiftReg.c **** ********************************************************************************
  11:Generated_Source\PSoC5/RecieveShiftReg.c **** * Copyright 2008-2013, Cypress Semiconductor Corporation.  All rights reserved.
  12:Generated_Source\PSoC5/RecieveShiftReg.c **** * You may use this file only in accordance with the license, terms, conditions,
  13:Generated_Source\PSoC5/RecieveShiftReg.c **** * disclaimers, and limitations in the end user license agreement accompanying
  14:Generated_Source\PSoC5/RecieveShiftReg.c **** * the software package with which this file was provided.
  15:Generated_Source\PSoC5/RecieveShiftReg.c **** ********************************************************************************/
  16:Generated_Source\PSoC5/RecieveShiftReg.c **** 
  17:Generated_Source\PSoC5/RecieveShiftReg.c **** #include "RecieveShiftReg.h"
  18:Generated_Source\PSoC5/RecieveShiftReg.c **** 
  19:Generated_Source\PSoC5/RecieveShiftReg.c **** uint8 RecieveShiftReg_initVar = 0u;
  20:Generated_Source\PSoC5/RecieveShiftReg.c **** 
  21:Generated_Source\PSoC5/RecieveShiftReg.c **** 
  22:Generated_Source\PSoC5/RecieveShiftReg.c **** /*******************************************************************************
  23:Generated_Source\PSoC5/RecieveShiftReg.c **** * Function Name: RecieveShiftReg_Start
  24:Generated_Source\PSoC5/RecieveShiftReg.c **** ********************************************************************************
  25:Generated_Source\PSoC5/RecieveShiftReg.c **** *
  26:Generated_Source\PSoC5/RecieveShiftReg.c **** * Summary:
  27:Generated_Source\PSoC5/RecieveShiftReg.c **** *  Starts the Shift Register.
  28:Generated_Source\PSoC5/RecieveShiftReg.c **** *
  29:Generated_Source\PSoC5/RecieveShiftReg.c **** * Parameters:
  30:Generated_Source\PSoC5/RecieveShiftReg.c **** *  None.
ARM GAS  C:\Users\EA527~1.IVA\AppData\Local\Temp\ccltsKcu.s 			page 2


  31:Generated_Source\PSoC5/RecieveShiftReg.c **** *
  32:Generated_Source\PSoC5/RecieveShiftReg.c **** * Return:
  33:Generated_Source\PSoC5/RecieveShiftReg.c **** *  None.
  34:Generated_Source\PSoC5/RecieveShiftReg.c **** *
  35:Generated_Source\PSoC5/RecieveShiftReg.c **** * Global Variables:
  36:Generated_Source\PSoC5/RecieveShiftReg.c **** *  RecieveShiftReg_initVar - used to check initial configuration, modified on
  37:Generated_Source\PSoC5/RecieveShiftReg.c **** *  first function call.
  38:Generated_Source\PSoC5/RecieveShiftReg.c **** *
  39:Generated_Source\PSoC5/RecieveShiftReg.c **** * Reentrant:
  40:Generated_Source\PSoC5/RecieveShiftReg.c **** *  No.
  41:Generated_Source\PSoC5/RecieveShiftReg.c **** *
  42:Generated_Source\PSoC5/RecieveShiftReg.c **** *******************************************************************************/
  43:Generated_Source\PSoC5/RecieveShiftReg.c **** void RecieveShiftReg_Start(void) 
  44:Generated_Source\PSoC5/RecieveShiftReg.c **** {
  45:Generated_Source\PSoC5/RecieveShiftReg.c ****     if(0u == RecieveShiftReg_initVar)
  46:Generated_Source\PSoC5/RecieveShiftReg.c ****     {
  47:Generated_Source\PSoC5/RecieveShiftReg.c ****         RecieveShiftReg_Init();
  48:Generated_Source\PSoC5/RecieveShiftReg.c ****         RecieveShiftReg_initVar = 1u; /* Component initialized */
  49:Generated_Source\PSoC5/RecieveShiftReg.c ****     }
  50:Generated_Source\PSoC5/RecieveShiftReg.c **** 
  51:Generated_Source\PSoC5/RecieveShiftReg.c ****     RecieveShiftReg_Enable();
  52:Generated_Source\PSoC5/RecieveShiftReg.c **** }
  53:Generated_Source\PSoC5/RecieveShiftReg.c **** 
  54:Generated_Source\PSoC5/RecieveShiftReg.c **** 
  55:Generated_Source\PSoC5/RecieveShiftReg.c **** /*******************************************************************************
  56:Generated_Source\PSoC5/RecieveShiftReg.c **** * Function Name: RecieveShiftReg_Enable
  57:Generated_Source\PSoC5/RecieveShiftReg.c **** ********************************************************************************
  58:Generated_Source\PSoC5/RecieveShiftReg.c **** *
  59:Generated_Source\PSoC5/RecieveShiftReg.c **** * Summary:
  60:Generated_Source\PSoC5/RecieveShiftReg.c **** *  Enables the Shift Register.
  61:Generated_Source\PSoC5/RecieveShiftReg.c **** *
  62:Generated_Source\PSoC5/RecieveShiftReg.c **** * Parameters:
  63:Generated_Source\PSoC5/RecieveShiftReg.c **** *  void.
  64:Generated_Source\PSoC5/RecieveShiftReg.c **** *
  65:Generated_Source\PSoC5/RecieveShiftReg.c **** * Return:
  66:Generated_Source\PSoC5/RecieveShiftReg.c **** *  void.
  67:Generated_Source\PSoC5/RecieveShiftReg.c **** *
  68:Generated_Source\PSoC5/RecieveShiftReg.c **** *******************************************************************************/
  69:Generated_Source\PSoC5/RecieveShiftReg.c **** void RecieveShiftReg_Enable(void) 
  70:Generated_Source\PSoC5/RecieveShiftReg.c **** {
  71:Generated_Source\PSoC5/RecieveShiftReg.c ****     /* Changing address in Datapath Control Store
  72:Generated_Source\PSoC5/RecieveShiftReg.c ****        from NOP to component state machine commands space */
  73:Generated_Source\PSoC5/RecieveShiftReg.c ****     RecieveShiftReg_SR_CONTROL |= RecieveShiftReg_CLK_EN;
  74:Generated_Source\PSoC5/RecieveShiftReg.c **** 
  75:Generated_Source\PSoC5/RecieveShiftReg.c ****     RecieveShiftReg_EnableInt();
  76:Generated_Source\PSoC5/RecieveShiftReg.c **** }
  77:Generated_Source\PSoC5/RecieveShiftReg.c **** 
  78:Generated_Source\PSoC5/RecieveShiftReg.c **** 
  79:Generated_Source\PSoC5/RecieveShiftReg.c **** /*******************************************************************************
  80:Generated_Source\PSoC5/RecieveShiftReg.c **** * Function Name: RecieveShiftReg_Init
  81:Generated_Source\PSoC5/RecieveShiftReg.c **** ********************************************************************************
  82:Generated_Source\PSoC5/RecieveShiftReg.c **** *
  83:Generated_Source\PSoC5/RecieveShiftReg.c **** * Summary:
  84:Generated_Source\PSoC5/RecieveShiftReg.c **** *  Initializes Tx and/or Rx interrupt sources with initial values.
  85:Generated_Source\PSoC5/RecieveShiftReg.c **** *
  86:Generated_Source\PSoC5/RecieveShiftReg.c **** * Parameters:
  87:Generated_Source\PSoC5/RecieveShiftReg.c **** *  void.
ARM GAS  C:\Users\EA527~1.IVA\AppData\Local\Temp\ccltsKcu.s 			page 3


  88:Generated_Source\PSoC5/RecieveShiftReg.c **** *
  89:Generated_Source\PSoC5/RecieveShiftReg.c **** * Return:
  90:Generated_Source\PSoC5/RecieveShiftReg.c **** *  void.
  91:Generated_Source\PSoC5/RecieveShiftReg.c **** *
  92:Generated_Source\PSoC5/RecieveShiftReg.c **** *******************************************************************************/
  93:Generated_Source\PSoC5/RecieveShiftReg.c **** void RecieveShiftReg_Init(void) 
  94:Generated_Source\PSoC5/RecieveShiftReg.c **** {
  95:Generated_Source\PSoC5/RecieveShiftReg.c ****     RecieveShiftReg_SetIntMode(RecieveShiftReg_INT_SRC);
  96:Generated_Source\PSoC5/RecieveShiftReg.c **** }
  97:Generated_Source\PSoC5/RecieveShiftReg.c **** 
  98:Generated_Source\PSoC5/RecieveShiftReg.c **** 
  99:Generated_Source\PSoC5/RecieveShiftReg.c **** /*******************************************************************************
 100:Generated_Source\PSoC5/RecieveShiftReg.c **** * Function Name: RecieveShiftReg_Stop
 101:Generated_Source\PSoC5/RecieveShiftReg.c **** ********************************************************************************
 102:Generated_Source\PSoC5/RecieveShiftReg.c **** *
 103:Generated_Source\PSoC5/RecieveShiftReg.c **** * Summary:
 104:Generated_Source\PSoC5/RecieveShiftReg.c **** *  Disables the Shift Register
 105:Generated_Source\PSoC5/RecieveShiftReg.c **** *
 106:Generated_Source\PSoC5/RecieveShiftReg.c **** * Parameters:
 107:Generated_Source\PSoC5/RecieveShiftReg.c **** *  None.
 108:Generated_Source\PSoC5/RecieveShiftReg.c **** *
 109:Generated_Source\PSoC5/RecieveShiftReg.c **** * Return:
 110:Generated_Source\PSoC5/RecieveShiftReg.c **** *  None.
 111:Generated_Source\PSoC5/RecieveShiftReg.c **** *
 112:Generated_Source\PSoC5/RecieveShiftReg.c **** *******************************************************************************/
 113:Generated_Source\PSoC5/RecieveShiftReg.c **** void RecieveShiftReg_Stop(void) 
 114:Generated_Source\PSoC5/RecieveShiftReg.c **** {
 115:Generated_Source\PSoC5/RecieveShiftReg.c ****     /*changing Datapath Control Store address to NOP space*/
 116:Generated_Source\PSoC5/RecieveShiftReg.c ****     RecieveShiftReg_SR_CONTROL &= ((uint8) ~RecieveShiftReg_CLK_EN);
 117:Generated_Source\PSoC5/RecieveShiftReg.c ****     RecieveShiftReg_DisableInt();
 118:Generated_Source\PSoC5/RecieveShiftReg.c **** }
 119:Generated_Source\PSoC5/RecieveShiftReg.c **** 
 120:Generated_Source\PSoC5/RecieveShiftReg.c **** 
 121:Generated_Source\PSoC5/RecieveShiftReg.c **** /*******************************************************************************
 122:Generated_Source\PSoC5/RecieveShiftReg.c **** * Function Name: RecieveShiftReg_EnableInt
 123:Generated_Source\PSoC5/RecieveShiftReg.c **** ********************************************************************************
 124:Generated_Source\PSoC5/RecieveShiftReg.c **** *
 125:Generated_Source\PSoC5/RecieveShiftReg.c **** * Summary:
 126:Generated_Source\PSoC5/RecieveShiftReg.c **** *  Enables the Shift Register interrupt.
 127:Generated_Source\PSoC5/RecieveShiftReg.c **** *
 128:Generated_Source\PSoC5/RecieveShiftReg.c **** * Parameters:
 129:Generated_Source\PSoC5/RecieveShiftReg.c **** *  None.
 130:Generated_Source\PSoC5/RecieveShiftReg.c **** *
 131:Generated_Source\PSoC5/RecieveShiftReg.c **** * Return:
 132:Generated_Source\PSoC5/RecieveShiftReg.c **** *  None.
 133:Generated_Source\PSoC5/RecieveShiftReg.c **** *
 134:Generated_Source\PSoC5/RecieveShiftReg.c **** *******************************************************************************/
 135:Generated_Source\PSoC5/RecieveShiftReg.c **** void RecieveShiftReg_EnableInt(void) 
 136:Generated_Source\PSoC5/RecieveShiftReg.c **** {
  28              		.loc 1 136 0
  29              		.cfi_startproc
  30              		@ args = 0, pretend = 0, frame = 0
  31              		@ frame_needed = 0, uses_anonymous_args = 0
  32 0000 08B5     		push	{r3, lr}
  33              		.cfi_def_cfa_offset 8
  34              		.cfi_offset 3, -8
  35              		.cfi_offset 14, -4
ARM GAS  C:\Users\EA527~1.IVA\AppData\Local\Temp\ccltsKcu.s 			page 4


 137:Generated_Source\PSoC5/RecieveShiftReg.c ****     uint8 interruptState;
 138:Generated_Source\PSoC5/RecieveShiftReg.c **** 
 139:Generated_Source\PSoC5/RecieveShiftReg.c ****     interruptState = CyEnterCriticalSection();
  36              		.loc 1 139 0
  37 0002 FFF7FEFF 		bl	CyEnterCriticalSection
  38              	.LVL0:
 140:Generated_Source\PSoC5/RecieveShiftReg.c ****     RecieveShiftReg_SR_AUX_CONTROL |= RecieveShiftReg_INTERRUPTS_ENABLE;
  39              		.loc 1 140 0
  40 0006 044A     		ldr	r2, .L3
  41 0008 1378     		ldrb	r3, [r2]	@ zero_extendqisi2
  42 000a 43F01003 		orr	r3, r3, #16
  43 000e 1370     		strb	r3, [r2]
 141:Generated_Source\PSoC5/RecieveShiftReg.c ****     CyExitCriticalSection(interruptState);
  44              		.loc 1 141 0
  45 0010 FFF7FEFF 		bl	CyExitCriticalSection
  46              	.LVL1:
  47 0014 08BD     		pop	{r3, pc}
  48              	.L4:
  49 0016 00BF     		.align	2
  50              	.L3:
  51 0018 97650040 		.word	1073767831
  52              		.cfi_endproc
  53              	.LFE4:
  54              		.size	RecieveShiftReg_EnableInt, .-RecieveShiftReg_EnableInt
  55              		.section	.text.RecieveShiftReg_Enable,"ax",%progbits
  56              		.align	2
  57              		.global	RecieveShiftReg_Enable
  58              		.thumb
  59              		.thumb_func
  60              		.type	RecieveShiftReg_Enable, %function
  61              	RecieveShiftReg_Enable:
  62              	.LFB1:
  70:Generated_Source\PSoC5/RecieveShiftReg.c ****     /* Changing address in Datapath Control Store
  63              		.loc 1 70 0
  64              		.cfi_startproc
  65              		@ args = 0, pretend = 0, frame = 0
  66              		@ frame_needed = 0, uses_anonymous_args = 0
  67 0000 08B5     		push	{r3, lr}
  68              		.cfi_def_cfa_offset 8
  69              		.cfi_offset 3, -8
  70              		.cfi_offset 14, -4
  73:Generated_Source\PSoC5/RecieveShiftReg.c **** 
  71              		.loc 1 73 0
  72 0002 044A     		ldr	r2, .L7
  73 0004 1378     		ldrb	r3, [r2]	@ zero_extendqisi2
  74 0006 43F00103 		orr	r3, r3, #1
  75 000a 1370     		strb	r3, [r2]
  75:Generated_Source\PSoC5/RecieveShiftReg.c **** }
  76              		.loc 1 75 0
  77 000c FFF7FEFF 		bl	RecieveShiftReg_EnableInt
  78              	.LVL2:
  79 0010 08BD     		pop	{r3, pc}
  80              	.L8:
  81 0012 00BF     		.align	2
  82              	.L7:
  83 0014 77650040 		.word	1073767799
  84              		.cfi_endproc
ARM GAS  C:\Users\EA527~1.IVA\AppData\Local\Temp\ccltsKcu.s 			page 5


  85              	.LFE1:
  86              		.size	RecieveShiftReg_Enable, .-RecieveShiftReg_Enable
  87              		.section	.text.RecieveShiftReg_DisableInt,"ax",%progbits
  88              		.align	2
  89              		.global	RecieveShiftReg_DisableInt
  90              		.thumb
  91              		.thumb_func
  92              		.type	RecieveShiftReg_DisableInt, %function
  93              	RecieveShiftReg_DisableInt:
  94              	.LFB5:
 142:Generated_Source\PSoC5/RecieveShiftReg.c **** }
 143:Generated_Source\PSoC5/RecieveShiftReg.c **** 
 144:Generated_Source\PSoC5/RecieveShiftReg.c **** 
 145:Generated_Source\PSoC5/RecieveShiftReg.c **** /*******************************************************************************
 146:Generated_Source\PSoC5/RecieveShiftReg.c **** * Function Name: RecieveShiftReg_DisableInt
 147:Generated_Source\PSoC5/RecieveShiftReg.c **** ********************************************************************************
 148:Generated_Source\PSoC5/RecieveShiftReg.c **** *
 149:Generated_Source\PSoC5/RecieveShiftReg.c **** * Summary:
 150:Generated_Source\PSoC5/RecieveShiftReg.c **** *  Disables the Shift Register interrupt.
 151:Generated_Source\PSoC5/RecieveShiftReg.c **** *
 152:Generated_Source\PSoC5/RecieveShiftReg.c **** * Parameters:
 153:Generated_Source\PSoC5/RecieveShiftReg.c **** *  None.
 154:Generated_Source\PSoC5/RecieveShiftReg.c **** *
 155:Generated_Source\PSoC5/RecieveShiftReg.c **** * Return:
 156:Generated_Source\PSoC5/RecieveShiftReg.c **** *  None.
 157:Generated_Source\PSoC5/RecieveShiftReg.c **** *
 158:Generated_Source\PSoC5/RecieveShiftReg.c **** *******************************************************************************/
 159:Generated_Source\PSoC5/RecieveShiftReg.c **** void RecieveShiftReg_DisableInt(void) 
 160:Generated_Source\PSoC5/RecieveShiftReg.c **** {
  95              		.loc 1 160 0
  96              		.cfi_startproc
  97              		@ args = 0, pretend = 0, frame = 0
  98              		@ frame_needed = 0, uses_anonymous_args = 0
  99 0000 08B5     		push	{r3, lr}
 100              		.cfi_def_cfa_offset 8
 101              		.cfi_offset 3, -8
 102              		.cfi_offset 14, -4
 161:Generated_Source\PSoC5/RecieveShiftReg.c ****     uint8 interruptState;
 162:Generated_Source\PSoC5/RecieveShiftReg.c **** 
 163:Generated_Source\PSoC5/RecieveShiftReg.c ****     interruptState = CyEnterCriticalSection();
 103              		.loc 1 163 0
 104 0002 FFF7FEFF 		bl	CyEnterCriticalSection
 105              	.LVL3:
 164:Generated_Source\PSoC5/RecieveShiftReg.c ****     RecieveShiftReg_SR_AUX_CONTROL &= ((uint8) ~RecieveShiftReg_INTERRUPTS_ENABLE);
 106              		.loc 1 164 0
 107 0006 044A     		ldr	r2, .L11
 108 0008 1378     		ldrb	r3, [r2]	@ zero_extendqisi2
 109 000a 03F0EF03 		and	r3, r3, #239
 110 000e 1370     		strb	r3, [r2]
 165:Generated_Source\PSoC5/RecieveShiftReg.c ****     CyExitCriticalSection(interruptState);
 111              		.loc 1 165 0
 112 0010 FFF7FEFF 		bl	CyExitCriticalSection
 113              	.LVL4:
 114 0014 08BD     		pop	{r3, pc}
 115              	.L12:
 116 0016 00BF     		.align	2
 117              	.L11:
ARM GAS  C:\Users\EA527~1.IVA\AppData\Local\Temp\ccltsKcu.s 			page 6


 118 0018 97650040 		.word	1073767831
 119              		.cfi_endproc
 120              	.LFE5:
 121              		.size	RecieveShiftReg_DisableInt, .-RecieveShiftReg_DisableInt
 122              		.section	.text.RecieveShiftReg_Stop,"ax",%progbits
 123              		.align	2
 124              		.global	RecieveShiftReg_Stop
 125              		.thumb
 126              		.thumb_func
 127              		.type	RecieveShiftReg_Stop, %function
 128              	RecieveShiftReg_Stop:
 129              	.LFB3:
 114:Generated_Source\PSoC5/RecieveShiftReg.c ****     /*changing Datapath Control Store address to NOP space*/
 130              		.loc 1 114 0
 131              		.cfi_startproc
 132              		@ args = 0, pretend = 0, frame = 0
 133              		@ frame_needed = 0, uses_anonymous_args = 0
 134 0000 08B5     		push	{r3, lr}
 135              		.cfi_def_cfa_offset 8
 136              		.cfi_offset 3, -8
 137              		.cfi_offset 14, -4
 116:Generated_Source\PSoC5/RecieveShiftReg.c ****     RecieveShiftReg_DisableInt();
 138              		.loc 1 116 0
 139 0002 044A     		ldr	r2, .L15
 140 0004 1378     		ldrb	r3, [r2]	@ zero_extendqisi2
 141 0006 03F0FE03 		and	r3, r3, #254
 142 000a 1370     		strb	r3, [r2]
 117:Generated_Source\PSoC5/RecieveShiftReg.c **** }
 143              		.loc 1 117 0
 144 000c FFF7FEFF 		bl	RecieveShiftReg_DisableInt
 145              	.LVL5:
 146 0010 08BD     		pop	{r3, pc}
 147              	.L16:
 148 0012 00BF     		.align	2
 149              	.L15:
 150 0014 77650040 		.word	1073767799
 151              		.cfi_endproc
 152              	.LFE3:
 153              		.size	RecieveShiftReg_Stop, .-RecieveShiftReg_Stop
 154              		.section	.text.RecieveShiftReg_GetFIFOStatus,"ax",%progbits
 155              		.align	2
 156              		.global	RecieveShiftReg_GetFIFOStatus
 157              		.thumb
 158              		.thumb_func
 159              		.type	RecieveShiftReg_GetFIFOStatus, %function
 160              	RecieveShiftReg_GetFIFOStatus:
 161              	.LFB6:
 166:Generated_Source\PSoC5/RecieveShiftReg.c **** }
 167:Generated_Source\PSoC5/RecieveShiftReg.c **** 
 168:Generated_Source\PSoC5/RecieveShiftReg.c **** 
 169:Generated_Source\PSoC5/RecieveShiftReg.c **** /*******************************************************************************
 170:Generated_Source\PSoC5/RecieveShiftReg.c **** * Function Name: RecieveShiftReg_GetFIFOStatus
 171:Generated_Source\PSoC5/RecieveShiftReg.c **** ********************************************************************************
 172:Generated_Source\PSoC5/RecieveShiftReg.c **** *
 173:Generated_Source\PSoC5/RecieveShiftReg.c **** * Summary:
 174:Generated_Source\PSoC5/RecieveShiftReg.c **** *  Returns current status of input or output FIFO.
 175:Generated_Source\PSoC5/RecieveShiftReg.c **** *
ARM GAS  C:\Users\EA527~1.IVA\AppData\Local\Temp\ccltsKcu.s 			page 7


 176:Generated_Source\PSoC5/RecieveShiftReg.c **** * Parameters:
 177:Generated_Source\PSoC5/RecieveShiftReg.c **** *  fifoId.
 178:Generated_Source\PSoC5/RecieveShiftReg.c **** *
 179:Generated_Source\PSoC5/RecieveShiftReg.c **** * Return:
 180:Generated_Source\PSoC5/RecieveShiftReg.c **** *  FIFO status.
 181:Generated_Source\PSoC5/RecieveShiftReg.c **** *
 182:Generated_Source\PSoC5/RecieveShiftReg.c **** *******************************************************************************/
 183:Generated_Source\PSoC5/RecieveShiftReg.c **** uint8 RecieveShiftReg_GetFIFOStatus(uint8 fifoId) 
 184:Generated_Source\PSoC5/RecieveShiftReg.c **** {
 162              		.loc 1 184 0
 163              		.cfi_startproc
 164              		@ args = 0, pretend = 0, frame = 0
 165              		@ frame_needed = 0, uses_anonymous_args = 0
 166              		@ link register save eliminated.
 167              	.LVL6:
 185:Generated_Source\PSoC5/RecieveShiftReg.c ****     uint8 result;
 186:Generated_Source\PSoC5/RecieveShiftReg.c **** 
 187:Generated_Source\PSoC5/RecieveShiftReg.c ****     result = RecieveShiftReg_RET_FIFO_NOT_DEFINED;
 188:Generated_Source\PSoC5/RecieveShiftReg.c **** 
 189:Generated_Source\PSoC5/RecieveShiftReg.c ****     #if(0u != RecieveShiftReg_USE_INPUT_FIFO)
 190:Generated_Source\PSoC5/RecieveShiftReg.c ****         if(RecieveShiftReg_IN_FIFO == fifoId)
 191:Generated_Source\PSoC5/RecieveShiftReg.c ****         {
 192:Generated_Source\PSoC5/RecieveShiftReg.c ****             switch(RecieveShiftReg_GET_IN_FIFO_STS)
 193:Generated_Source\PSoC5/RecieveShiftReg.c ****             {
 194:Generated_Source\PSoC5/RecieveShiftReg.c ****                 case RecieveShiftReg_IN_FIFO_FULL :
 195:Generated_Source\PSoC5/RecieveShiftReg.c ****                     result = RecieveShiftReg_RET_FIFO_FULL;
 196:Generated_Source\PSoC5/RecieveShiftReg.c ****                     break;
 197:Generated_Source\PSoC5/RecieveShiftReg.c **** 
 198:Generated_Source\PSoC5/RecieveShiftReg.c ****                 case RecieveShiftReg_IN_FIFO_EMPTY :
 199:Generated_Source\PSoC5/RecieveShiftReg.c ****                     result = RecieveShiftReg_RET_FIFO_EMPTY;
 200:Generated_Source\PSoC5/RecieveShiftReg.c ****                     break;
 201:Generated_Source\PSoC5/RecieveShiftReg.c **** 
 202:Generated_Source\PSoC5/RecieveShiftReg.c ****                 case RecieveShiftReg_IN_FIFO_PARTIAL:
 203:Generated_Source\PSoC5/RecieveShiftReg.c ****                     result = RecieveShiftReg_RET_FIFO_PARTIAL;
 204:Generated_Source\PSoC5/RecieveShiftReg.c ****                     break;
 205:Generated_Source\PSoC5/RecieveShiftReg.c ****                     
 206:Generated_Source\PSoC5/RecieveShiftReg.c ****                 default:
 207:Generated_Source\PSoC5/RecieveShiftReg.c ****                     /* Initial result value, while 
 208:Generated_Source\PSoC5/RecieveShiftReg.c ****                        IN_FIFO_EMPTY case is false 
 209:Generated_Source\PSoC5/RecieveShiftReg.c ****                      */
 210:Generated_Source\PSoC5/RecieveShiftReg.c ****                     result = RecieveShiftReg_RET_FIFO_EMPTY;
 211:Generated_Source\PSoC5/RecieveShiftReg.c ****                     break;
 212:Generated_Source\PSoC5/RecieveShiftReg.c ****             }   
 213:Generated_Source\PSoC5/RecieveShiftReg.c ****         }
 214:Generated_Source\PSoC5/RecieveShiftReg.c ****     #endif /* (0u != RecieveShiftReg_USE_INPUT_FIFO) */
 215:Generated_Source\PSoC5/RecieveShiftReg.c **** 
 216:Generated_Source\PSoC5/RecieveShiftReg.c ****     if(RecieveShiftReg_OUT_FIFO == fifoId)
 168              		.loc 1 216 0
 169 0000 0228     		cmp	r0, #2
 170 0002 0AD1     		bne	.L21
 217:Generated_Source\PSoC5/RecieveShiftReg.c ****     {
 218:Generated_Source\PSoC5/RecieveShiftReg.c ****         switch(RecieveShiftReg_GET_OUT_FIFO_STS)
 171              		.loc 1 218 0
 172 0004 074B     		ldr	r3, .L23
 173 0006 1B78     		ldrb	r3, [r3]	@ zero_extendqisi2
 174 0008 C3F34113 		ubfx	r3, r3, #5, #2
 175 000c 3BB1     		cbz	r3, .L22
ARM GAS  C:\Users\EA527~1.IVA\AppData\Local\Temp\ccltsKcu.s 			page 8


 176 000e 022B     		cmp	r3, #2
 177 0010 01D0     		beq	.L20
 219:Generated_Source\PSoC5/RecieveShiftReg.c ****         {
 220:Generated_Source\PSoC5/RecieveShiftReg.c ****             case RecieveShiftReg_OUT_FIFO_FULL :
 221:Generated_Source\PSoC5/RecieveShiftReg.c ****                 result = RecieveShiftReg_RET_FIFO_FULL;
 178              		.loc 1 221 0
 179 0012 0020     		movs	r0, #0
 180              	.LVL7:
 181 0014 7047     		bx	lr
 182              	.LVL8:
 183              	.L20:
 222:Generated_Source\PSoC5/RecieveShiftReg.c ****                 break;
 223:Generated_Source\PSoC5/RecieveShiftReg.c **** 
 224:Generated_Source\PSoC5/RecieveShiftReg.c ****             case RecieveShiftReg_OUT_FIFO_EMPTY :
 225:Generated_Source\PSoC5/RecieveShiftReg.c ****                 result = RecieveShiftReg_RET_FIFO_EMPTY;
 226:Generated_Source\PSoC5/RecieveShiftReg.c ****                 break;
 227:Generated_Source\PSoC5/RecieveShiftReg.c **** 
 228:Generated_Source\PSoC5/RecieveShiftReg.c ****             case RecieveShiftReg_OUT_FIFO_PARTIAL :
 229:Generated_Source\PSoC5/RecieveShiftReg.c ****                 result = RecieveShiftReg_RET_FIFO_PARTIAL;
 184              		.loc 1 229 0
 185 0016 0120     		movs	r0, #1
 186              	.LVL9:
 230:Generated_Source\PSoC5/RecieveShiftReg.c ****                 break;
 187              		.loc 1 230 0
 188 0018 7047     		bx	lr
 189              	.LVL10:
 190              	.L21:
 187:Generated_Source\PSoC5/RecieveShiftReg.c **** 
 191              		.loc 1 187 0
 192 001a FE20     		movs	r0, #254
 193              	.LVL11:
 194 001c 7047     		bx	lr
 195              	.LVL12:
 196              	.L22:
 225:Generated_Source\PSoC5/RecieveShiftReg.c ****                 break;
 197              		.loc 1 225 0
 198 001e 0220     		movs	r0, #2
 199              	.LVL13:
 231:Generated_Source\PSoC5/RecieveShiftReg.c **** 
 232:Generated_Source\PSoC5/RecieveShiftReg.c ****             default:
 233:Generated_Source\PSoC5/RecieveShiftReg.c ****                 /* Initial result value, while 
 234:Generated_Source\PSoC5/RecieveShiftReg.c ****                    OUT_FIFO_FULL case is false 
 235:Generated_Source\PSoC5/RecieveShiftReg.c ****                  */
 236:Generated_Source\PSoC5/RecieveShiftReg.c ****                 result = RecieveShiftReg_RET_FIFO_FULL;
 237:Generated_Source\PSoC5/RecieveShiftReg.c ****                 break;
 238:Generated_Source\PSoC5/RecieveShiftReg.c ****         }
 239:Generated_Source\PSoC5/RecieveShiftReg.c ****     }
 240:Generated_Source\PSoC5/RecieveShiftReg.c **** 
 241:Generated_Source\PSoC5/RecieveShiftReg.c ****     return(result);
 242:Generated_Source\PSoC5/RecieveShiftReg.c **** }
 200              		.loc 1 242 0
 201 0020 7047     		bx	lr
 202              	.L24:
 203 0022 00BF     		.align	2
 204              	.L23:
 205 0024 67650040 		.word	1073767783
 206              		.cfi_endproc
ARM GAS  C:\Users\EA527~1.IVA\AppData\Local\Temp\ccltsKcu.s 			page 9


 207              	.LFE6:
 208              		.size	RecieveShiftReg_GetFIFOStatus, .-RecieveShiftReg_GetFIFOStatus
 209              		.section	.text.RecieveShiftReg_SetIntMode,"ax",%progbits
 210              		.align	2
 211              		.global	RecieveShiftReg_SetIntMode
 212              		.thumb
 213              		.thumb_func
 214              		.type	RecieveShiftReg_SetIntMode, %function
 215              	RecieveShiftReg_SetIntMode:
 216              	.LFB7:
 243:Generated_Source\PSoC5/RecieveShiftReg.c **** 
 244:Generated_Source\PSoC5/RecieveShiftReg.c **** 
 245:Generated_Source\PSoC5/RecieveShiftReg.c **** /*******************************************************************************
 246:Generated_Source\PSoC5/RecieveShiftReg.c **** * Function Name: RecieveShiftReg_SetIntMode
 247:Generated_Source\PSoC5/RecieveShiftReg.c **** ********************************************************************************
 248:Generated_Source\PSoC5/RecieveShiftReg.c **** *
 249:Generated_Source\PSoC5/RecieveShiftReg.c **** * Summary:
 250:Generated_Source\PSoC5/RecieveShiftReg.c **** *  Sets the Interrupt Source for the Shift Register interrupt. Multiple
 251:Generated_Source\PSoC5/RecieveShiftReg.c **** *  sources may be ORed together
 252:Generated_Source\PSoC5/RecieveShiftReg.c **** *
 253:Generated_Source\PSoC5/RecieveShiftReg.c **** * Parameters:
 254:Generated_Source\PSoC5/RecieveShiftReg.c **** *  interruptSource: Byte containing the constant for the selected interrupt
 255:Generated_Source\PSoC5/RecieveShiftReg.c **** *  source/s.
 256:Generated_Source\PSoC5/RecieveShiftReg.c **** *
 257:Generated_Source\PSoC5/RecieveShiftReg.c **** * Return:
 258:Generated_Source\PSoC5/RecieveShiftReg.c **** *  None.
 259:Generated_Source\PSoC5/RecieveShiftReg.c **** *
 260:Generated_Source\PSoC5/RecieveShiftReg.c **** *******************************************************************************/
 261:Generated_Source\PSoC5/RecieveShiftReg.c **** void RecieveShiftReg_SetIntMode(uint8 interruptSource) 
 262:Generated_Source\PSoC5/RecieveShiftReg.c **** {
 217              		.loc 1 262 0
 218              		.cfi_startproc
 219              		@ args = 0, pretend = 0, frame = 0
 220              		@ frame_needed = 0, uses_anonymous_args = 0
 221              		@ link register save eliminated.
 222              	.LVL14:
 263:Generated_Source\PSoC5/RecieveShiftReg.c ****     RecieveShiftReg_SR_STATUS_MASK &= ((uint8) ~RecieveShiftReg_INTS_EN_MASK);          /* Clear ex
 223              		.loc 1 263 0
 224 0000 054B     		ldr	r3, .L26
 225 0002 1A78     		ldrb	r2, [r3]	@ zero_extendqisi2
 226 0004 02F0F802 		and	r2, r2, #248
 227 0008 1A70     		strb	r2, [r3]
 264:Generated_Source\PSoC5/RecieveShiftReg.c ****     RecieveShiftReg_SR_STATUS_MASK |= (interruptSource & RecieveShiftReg_INTS_EN_MASK); /* Set int 
 228              		.loc 1 264 0
 229 000a 1A78     		ldrb	r2, [r3]	@ zero_extendqisi2
 230 000c 00F00700 		and	r0, r0, #7
 231              	.LVL15:
 232 0010 1043     		orrs	r0, r0, r2
 233 0012 1870     		strb	r0, [r3]
 234 0014 7047     		bx	lr
 235              	.L27:
 236 0016 00BF     		.align	2
 237              	.L26:
 238 0018 87650040 		.word	1073767815
 239              		.cfi_endproc
 240              	.LFE7:
 241              		.size	RecieveShiftReg_SetIntMode, .-RecieveShiftReg_SetIntMode
ARM GAS  C:\Users\EA527~1.IVA\AppData\Local\Temp\ccltsKcu.s 			page 10


 242              		.section	.text.RecieveShiftReg_Init,"ax",%progbits
 243              		.align	2
 244              		.global	RecieveShiftReg_Init
 245              		.thumb
 246              		.thumb_func
 247              		.type	RecieveShiftReg_Init, %function
 248              	RecieveShiftReg_Init:
 249              	.LFB2:
  94:Generated_Source\PSoC5/RecieveShiftReg.c ****     RecieveShiftReg_SetIntMode(RecieveShiftReg_INT_SRC);
 250              		.loc 1 94 0
 251              		.cfi_startproc
 252              		@ args = 0, pretend = 0, frame = 0
 253              		@ frame_needed = 0, uses_anonymous_args = 0
 254 0000 08B5     		push	{r3, lr}
 255              		.cfi_def_cfa_offset 8
 256              		.cfi_offset 3, -8
 257              		.cfi_offset 14, -4
  95:Generated_Source\PSoC5/RecieveShiftReg.c **** }
 258              		.loc 1 95 0
 259 0002 0220     		movs	r0, #2
 260 0004 FFF7FEFF 		bl	RecieveShiftReg_SetIntMode
 261              	.LVL16:
 262 0008 08BD     		pop	{r3, pc}
 263              		.cfi_endproc
 264              	.LFE2:
 265              		.size	RecieveShiftReg_Init, .-RecieveShiftReg_Init
 266 000a 00BF     		.section	.text.RecieveShiftReg_Start,"ax",%progbits
 267              		.align	2
 268              		.global	RecieveShiftReg_Start
 269              		.thumb
 270              		.thumb_func
 271              		.type	RecieveShiftReg_Start, %function
 272              	RecieveShiftReg_Start:
 273              	.LFB0:
  44:Generated_Source\PSoC5/RecieveShiftReg.c ****     if(0u == RecieveShiftReg_initVar)
 274              		.loc 1 44 0
 275              		.cfi_startproc
 276              		@ args = 0, pretend = 0, frame = 0
 277              		@ frame_needed = 0, uses_anonymous_args = 0
 278 0000 08B5     		push	{r3, lr}
 279              		.cfi_def_cfa_offset 8
 280              		.cfi_offset 3, -8
 281              		.cfi_offset 14, -4
  45:Generated_Source\PSoC5/RecieveShiftReg.c ****     {
 282              		.loc 1 45 0
 283 0002 054B     		ldr	r3, .L33
 284 0004 1B78     		ldrb	r3, [r3]	@ zero_extendqisi2
 285 0006 23B9     		cbnz	r3, .L31
  47:Generated_Source\PSoC5/RecieveShiftReg.c ****         RecieveShiftReg_initVar = 1u; /* Component initialized */
 286              		.loc 1 47 0
 287 0008 FFF7FEFF 		bl	RecieveShiftReg_Init
 288              	.LVL17:
  48:Generated_Source\PSoC5/RecieveShiftReg.c ****     }
 289              		.loc 1 48 0
 290 000c 0122     		movs	r2, #1
 291 000e 024B     		ldr	r3, .L33
 292 0010 1A70     		strb	r2, [r3]
ARM GAS  C:\Users\EA527~1.IVA\AppData\Local\Temp\ccltsKcu.s 			page 11


 293              	.L31:
  51:Generated_Source\PSoC5/RecieveShiftReg.c **** }
 294              		.loc 1 51 0
 295 0012 FFF7FEFF 		bl	RecieveShiftReg_Enable
 296              	.LVL18:
 297 0016 08BD     		pop	{r3, pc}
 298              	.L34:
 299              		.align	2
 300              	.L33:
 301 0018 00000000 		.word	.LANCHOR0
 302              		.cfi_endproc
 303              	.LFE0:
 304              		.size	RecieveShiftReg_Start, .-RecieveShiftReg_Start
 305              		.section	.text.RecieveShiftReg_GetIntStatus,"ax",%progbits
 306              		.align	2
 307              		.global	RecieveShiftReg_GetIntStatus
 308              		.thumb
 309              		.thumb_func
 310              		.type	RecieveShiftReg_GetIntStatus, %function
 311              	RecieveShiftReg_GetIntStatus:
 312              	.LFB8:
 265:Generated_Source\PSoC5/RecieveShiftReg.c **** }
 266:Generated_Source\PSoC5/RecieveShiftReg.c **** 
 267:Generated_Source\PSoC5/RecieveShiftReg.c **** 
 268:Generated_Source\PSoC5/RecieveShiftReg.c **** /*******************************************************************************
 269:Generated_Source\PSoC5/RecieveShiftReg.c **** * Function Name: RecieveShiftReg_GetIntStatus
 270:Generated_Source\PSoC5/RecieveShiftReg.c **** ********************************************************************************
 271:Generated_Source\PSoC5/RecieveShiftReg.c **** *
 272:Generated_Source\PSoC5/RecieveShiftReg.c **** * Summary:
 273:Generated_Source\PSoC5/RecieveShiftReg.c **** *  Gets the Shift Register Interrupt status.
 274:Generated_Source\PSoC5/RecieveShiftReg.c **** *
 275:Generated_Source\PSoC5/RecieveShiftReg.c **** * Parameters:
 276:Generated_Source\PSoC5/RecieveShiftReg.c **** *  None.
 277:Generated_Source\PSoC5/RecieveShiftReg.c **** *
 278:Generated_Source\PSoC5/RecieveShiftReg.c **** * Return:
 279:Generated_Source\PSoC5/RecieveShiftReg.c **** *  Byte containing the constant for the selected interrupt source/s.
 280:Generated_Source\PSoC5/RecieveShiftReg.c **** *
 281:Generated_Source\PSoC5/RecieveShiftReg.c **** *******************************************************************************/
 282:Generated_Source\PSoC5/RecieveShiftReg.c **** uint8 RecieveShiftReg_GetIntStatus(void) 
 283:Generated_Source\PSoC5/RecieveShiftReg.c **** {
 313              		.loc 1 283 0
 314              		.cfi_startproc
 315              		@ args = 0, pretend = 0, frame = 0
 316              		@ frame_needed = 0, uses_anonymous_args = 0
 317              		@ link register save eliminated.
 284:Generated_Source\PSoC5/RecieveShiftReg.c ****     return(RecieveShiftReg_SR_STATUS & RecieveShiftReg_INTS_EN_MASK);
 318              		.loc 1 284 0
 319 0000 024B     		ldr	r3, .L36
 320 0002 1878     		ldrb	r0, [r3]	@ zero_extendqisi2
 285:Generated_Source\PSoC5/RecieveShiftReg.c **** }
 321              		.loc 1 285 0
 322 0004 00F00700 		and	r0, r0, #7
 323 0008 7047     		bx	lr
 324              	.L37:
 325 000a 00BF     		.align	2
 326              	.L36:
 327 000c 67650040 		.word	1073767783
ARM GAS  C:\Users\EA527~1.IVA\AppData\Local\Temp\ccltsKcu.s 			page 12


 328              		.cfi_endproc
 329              	.LFE8:
 330              		.size	RecieveShiftReg_GetIntStatus, .-RecieveShiftReg_GetIntStatus
 331              		.section	.text.RecieveShiftReg_WriteRegValue,"ax",%progbits
 332              		.align	2
 333              		.global	RecieveShiftReg_WriteRegValue
 334              		.thumb
 335              		.thumb_func
 336              		.type	RecieveShiftReg_WriteRegValue, %function
 337              	RecieveShiftReg_WriteRegValue:
 338              	.LFB9:
 286:Generated_Source\PSoC5/RecieveShiftReg.c **** 
 287:Generated_Source\PSoC5/RecieveShiftReg.c **** 
 288:Generated_Source\PSoC5/RecieveShiftReg.c **** /*******************************************************************************
 289:Generated_Source\PSoC5/RecieveShiftReg.c **** * Function Name: RecieveShiftReg_WriteRegValue
 290:Generated_Source\PSoC5/RecieveShiftReg.c **** ********************************************************************************
 291:Generated_Source\PSoC5/RecieveShiftReg.c **** *
 292:Generated_Source\PSoC5/RecieveShiftReg.c **** * Summary:
 293:Generated_Source\PSoC5/RecieveShiftReg.c **** *  Send state directly to shift register
 294:Generated_Source\PSoC5/RecieveShiftReg.c **** *
 295:Generated_Source\PSoC5/RecieveShiftReg.c **** * Parameters:
 296:Generated_Source\PSoC5/RecieveShiftReg.c **** *  shiftData: containing shift register state.
 297:Generated_Source\PSoC5/RecieveShiftReg.c **** *
 298:Generated_Source\PSoC5/RecieveShiftReg.c **** * Return:
 299:Generated_Source\PSoC5/RecieveShiftReg.c **** *  None.
 300:Generated_Source\PSoC5/RecieveShiftReg.c **** *
 301:Generated_Source\PSoC5/RecieveShiftReg.c **** *******************************************************************************/
 302:Generated_Source\PSoC5/RecieveShiftReg.c **** void RecieveShiftReg_WriteRegValue(uint32 shiftData)
 303:Generated_Source\PSoC5/RecieveShiftReg.c ****                                                                      
 304:Generated_Source\PSoC5/RecieveShiftReg.c **** {
 339              		.loc 1 304 0
 340              		.cfi_startproc
 341              		@ args = 0, pretend = 0, frame = 0
 342              		@ frame_needed = 0, uses_anonymous_args = 0
 343              		@ link register save eliminated.
 344              	.LVL19:
 305:Generated_Source\PSoC5/RecieveShiftReg.c ****     CY_SET_REG32(RecieveShiftReg_SHIFT_REG_LSB_PTR, shiftData);
 345              		.loc 1 305 0
 346 0000 014B     		ldr	r3, .L39
 347 0002 1860     		str	r0, [r3]
 348 0004 7047     		bx	lr
 349              	.L40:
 350 0006 00BF     		.align	2
 351              	.L39:
 352 0008 04640040 		.word	1073767428
 353              		.cfi_endproc
 354              	.LFE9:
 355              		.size	RecieveShiftReg_WriteRegValue, .-RecieveShiftReg_WriteRegValue
 356              		.section	.text.RecieveShiftReg_ReadData,"ax",%progbits
 357              		.align	2
 358              		.global	RecieveShiftReg_ReadData
 359              		.thumb
 360              		.thumb_func
 361              		.type	RecieveShiftReg_ReadData, %function
 362              	RecieveShiftReg_ReadData:
 363              	.LFB10:
 306:Generated_Source\PSoC5/RecieveShiftReg.c **** }
ARM GAS  C:\Users\EA527~1.IVA\AppData\Local\Temp\ccltsKcu.s 			page 13


 307:Generated_Source\PSoC5/RecieveShiftReg.c **** 
 308:Generated_Source\PSoC5/RecieveShiftReg.c **** 
 309:Generated_Source\PSoC5/RecieveShiftReg.c **** #if(0u != RecieveShiftReg_USE_INPUT_FIFO)
 310:Generated_Source\PSoC5/RecieveShiftReg.c ****     /*******************************************************************************
 311:Generated_Source\PSoC5/RecieveShiftReg.c ****     * Function Name: RecieveShiftReg_WriteData
 312:Generated_Source\PSoC5/RecieveShiftReg.c ****     ********************************************************************************
 313:Generated_Source\PSoC5/RecieveShiftReg.c ****     *
 314:Generated_Source\PSoC5/RecieveShiftReg.c ****     * Summary:
 315:Generated_Source\PSoC5/RecieveShiftReg.c ****     *  Send state to FIFO for later transfer to shift register based on the Load
 316:Generated_Source\PSoC5/RecieveShiftReg.c ****     *  input
 317:Generated_Source\PSoC5/RecieveShiftReg.c ****     *
 318:Generated_Source\PSoC5/RecieveShiftReg.c ****     * Parameters:
 319:Generated_Source\PSoC5/RecieveShiftReg.c ****     *  shiftData: containing shift register state.
 320:Generated_Source\PSoC5/RecieveShiftReg.c ****     *
 321:Generated_Source\PSoC5/RecieveShiftReg.c ****     * Return:
 322:Generated_Source\PSoC5/RecieveShiftReg.c ****     *  Indicates: successful execution of function
 323:Generated_Source\PSoC5/RecieveShiftReg.c ****     *  when FIFO is empty; and error when FIFO is full.
 324:Generated_Source\PSoC5/RecieveShiftReg.c ****     *
 325:Generated_Source\PSoC5/RecieveShiftReg.c ****     * Reentrant:
 326:Generated_Source\PSoC5/RecieveShiftReg.c ****     *  No.
 327:Generated_Source\PSoC5/RecieveShiftReg.c ****     *
 328:Generated_Source\PSoC5/RecieveShiftReg.c ****     *******************************************************************************/
 329:Generated_Source\PSoC5/RecieveShiftReg.c ****     cystatus RecieveShiftReg_WriteData(uint32 shiftData)
 330:Generated_Source\PSoC5/RecieveShiftReg.c ****                                                                          
 331:Generated_Source\PSoC5/RecieveShiftReg.c ****     {
 332:Generated_Source\PSoC5/RecieveShiftReg.c ****         cystatus result;
 333:Generated_Source\PSoC5/RecieveShiftReg.c **** 
 334:Generated_Source\PSoC5/RecieveShiftReg.c ****         result = CYRET_INVALID_STATE;
 335:Generated_Source\PSoC5/RecieveShiftReg.c **** 
 336:Generated_Source\PSoC5/RecieveShiftReg.c ****         /* Writes data into the input FIFO if it is not FULL */
 337:Generated_Source\PSoC5/RecieveShiftReg.c ****         if(RecieveShiftReg_RET_FIFO_FULL != (RecieveShiftReg_GetFIFOStatus(RecieveShiftReg_IN_FIFO)
 338:Generated_Source\PSoC5/RecieveShiftReg.c ****         {
 339:Generated_Source\PSoC5/RecieveShiftReg.c ****             CY_SET_REG32(RecieveShiftReg_IN_FIFO_VAL_LSB_PTR, shiftData);
 340:Generated_Source\PSoC5/RecieveShiftReg.c ****             result = CYRET_SUCCESS;
 341:Generated_Source\PSoC5/RecieveShiftReg.c ****         }
 342:Generated_Source\PSoC5/RecieveShiftReg.c **** 
 343:Generated_Source\PSoC5/RecieveShiftReg.c ****         return(result);
 344:Generated_Source\PSoC5/RecieveShiftReg.c ****     }
 345:Generated_Source\PSoC5/RecieveShiftReg.c **** #endif /* (0u != RecieveShiftReg_USE_INPUT_FIFO) */
 346:Generated_Source\PSoC5/RecieveShiftReg.c **** 
 347:Generated_Source\PSoC5/RecieveShiftReg.c **** 
 348:Generated_Source\PSoC5/RecieveShiftReg.c **** #if(0u != RecieveShiftReg_USE_OUTPUT_FIFO)
 349:Generated_Source\PSoC5/RecieveShiftReg.c ****     /*******************************************************************************
 350:Generated_Source\PSoC5/RecieveShiftReg.c ****     * Function Name: RecieveShiftReg_ReadData
 351:Generated_Source\PSoC5/RecieveShiftReg.c ****     ********************************************************************************
 352:Generated_Source\PSoC5/RecieveShiftReg.c ****     *
 353:Generated_Source\PSoC5/RecieveShiftReg.c ****     * Summary:
 354:Generated_Source\PSoC5/RecieveShiftReg.c ****     *  Returns state in FIFO due to Store input.
 355:Generated_Source\PSoC5/RecieveShiftReg.c ****     *
 356:Generated_Source\PSoC5/RecieveShiftReg.c ****     * Parameters:
 357:Generated_Source\PSoC5/RecieveShiftReg.c ****     *  None.
 358:Generated_Source\PSoC5/RecieveShiftReg.c ****     *
 359:Generated_Source\PSoC5/RecieveShiftReg.c ****     * Return:
 360:Generated_Source\PSoC5/RecieveShiftReg.c ****     *  Shift Register state
 361:Generated_Source\PSoC5/RecieveShiftReg.c ****     *
 362:Generated_Source\PSoC5/RecieveShiftReg.c ****     * Reentrant:
 363:Generated_Source\PSoC5/RecieveShiftReg.c ****     *  No.
ARM GAS  C:\Users\EA527~1.IVA\AppData\Local\Temp\ccltsKcu.s 			page 14


 364:Generated_Source\PSoC5/RecieveShiftReg.c ****     *
 365:Generated_Source\PSoC5/RecieveShiftReg.c ****     *******************************************************************************/
 366:Generated_Source\PSoC5/RecieveShiftReg.c ****     uint32 RecieveShiftReg_ReadData(void) 
 367:Generated_Source\PSoC5/RecieveShiftReg.c ****     {
 364              		.loc 1 367 0
 365              		.cfi_startproc
 366              		@ args = 0, pretend = 0, frame = 0
 367              		@ frame_needed = 0, uses_anonymous_args = 0
 368              		@ link register save eliminated.
 368:Generated_Source\PSoC5/RecieveShiftReg.c ****         return(CY_GET_REG32(RecieveShiftReg_OUT_FIFO_VAL_LSB_PTR));
 369              		.loc 1 368 0
 370 0000 014B     		ldr	r3, .L42
 371 0002 1868     		ldr	r0, [r3]
 369:Generated_Source\PSoC5/RecieveShiftReg.c ****     }
 372              		.loc 1 369 0
 373 0004 7047     		bx	lr
 374              	.L43:
 375 0006 00BF     		.align	2
 376              	.L42:
 377 0008 54640040 		.word	1073767508
 378              		.cfi_endproc
 379              	.LFE10:
 380              		.size	RecieveShiftReg_ReadData, .-RecieveShiftReg_ReadData
 381              		.section	.text.RecieveShiftReg_ReadRegValue,"ax",%progbits
 382              		.align	2
 383              		.global	RecieveShiftReg_ReadRegValue
 384              		.thumb
 385              		.thumb_func
 386              		.type	RecieveShiftReg_ReadRegValue, %function
 387              	RecieveShiftReg_ReadRegValue:
 388              	.LFB11:
 370:Generated_Source\PSoC5/RecieveShiftReg.c **** #endif /* (0u != RecieveShiftReg_USE_OUTPUT_FIFO) */
 371:Generated_Source\PSoC5/RecieveShiftReg.c **** 
 372:Generated_Source\PSoC5/RecieveShiftReg.c **** 
 373:Generated_Source\PSoC5/RecieveShiftReg.c **** /*******************************************************************************
 374:Generated_Source\PSoC5/RecieveShiftReg.c **** * Function Name: RecieveShiftReg_ReadRegValue
 375:Generated_Source\PSoC5/RecieveShiftReg.c **** ********************************************************************************
 376:Generated_Source\PSoC5/RecieveShiftReg.c **** *
 377:Generated_Source\PSoC5/RecieveShiftReg.c **** * Summary:
 378:Generated_Source\PSoC5/RecieveShiftReg.c **** *  Directly returns current state in shift register, not data in FIFO due
 379:Generated_Source\PSoC5/RecieveShiftReg.c **** *  to Store input.
 380:Generated_Source\PSoC5/RecieveShiftReg.c **** *
 381:Generated_Source\PSoC5/RecieveShiftReg.c **** * Parameters:
 382:Generated_Source\PSoC5/RecieveShiftReg.c **** *  None.
 383:Generated_Source\PSoC5/RecieveShiftReg.c **** *
 384:Generated_Source\PSoC5/RecieveShiftReg.c **** * Return:
 385:Generated_Source\PSoC5/RecieveShiftReg.c **** *  Shift Register state. Clears output FIFO.
 386:Generated_Source\PSoC5/RecieveShiftReg.c **** *
 387:Generated_Source\PSoC5/RecieveShiftReg.c **** * Reentrant:
 388:Generated_Source\PSoC5/RecieveShiftReg.c **** *  No.
 389:Generated_Source\PSoC5/RecieveShiftReg.c **** *
 390:Generated_Source\PSoC5/RecieveShiftReg.c **** *******************************************************************************/
 391:Generated_Source\PSoC5/RecieveShiftReg.c **** uint32 RecieveShiftReg_ReadRegValue(void) 
 392:Generated_Source\PSoC5/RecieveShiftReg.c **** {
 389              		.loc 1 392 0
 390              		.cfi_startproc
 391              		@ args = 0, pretend = 0, frame = 0
ARM GAS  C:\Users\EA527~1.IVA\AppData\Local\Temp\ccltsKcu.s 			page 15


 392              		@ frame_needed = 0, uses_anonymous_args = 0
 393 0000 08B5     		push	{r3, lr}
 394              		.cfi_def_cfa_offset 8
 395              		.cfi_offset 3, -8
 396              		.cfi_offset 14, -4
 393:Generated_Source\PSoC5/RecieveShiftReg.c ****     uint32 result;
 394:Generated_Source\PSoC5/RecieveShiftReg.c **** 
 395:Generated_Source\PSoC5/RecieveShiftReg.c ****     /* Clear FIFO before software capture */
 396:Generated_Source\PSoC5/RecieveShiftReg.c ****     while(RecieveShiftReg_RET_FIFO_EMPTY != RecieveShiftReg_GetFIFOStatus(RecieveShiftReg_OUT_FIFO)
 397              		.loc 1 396 0
 398 0002 01E0     		b	.L45
 399              	.L46:
 397:Generated_Source\PSoC5/RecieveShiftReg.c ****     {
 398:Generated_Source\PSoC5/RecieveShiftReg.c ****         (void) CY_GET_REG32(RecieveShiftReg_OUT_FIFO_VAL_LSB_PTR);
 400              		.loc 1 398 0
 401 0004 054B     		ldr	r3, .L48
 402 0006 1B68     		ldr	r3, [r3]
 403              	.L45:
 396:Generated_Source\PSoC5/RecieveShiftReg.c ****     {
 404              		.loc 1 396 0
 405 0008 0220     		movs	r0, #2
 406 000a FFF7FEFF 		bl	RecieveShiftReg_GetFIFOStatus
 407              	.LVL20:
 408 000e 0228     		cmp	r0, #2
 409 0010 F8D1     		bne	.L46
 399:Generated_Source\PSoC5/RecieveShiftReg.c ****     }
 400:Generated_Source\PSoC5/RecieveShiftReg.c **** 
 401:Generated_Source\PSoC5/RecieveShiftReg.c ****     /* Read of 8 bits from A1 causes capture to output FIFO */
 402:Generated_Source\PSoC5/RecieveShiftReg.c ****     (void) CY_GET_REG8(RecieveShiftReg_SHIFT_REG_CAPTURE_PTR);
 410              		.loc 1 402 0
 411 0012 034B     		ldr	r3, .L48+4
 412 0014 1B78     		ldrb	r3, [r3]	@ zero_extendqisi2
 403:Generated_Source\PSoC5/RecieveShiftReg.c **** 
 404:Generated_Source\PSoC5/RecieveShiftReg.c ****     /* Read output FIFO */
 405:Generated_Source\PSoC5/RecieveShiftReg.c ****     result  = CY_GET_REG32(RecieveShiftReg_OUT_FIFO_VAL_LSB_PTR);
 413              		.loc 1 405 0
 414 0016 014B     		ldr	r3, .L48
 415 0018 1868     		ldr	r0, [r3]
 416              	.LVL21:
 406:Generated_Source\PSoC5/RecieveShiftReg.c ****     
 407:Generated_Source\PSoC5/RecieveShiftReg.c ****     #if(0u != (RecieveShiftReg_SR_SIZE % 8u))
 408:Generated_Source\PSoC5/RecieveShiftReg.c ****         result &= ((uint32) RecieveShiftReg_SR_MASK);
 409:Generated_Source\PSoC5/RecieveShiftReg.c ****     #endif /* (0u != (RecieveShiftReg_SR_SIZE % 8u)) */
 410:Generated_Source\PSoC5/RecieveShiftReg.c ****     
 411:Generated_Source\PSoC5/RecieveShiftReg.c ****     return(result);
 412:Generated_Source\PSoC5/RecieveShiftReg.c **** }
 417              		.loc 1 412 0
 418 001a 08BD     		pop	{r3, pc}
 419              	.L49:
 420              		.align	2
 421              	.L48:
 422 001c 54640040 		.word	1073767508
 423 0020 14640040 		.word	1073767444
 424              		.cfi_endproc
 425              	.LFE11:
 426              		.size	RecieveShiftReg_ReadRegValue, .-RecieveShiftReg_ReadRegValue
 427              		.global	RecieveShiftReg_initVar
ARM GAS  C:\Users\EA527~1.IVA\AppData\Local\Temp\ccltsKcu.s 			page 16


 428              		.bss
 429              		.set	.LANCHOR0,. + 0
 430              		.type	RecieveShiftReg_initVar, %object
 431              		.size	RecieveShiftReg_initVar, 1
 432              	RecieveShiftReg_initVar:
 433 0000 00       		.space	1
 434              		.text
 435              	.Letext0:
 436              		.file 2 "Generated_Source\\PSoC5\\cytypes.h"
 437              		.file 3 "Generated_Source\\PSoC5\\CyLib.h"