ARM GAS  C:\Users\EA527~1.IVA\AppData\Local\Temp\ccjTtl1F.s 			page 1


   1              		.syntax unified
   2              		.cpu cortex-m3
   3              		.fpu softvfp
   4              		.eabi_attribute 20, 1
   5              		.eabi_attribute 21, 1
   6              		.eabi_attribute 23, 3
   7              		.eabi_attribute 24, 1
   8              		.eabi_attribute 25, 1
   9              		.eabi_attribute 26, 1
  10              		.eabi_attribute 30, 1
  11              		.eabi_attribute 34, 1
  12              		.eabi_attribute 18, 4
  13              		.thumb
  14              		.syntax unified
  15              		.file	"reciver.c"
  16              		.text
  17              	.Ltext0:
  18              		.cfi_sections	.debug_frame
  19              		.section	.text.Store,"ax",%progbits
  20              		.align	2
  21              		.global	Store
  22              		.thumb
  23              		.thumb_func
  24              		.type	Store, %function
  25              	Store:
  26              	.LFB0:
  27              		.file 1 "reciver.c"
   1:reciver.c     **** /* ========================================
   2:reciver.c     ****  *
   3:reciver.c     ****  * Copyright YOUR COMPANY, THE YEAR
   4:reciver.c     ****  * All Rights Reserved
   5:reciver.c     ****  * UNPUBLISHED, LICENSED SOFTWARE.
   6:reciver.c     ****  *
   7:reciver.c     ****  * CONFIDENTIAL AND PROPRIETARY INFORMATION
   8:reciver.c     ****  * WHICH IS THE PROPERTY OF your company.
   9:reciver.c     ****  *
  10:reciver.c     ****  * ========================================
  11:reciver.c     **** */
  12:reciver.c     **** #include "reciver.h"
  13:reciver.c     **** #include <RecieveShiftReg.h>
  14:reciver.c     **** #include <BitCounterDec.h>
  15:reciver.c     **** #include <StartTransmit.h>
  16:reciver.c     **** exchange_unit RecivedData;
  17:reciver.c     **** RecieveStatReg curStatRecive;
  18:reciver.c     **** 
  19:reciver.c     **** static volatile unsigned int AllowStoreFlag = 0, AllowPrepareToStoreFlag = 0, first = 0,data_recive
  20:reciver.c     **** static volatile unsigned int CountToRecieve, rcstatus=0, tmp;
  21:reciver.c     **** static uint32 *current_word  = NULL;
  22:reciver.c     **** 
  23:reciver.c     **** 
  24:reciver.c     **** void Store(void){
  28              		.loc 1 24 0
  29              		.cfi_startproc
  30              		@ args = 0, pretend = 0, frame = 0
  31              		@ frame_needed = 0, uses_anonymous_args = 0
  32 0000 08B5     		push	{r3, lr}
  33              		.cfi_def_cfa_offset 8
ARM GAS  C:\Users\EA527~1.IVA\AppData\Local\Temp\ccjTtl1F.s 			page 2


  34              		.cfi_offset 3, -8
  35              		.cfi_offset 14, -4
  25:reciver.c     ****     tmp = RecieveShiftReg_SR_STATUS;
  36              		.loc 1 25 0
  37 0002 134B     		ldr	r3, .L7
  38 0004 1B78     		ldrb	r3, [r3]	@ zero_extendqisi2
  39 0006 DBB2     		uxtb	r3, r3
  40 0008 124A     		ldr	r2, .L7+4
  41 000a 1360     		str	r3, [r2]
  26:reciver.c     ****     while ( tmp & 0x40)// FULL or NOT_EMPTY
  42              		.loc 1 26 0
  43 000c 1AE0     		b	.L2
  44              	.L5:
  27:reciver.c     ****     {
  28:reciver.c     ****         tmp = RecieveShiftReg_ReadData();
  45              		.loc 1 28 0
  46 000e FFF7FEFF 		bl	RecieveShiftReg_ReadData
  47              	.LVL0:
  48 0012 104B     		ldr	r3, .L7+4
  49 0014 1860     		str	r0, [r3]
  29:reciver.c     ****         if(first == 0)                 first = 1;
  50              		.loc 1 29 0
  51 0016 5B68     		ldr	r3, [r3, #4]
  52 0018 1BB9     		cbnz	r3, .L3
  53              		.loc 1 29 0 is_stmt 0 discriminator 1
  54 001a 0122     		movs	r2, #1
  55 001c 0D4B     		ldr	r3, .L7+4
  56 001e 5A60     		str	r2, [r3, #4]
  57 0020 10E0     		b	.L2
  58              	.L3:
  30:reciver.c     ****         else {
  31:reciver.c     ****             if(CountToRecieve){
  59              		.loc 1 31 0 is_stmt 1
  60 0022 0C4B     		ldr	r3, .L7+4
  61 0024 9B68     		ldr	r3, [r3, #8]
  62 0026 6BB1     		cbz	r3, .L2
  32:reciver.c     ****                 *current_word = tmp;
  63              		.loc 1 32 0
  64 0028 0A4B     		ldr	r3, .L7+4
  65 002a 1968     		ldr	r1, [r3]
  66 002c DA68     		ldr	r2, [r3, #12]
  67 002e 42F8041B 		str	r1, [r2], #4
  33:reciver.c     ****                 current_word++;
  68              		.loc 1 33 0
  69 0032 DA60     		str	r2, [r3, #12]
  34:reciver.c     ****                 CountToRecieve--;
  70              		.loc 1 34 0
  71 0034 9A68     		ldr	r2, [r3, #8]
  72 0036 013A     		subs	r2, r2, #1
  73 0038 9A60     		str	r2, [r3, #8]
  35:reciver.c     ****                 if(CountToRecieve==0)data_recived= 1;
  74              		.loc 1 35 0
  75 003a 9B68     		ldr	r3, [r3, #8]
  76 003c 13B9     		cbnz	r3, .L2
  77              		.loc 1 35 0 is_stmt 0 discriminator 1
  78 003e 0122     		movs	r2, #1
  79 0040 044B     		ldr	r3, .L7+4
ARM GAS  C:\Users\EA527~1.IVA\AppData\Local\Temp\ccjTtl1F.s 			page 3


  80 0042 1A61     		str	r2, [r3, #16]
  81              	.L2:
  26:reciver.c     ****     {
  82              		.loc 1 26 0 is_stmt 1
  83 0044 034B     		ldr	r3, .L7+4
  84 0046 1B68     		ldr	r3, [r3]
  85 0048 13F0400F 		tst	r3, #64
  86 004c DFD1     		bne	.L5
  36:reciver.c     ****             }
  37:reciver.c     ****         }
  38:reciver.c     ****     }
  39:reciver.c     **** }
  87              		.loc 1 39 0
  88 004e 08BD     		pop	{r3, pc}
  89              	.L8:
  90              		.align	2
  91              	.L7:
  92 0050 62640040 		.word	1073767522
  93 0054 00000000 		.word	.LANCHOR0
  94              		.cfi_endproc
  95              	.LFE0:
  96              		.size	Store, .-Store
  97              		.section	.text.SetAllowPrepareToStoreFlag,"ax",%progbits
  98              		.align	2
  99              		.global	SetAllowPrepareToStoreFlag
 100              		.thumb
 101              		.thumb_func
 102              		.type	SetAllowPrepareToStoreFlag, %function
 103              	SetAllowPrepareToStoreFlag:
 104              	.LFB1:
  40:reciver.c     **** 
  41:reciver.c     **** void SetAllowPrepareToStoreFlag(void){
 105              		.loc 1 41 0
 106              		.cfi_startproc
 107              		@ args = 0, pretend = 0, frame = 0
 108              		@ frame_needed = 0, uses_anonymous_args = 0
 109              		@ link register save eliminated.
  42:reciver.c     ****     AllowPrepareToStoreFlag = 1;
 110              		.loc 1 42 0
 111 0000 0122     		movs	r2, #1
 112 0002 014B     		ldr	r3, .L10
 113 0004 5A61     		str	r2, [r3, #20]
 114 0006 7047     		bx	lr
 115              	.L11:
 116              		.align	2
 117              	.L10:
 118 0008 00000000 		.word	.LANCHOR0
 119              		.cfi_endproc
 120              	.LFE1:
 121              		.size	SetAllowPrepareToStoreFlag, .-SetAllowPrepareToStoreFlag
 122              		.section	.text.CheckAllowPrepareToStoreFlag,"ax",%progbits
 123              		.align	2
 124              		.global	CheckAllowPrepareToStoreFlag
 125              		.thumb
 126              		.thumb_func
 127              		.type	CheckAllowPrepareToStoreFlag, %function
 128              	CheckAllowPrepareToStoreFlag:
ARM GAS  C:\Users\EA527~1.IVA\AppData\Local\Temp\ccjTtl1F.s 			page 4


 129              	.LFB2:
  43:reciver.c     **** }
  44:reciver.c     **** 
  45:reciver.c     **** int CheckAllowPrepareToStoreFlag(void){
 130              		.loc 1 45 0
 131              		.cfi_startproc
 132              		@ args = 0, pretend = 0, frame = 0
 133              		@ frame_needed = 0, uses_anonymous_args = 0
 134              		@ link register save eliminated.
  46:reciver.c     ****     return AllowPrepareToStoreFlag;
 135              		.loc 1 46 0
 136 0000 014B     		ldr	r3, .L13
 137 0002 5869     		ldr	r0, [r3, #20]
  47:reciver.c     **** }
 138              		.loc 1 47 0
 139 0004 7047     		bx	lr
 140              	.L14:
 141 0006 00BF     		.align	2
 142              	.L13:
 143 0008 00000000 		.word	.LANCHOR0
 144              		.cfi_endproc
 145              	.LFE2:
 146              		.size	CheckAllowPrepareToStoreFlag, .-CheckAllowPrepareToStoreFlag
 147              		.section	.text.ClearAllowPrepareToStoreFlag,"ax",%progbits
 148              		.align	2
 149              		.global	ClearAllowPrepareToStoreFlag
 150              		.thumb
 151              		.thumb_func
 152              		.type	ClearAllowPrepareToStoreFlag, %function
 153              	ClearAllowPrepareToStoreFlag:
 154              	.LFB3:
  48:reciver.c     **** 
  49:reciver.c     **** void ClearAllowPrepareToStoreFlag(void){
 155              		.loc 1 49 0
 156              		.cfi_startproc
 157              		@ args = 0, pretend = 0, frame = 0
 158              		@ frame_needed = 0, uses_anonymous_args = 0
 159              		@ link register save eliminated.
  50:reciver.c     ****     AllowPrepareToStoreFlag = 0;
 160              		.loc 1 50 0
 161 0000 0022     		movs	r2, #0
 162 0002 014B     		ldr	r3, .L16
 163 0004 5A61     		str	r2, [r3, #20]
 164 0006 7047     		bx	lr
 165              	.L17:
 166              		.align	2
 167              	.L16:
 168 0008 00000000 		.word	.LANCHOR0
 169              		.cfi_endproc
 170              	.LFE3:
 171              		.size	ClearAllowPrepareToStoreFlag, .-ClearAllowPrepareToStoreFlag
 172              		.section	.text.SetAllowStoreFlag,"ax",%progbits
 173              		.align	2
 174              		.global	SetAllowStoreFlag
 175              		.thumb
 176              		.thumb_func
 177              		.type	SetAllowStoreFlag, %function
ARM GAS  C:\Users\EA527~1.IVA\AppData\Local\Temp\ccjTtl1F.s 			page 5


 178              	SetAllowStoreFlag:
 179              	.LFB4:
  51:reciver.c     **** }
  52:reciver.c     **** 
  53:reciver.c     **** void SetAllowStoreFlag(void){
 180              		.loc 1 53 0
 181              		.cfi_startproc
 182              		@ args = 0, pretend = 0, frame = 0
 183              		@ frame_needed = 0, uses_anonymous_args = 0
 184              		@ link register save eliminated.
  54:reciver.c     ****     AllowStoreFlag = 1;
 185              		.loc 1 54 0
 186 0000 0122     		movs	r2, #1
 187 0002 014B     		ldr	r3, .L19
 188 0004 9A61     		str	r2, [r3, #24]
 189 0006 7047     		bx	lr
 190              	.L20:
 191              		.align	2
 192              	.L19:
 193 0008 00000000 		.word	.LANCHOR0
 194              		.cfi_endproc
 195              	.LFE4:
 196              		.size	SetAllowStoreFlag, .-SetAllowStoreFlag
 197              		.section	.text.CheckAllowStoreFlag,"ax",%progbits
 198              		.align	2
 199              		.global	CheckAllowStoreFlag
 200              		.thumb
 201              		.thumb_func
 202              		.type	CheckAllowStoreFlag, %function
 203              	CheckAllowStoreFlag:
 204              	.LFB5:
  55:reciver.c     **** }
  56:reciver.c     **** 
  57:reciver.c     **** int CheckAllowStoreFlag(void){
 205              		.loc 1 57 0
 206              		.cfi_startproc
 207              		@ args = 0, pretend = 0, frame = 0
 208              		@ frame_needed = 0, uses_anonymous_args = 0
 209              		@ link register save eliminated.
  58:reciver.c     ****     return AllowStoreFlag;
 210              		.loc 1 58 0
 211 0000 014B     		ldr	r3, .L22
 212 0002 9869     		ldr	r0, [r3, #24]
  59:reciver.c     **** }
 213              		.loc 1 59 0
 214 0004 7047     		bx	lr
 215              	.L23:
 216 0006 00BF     		.align	2
 217              	.L22:
 218 0008 00000000 		.word	.LANCHOR0
 219              		.cfi_endproc
 220              	.LFE5:
 221              		.size	CheckAllowStoreFlag, .-CheckAllowStoreFlag
 222              		.section	.text.ClearAllowStoreFlag,"ax",%progbits
 223              		.align	2
 224              		.global	ClearAllowStoreFlag
 225              		.thumb
ARM GAS  C:\Users\EA527~1.IVA\AppData\Local\Temp\ccjTtl1F.s 			page 6


 226              		.thumb_func
 227              		.type	ClearAllowStoreFlag, %function
 228              	ClearAllowStoreFlag:
 229              	.LFB6:
  60:reciver.c     **** 
  61:reciver.c     **** void ClearAllowStoreFlag(void){
 230              		.loc 1 61 0
 231              		.cfi_startproc
 232              		@ args = 0, pretend = 0, frame = 0
 233              		@ frame_needed = 0, uses_anonymous_args = 0
 234              		@ link register save eliminated.
  62:reciver.c     ****     AllowStoreFlag = 0;
 235              		.loc 1 62 0
 236 0000 0022     		movs	r2, #0
 237 0002 014B     		ldr	r3, .L25
 238 0004 9A61     		str	r2, [r3, #24]
 239 0006 7047     		bx	lr
 240              	.L26:
 241              		.align	2
 242              	.L25:
 243 0008 00000000 		.word	.LANCHOR0
 244              		.cfi_endproc
 245              	.LFE6:
 246              		.size	ClearAllowStoreFlag, .-ClearAllowStoreFlag
 247              		.section	.text.CheckNumberOfWords,"ax",%progbits
 248              		.align	2
 249              		.global	CheckNumberOfWords
 250              		.thumb
 251              		.thumb_func
 252              		.type	CheckNumberOfWords, %function
 253              	CheckNumberOfWords:
 254              	.LFB7:
  63:reciver.c     **** }
  64:reciver.c     **** 
  65:reciver.c     **** int CheckNumberOfWords(void){
 255              		.loc 1 65 0
 256              		.cfi_startproc
 257              		@ args = 0, pretend = 0, frame = 0
 258              		@ frame_needed = 0, uses_anonymous_args = 0
 259              		@ link register save eliminated.
  66:reciver.c     ****     return CountToRecieve;
 260              		.loc 1 66 0
 261 0000 014B     		ldr	r3, .L28
 262 0002 9868     		ldr	r0, [r3, #8]
  67:reciver.c     **** }
 263              		.loc 1 67 0
 264 0004 7047     		bx	lr
 265              	.L29:
 266 0006 00BF     		.align	2
 267              	.L28:
 268 0008 00000000 		.word	.LANCHOR0
 269              		.cfi_endproc
 270              	.LFE7:
 271              		.size	CheckNumberOfWords, .-CheckNumberOfWords
 272              		.section	.text.ClearRcStatus,"ax",%progbits
 273              		.align	2
 274              		.global	ClearRcStatus
ARM GAS  C:\Users\EA527~1.IVA\AppData\Local\Temp\ccjTtl1F.s 			page 7


 275              		.thumb
 276              		.thumb_func
 277              		.type	ClearRcStatus, %function
 278              	ClearRcStatus:
 279              	.LFB8:
  68:reciver.c     **** 
  69:reciver.c     **** void ClearRcStatus(void){
 280              		.loc 1 69 0
 281              		.cfi_startproc
 282              		@ args = 0, pretend = 0, frame = 0
 283              		@ frame_needed = 0, uses_anonymous_args = 0
 284              		@ link register save eliminated.
  70:reciver.c     ****     rcstatus = 0;
 285              		.loc 1 70 0
 286 0000 0022     		movs	r2, #0
 287 0002 014B     		ldr	r3, .L31
 288 0004 DA61     		str	r2, [r3, #28]
 289 0006 7047     		bx	lr
 290              	.L32:
 291              		.align	2
 292              	.L31:
 293 0008 00000000 		.word	.LANCHOR0
 294              		.cfi_endproc
 295              	.LFE8:
 296              		.size	ClearRcStatus, .-ClearRcStatus
 297              		.section	.text.isRecived,"ax",%progbits
 298              		.align	2
 299              		.global	isRecived
 300              		.thumb
 301              		.thumb_func
 302              		.type	isRecived, %function
 303              	isRecived:
 304              	.LFB9:
  71:reciver.c     **** }
  72:reciver.c     **** unsigned int isRecived(void){return data_recived;}
 305              		.loc 1 72 0
 306              		.cfi_startproc
 307              		@ args = 0, pretend = 0, frame = 0
 308              		@ frame_needed = 0, uses_anonymous_args = 0
 309              		@ link register save eliminated.
 310              		.loc 1 72 0
 311 0000 014B     		ldr	r3, .L34
 312 0002 1869     		ldr	r0, [r3, #16]
 313 0004 7047     		bx	lr
 314              	.L35:
 315 0006 00BF     		.align	2
 316              	.L34:
 317 0008 00000000 		.word	.LANCHOR0
 318              		.cfi_endproc
 319              	.LFE9:
 320              		.size	isRecived, .-isRecived
 321              		.section	.text.ClearRecived,"ax",%progbits
 322              		.align	2
 323              		.global	ClearRecived
 324              		.thumb
 325              		.thumb_func
 326              		.type	ClearRecived, %function
ARM GAS  C:\Users\EA527~1.IVA\AppData\Local\Temp\ccjTtl1F.s 			page 8


 327              	ClearRecived:
 328              	.LFB10:
  73:reciver.c     **** void ClearRecived(void){data_recived=0;}
 329              		.loc 1 73 0
 330              		.cfi_startproc
 331              		@ args = 0, pretend = 0, frame = 0
 332              		@ frame_needed = 0, uses_anonymous_args = 0
 333              		@ link register save eliminated.
 334              		.loc 1 73 0
 335 0000 0022     		movs	r2, #0
 336 0002 014B     		ldr	r3, .L37
 337 0004 1A61     		str	r2, [r3, #16]
 338 0006 7047     		bx	lr
 339              	.L38:
 340              		.align	2
 341              	.L37:
 342 0008 00000000 		.word	.LANCHOR0
 343              		.cfi_endproc
 344              	.LFE10:
 345              		.size	ClearRecived, .-ClearRecived
 346              		.section	.text.SetRecived,"ax",%progbits
 347              		.align	2
 348              		.global	SetRecived
 349              		.thumb
 350              		.thumb_func
 351              		.type	SetRecived, %function
 352              	SetRecived:
 353              	.LFB11:
  74:reciver.c     **** void SetRecived(void){data_recived=1;}
 354              		.loc 1 74 0
 355              		.cfi_startproc
 356              		@ args = 0, pretend = 0, frame = 0
 357              		@ frame_needed = 0, uses_anonymous_args = 0
 358              		@ link register save eliminated.
 359              		.loc 1 74 0
 360 0000 0122     		movs	r2, #1
 361 0002 014B     		ldr	r3, .L40
 362 0004 1A61     		str	r2, [r3, #16]
 363 0006 7047     		bx	lr
 364              	.L41:
 365              		.align	2
 366              	.L40:
 367 0008 00000000 		.word	.LANCHOR0
 368              		.cfi_endproc
 369              	.LFE11:
 370              		.size	SetRecived, .-SetRecived
 371              		.section	.text.PrepareToStore,"ax",%progbits
 372              		.align	2
 373              		.global	PrepareToStore
 374              		.thumb
 375              		.thumb_func
 376              		.type	PrepareToStore, %function
 377              	PrepareToStore:
 378              	.LFB12:
  75:reciver.c     **** 
  76:reciver.c     **** RcResult PrepareToStore(uint32* recieve_buf, int LENGTH){
 379              		.loc 1 76 0
ARM GAS  C:\Users\EA527~1.IVA\AppData\Local\Temp\ccjTtl1F.s 			page 9


 380              		.cfi_startproc
 381              		@ args = 0, pretend = 0, frame = 0
 382              		@ frame_needed = 0, uses_anonymous_args = 0
 383              	.LVL1:
  77:reciver.c     ****     if (rcstatus)
 384              		.loc 1 77 0
 385 0000 084B     		ldr	r3, .L47
 386 0002 DB69     		ldr	r3, [r3, #28]
 387 0004 5BB9     		cbnz	r3, .L44
  76:reciver.c     ****     if (rcstatus)
 388              		.loc 1 76 0
 389 0006 10B5     		push	{r4, lr}
 390              		.cfi_def_cfa_offset 8
 391              		.cfi_offset 4, -8
 392              		.cfi_offset 14, -4
  78:reciver.c     ****         return RCBUSY;
  79:reciver.c     ****     rcstatus = 1;
 393              		.loc 1 79 0
 394 0008 064B     		ldr	r3, .L47
 395 000a 0124     		movs	r4, #1
 396 000c DC61     		str	r4, [r3, #28]
  80:reciver.c     ****     CountToRecieve = LENGTH;
 397              		.loc 1 80 0
 398 000e 9960     		str	r1, [r3, #8]
  81:reciver.c     ****     current_word = recieve_buf;
 399              		.loc 1 81 0
 400 0010 D860     		str	r0, [r3, #12]
  82:reciver.c     ****     first = 1;
 401              		.loc 1 82 0
 402 0012 5C60     		str	r4, [r3, #4]
  83:reciver.c     ****     BitCounterDec_WriteCounter(31);
 403              		.loc 1 83 0
 404 0014 1F20     		movs	r0, #31
 405              	.LVL2:
 406 0016 FFF7FEFF 		bl	BitCounterDec_WriteCounter
 407              	.LVL3:
  84:reciver.c     ****     return RCSUCCSSY;
 408              		.loc 1 84 0
 409 001a 2046     		mov	r0, r4
 410 001c 10BD     		pop	{r4, pc}
 411              	.LVL4:
 412              	.L44:
 413              		.cfi_def_cfa_offset 0
 414              		.cfi_restore 4
 415              		.cfi_restore 14
  78:reciver.c     ****     rcstatus = 1;
 416              		.loc 1 78 0
 417 001e 0020     		movs	r0, #0
 418              	.LVL5:
 419 0020 7047     		bx	lr
 420              	.L48:
 421 0022 00BF     		.align	2
 422              	.L47:
 423 0024 00000000 		.word	.LANCHOR0
 424              		.cfi_endproc
 425              	.LFE12:
 426              		.size	PrepareToStore, .-PrepareToStore
ARM GAS  C:\Users\EA527~1.IVA\AppData\Local\Temp\ccjTtl1F.s 			page 10


 427              		.comm	curStatRecive,4,4
 428              		.comm	RecivedData,176,4
 429              		.bss
 430              		.align	2
 431              		.set	.LANCHOR0,. + 0
 432              		.type	tmp, %object
 433              		.size	tmp, 4
 434              	tmp:
 435 0000 00000000 		.space	4
 436              		.type	first, %object
 437              		.size	first, 4
 438              	first:
 439 0004 00000000 		.space	4
 440              		.type	CountToRecieve, %object
 441              		.size	CountToRecieve, 4
 442              	CountToRecieve:
 443 0008 00000000 		.space	4
 444              		.type	current_word, %object
 445              		.size	current_word, 4
 446              	current_word:
 447 000c 00000000 		.space	4
 448              		.type	data_recived, %object
 449              		.size	data_recived, 4
 450              	data_recived:
 451 0010 00000000 		.space	4
 452              		.type	AllowPrepareToStoreFlag, %object
 453              		.size	AllowPrepareToStoreFlag, 4
 454              	AllowPrepareToStoreFlag:
 455 0014 00000000 		.space	4
 456              		.type	AllowStoreFlag, %object
 457              		.size	AllowStoreFlag, 4
 458              	AllowStoreFlag:
 459 0018 00000000 		.space	4
 460              		.type	rcstatus, %object
 461              		.size	rcstatus, 4
 462              	rcstatus:
 463 001c 00000000 		.space	4
 464              		.text
 465              	.Letext0:
 466              		.file 2 "Generated_Source\\PSoC5/cytypes.h"
 467              		.file 3 "./frame.h"
 468              		.file 4 "reciver.h"
 469              		.file 5 "Generated_Source\\PSoC5/RecieveShiftReg.h"
 470              		.file 6 "Generated_Source\\PSoC5/BitCounterDec.h"