ARM GAS  C:\Users\EA527~1.IVA\AppData\Local\Temp\ccPt8nTj.s 			page 1


   1              		.syntax unified
   2              		.cpu cortex-m3
   3              		.fpu softvfp
   4              		.eabi_attribute 20, 1
   5              		.eabi_attribute 21, 1
   6              		.eabi_attribute 23, 3
   7              		.eabi_attribute 24, 1
   8              		.eabi_attribute 25, 1
   9              		.eabi_attribute 26, 1
  10              		.eabi_attribute 30, 1
  11              		.eabi_attribute 34, 1
  12              		.eabi_attribute 18, 4
  13              		.thumb
  14              		.syntax unified
  15              		.file	"replay.c"
  16              		.text
  17              	.Ltext0:
  18              		.cfi_sections	.debug_frame
  19              		.section	.text.replay,"ax",%progbits
  20              		.align	2
  21              		.global	replay
  22              		.thumb
  23              		.thumb_func
  24              		.type	replay, %function
  25              	replay:
  26              	.LFB64:
  27              		.file 1 "replay.c"
   1:replay.c      **** /* ========================================
   2:replay.c      ****  *
   3:replay.c      ****  * Copyright YOUR COMPANY, THE YEAR
   4:replay.c      ****  * All Rights Reserved
   5:replay.c      ****  * UNPUBLISHED, LICENSED SOFTWARE.
   6:replay.c      ****  *
   7:replay.c      ****  * CONFIDENTIAL AND PROPRIETARY INFORMATION
   8:replay.c      ****  * WHICH IS THE PROPERTY OF your company.
   9:replay.c      ****  *
  10:replay.c      ****  * ========================================
  11:replay.c      **** */
  12:replay.c      **** 
  13:replay.c      **** #include "global.h"
  14:replay.c      **** 
  15:replay.c      **** static char replay_msg[256];
  16:replay.c      **** 
  17:replay.c      **** int replay(void){
  28              		.loc 1 17 0
  29              		.cfi_startproc
  30              		@ args = 0, pretend = 0, frame = 0
  31              		@ frame_needed = 0, uses_anonymous_args = 0
  18:replay.c      ****     if (usb_context.need_to_send) return 0;
  32              		.loc 1 18 0
  33 0000 0C4B     		ldr	r3, .L6
  34 0002 93F85031 		ldrb	r3, [r3, #336]	@ zero_extendqisi2
  35 0006 9BB9     		cbnz	r3, .L3
  17:replay.c      ****     if (usb_context.need_to_send) return 0;
  36              		.loc 1 17 0
  37 0008 70B5     		push	{r4, r5, r6, lr}
  38              		.cfi_def_cfa_offset 16
ARM GAS  C:\Users\EA527~1.IVA\AppData\Local\Temp\ccPt8nTj.s 			page 2


  39              		.cfi_offset 4, -16
  40              		.cfi_offset 5, -12
  41              		.cfi_offset 6, -8
  42              		.cfi_offset 14, -4
  19:replay.c      ****     sprintf(replay_msg, "\n\r REPLAY MESSAGE \n");
  43              		.loc 1 19 0
  44 000a 0B4E     		ldr	r6, .L6+4
  45 000c 3446     		mov	r4, r6
  46 000e 0B4D     		ldr	r5, .L6+8
  47 0010 0FCD     		ldmia	r5!, {r0, r1, r2, r3}
  48 0012 0FC4     		stmia	r4!, {r0, r1, r2, r3}
  49 0014 2B68     		ldr	r3, [r5]
  50 0016 2360     		str	r3, [r4]
  20:replay.c      ****     usb_context.count_to_send = strlen(replay_msg);
  51              		.loc 1 20 0
  52 0018 3046     		mov	r0, r6
  53 001a FFF7FEFF 		bl	strlen
  54              	.LVL0:
  55 001e 054B     		ldr	r3, .L6
  56 0020 A3F85201 		strh	r0, [r3, #338]	@ movhi
  21:replay.c      ****     usb_context.message_to_send = (uint8*)replay_msg;
  57              		.loc 1 21 0
  58 0024 C3F84C61 		str	r6, [r3, #332]
  22:replay.c      ****     return usb_context.need_to_send = 1;
  59              		.loc 1 22 0
  60 0028 0120     		movs	r0, #1
  61 002a 83F85001 		strb	r0, [r3, #336]
  62 002e 70BD     		pop	{r4, r5, r6, pc}
  63              	.L3:
  64              		.cfi_def_cfa_offset 0
  65              		.cfi_restore 4
  66              		.cfi_restore 5
  67              		.cfi_restore 6
  68              		.cfi_restore 14
  18:replay.c      ****     sprintf(replay_msg, "\n\r REPLAY MESSAGE \n");
  69              		.loc 1 18 0
  70 0030 0020     		movs	r0, #0
  71 0032 7047     		bx	lr
  72              	.L7:
  73              		.align	2
  74              	.L6:
  75 0034 00000000 		.word	usb_context
  76 0038 00000000 		.word	.LANCHOR0
  77 003c 00000000 		.word	.LC0
  78              		.cfi_endproc
  79              	.LFE64:
  80              		.size	replay, .-replay
  81              		.section	.rodata.str1.4,"aMS",%progbits,1
  82              		.align	2
  83              	.LC0:
  84 0000 0A0D2052 		.ascii	"\012\015 REPLAY MESSAGE \012\000"
  84      45504C41 
  84      59204D45 
  84      53534147 
  84      45200A00 
  85              		.bss
  86              		.align	2
ARM GAS  C:\Users\EA527~1.IVA\AppData\Local\Temp\ccPt8nTj.s 			page 3


  87              		.set	.LANCHOR0,. + 0
  88              		.type	replay_msg, %object
  89              		.size	replay_msg, 256
  90              	replay_msg:
  91 0000 00000000 		.space	256
  91      00000000 
  91      00000000 
  91      00000000 
  91      00000000 
  92              		.text
  93              	.Letext0:
  94              		.file 2 "c:\\program files (x86)\\cypress\\psoc creator\\4.2\\psoc creator\\import\\gnu\\arm\\5.4.
  95              		.file 3 "c:\\program files (x86)\\cypress\\psoc creator\\4.2\\psoc creator\\import\\gnu\\arm\\5.4.
  96              		.file 4 "Generated_Source\\PSoC5/cytypes.h"
  97              		.file 5 "global.h"
  98              		.file 6 "Generated_Source\\PSoC5/core_cm3.h"
  99              		.file 7 "c:\\program files (x86)\\cypress\\psoc creator\\4.2\\psoc creator\\import\\gnu\\arm\\5.4.