ARM GAS  C:\Users\EA527~1.IVA\AppData\Local\Temp\ccLS5CIv.s 			page 1


   1              		.syntax unified
   2              		.cpu cortex-m3
   3              		.fpu softvfp
   4              		.eabi_attribute 20, 1
   5              		.eabi_attribute 21, 1
   6              		.eabi_attribute 23, 3
   7              		.eabi_attribute 24, 1
   8              		.eabi_attribute 25, 1
   9              		.eabi_attribute 26, 1
  10              		.eabi_attribute 30, 1
  11              		.eabi_attribute 34, 1
  12              		.eabi_attribute 18, 4
  13              		.thumb
  14              		.syntax unified
  15              		.file	"sender.c"
  16              		.text
  17              	.Ltext0:
  18              		.cfi_sections	.debug_frame
  19              		.section	.text.Load,"ax",%progbits
  20              		.align	2
  21              		.global	Load
  22              		.thumb
  23              		.thumb_func
  24              		.type	Load, %function
  25              	Load:
  26              	.LFB0:
  27              		.file 1 "sender.c"
   1:sender.c      **** /* ========================================
   2:sender.c      ****  *
   3:sender.c      ****  * Copyright YOUR COMPANY, THE YEAR
   4:sender.c      ****  * All Rights Reserved
   5:sender.c      ****  * UNPUBLISHED, LICENSED SOFTWARE.
   6:sender.c      ****  *
   7:sender.c      ****  * CONFIDENTIAL AND PROPRIETARY INFORMATION
   8:sender.c      ****  * WHICH IS THE PROPERTY OF your company.
   9:sender.c      ****  *
  10:sender.c      ****  * ========================================
  11:sender.c      **** */
  12:sender.c      **** #include "sender.h"
  13:sender.c      **** #include <TransmitShiftReg.h>
  14:sender.c      **** #include <BitCounterEnc.h>
  15:sender.c      **** #include <StartTransmit.h>
  16:sender.c      **** #include <FrameAllow.h>
  17:sender.c      **** #include <line_buf.h>
  18:sender.c      **** 
  19:sender.c      **** 
  20:sender.c      **** statReg curStat;
  21:sender.c      **** static volatile unsigned int count_to_send=0;
  22:sender.c      **** volatile unsigned int status=0, tmp_tr;
  23:sender.c      **** int stsh;
  24:sender.c      **** 
  25:sender.c      **** void Load(void){
  28              		.loc 1 25 0
  29              		.cfi_startproc
  30              		@ args = 0, pretend = 0, frame = 0
  31              		@ frame_needed = 0, uses_anonymous_args = 0
  32              		@ link register save eliminated.
ARM GAS  C:\Users\EA527~1.IVA\AppData\Local\Temp\ccLS5CIv.s 			page 2


  26:sender.c      ****     while(count_to_send){
  33              		.loc 1 26 0
  34 0000 19E0     		b	.L2
  35              	.L4:
  27:sender.c      ****       
  28:sender.c      ****         if(current_read < current_write){
  36              		.loc 1 28 0
  37 0002 0F4B     		ldr	r3, .L5
  38 0004 1A68     		ldr	r2, [r3]
  39 0006 0F4B     		ldr	r3, .L5+4
  40 0008 1B68     		ldr	r3, [r3]
  41 000a 9A42     		cmp	r2, r3
  42 000c 17D2     		bcs	.L1
  29:sender.c      ****             tmp_tr = TransmitShiftReg_SR_STATUS;
  43              		.loc 1 29 0
  44 000e 0E4B     		ldr	r3, .L5+8
  45 0010 1B78     		ldrb	r3, [r3]	@ zero_extendqisi2
  46 0012 DBB2     		uxtb	r3, r3
  47 0014 0D49     		ldr	r1, .L5+12
  48 0016 0B60     		str	r3, [r1]
  30:sender.c      ****             if((tmp_tr & 0x10)/*|(!(tmp_tr & 0x8))*/) {
  49              		.loc 1 30 0
  50 0018 0B68     		ldr	r3, [r1]
  51 001a 13F0100F 		tst	r3, #16
  52 001e 0ED0     		beq	.L1
  31:sender.c      ****                 CY_SET_REG32(TransmitShiftReg_IN_FIFO_VAL_LSB_PTR, *current_read);
  53              		.loc 1 31 0
  54 0020 1268     		ldr	r2, [r2]
  55 0022 0B4B     		ldr	r3, .L5+16
  56 0024 1A60     		str	r2, [r3]
  32:sender.c      ****                 current_read++;
  57              		.loc 1 32 0
  58 0026 064A     		ldr	r2, .L5
  59 0028 1368     		ldr	r3, [r2]
  60 002a 0433     		adds	r3, r3, #4
  61 002c 1360     		str	r3, [r2]
  33:sender.c      ****                 count_to_send--;
  62              		.loc 1 33 0
  63 002e 094A     		ldr	r2, .L5+20
  64 0030 1368     		ldr	r3, [r2]
  65 0032 013B     		subs	r3, r3, #1
  66 0034 1360     		str	r3, [r2]
  67              	.L2:
  26:sender.c      ****       
  68              		.loc 1 26 0
  69 0036 074B     		ldr	r3, .L5+20
  70 0038 1B68     		ldr	r3, [r3]
  71 003a 002B     		cmp	r3, #0
  72 003c E1D1     		bne	.L4
  73              	.L1:
  74 003e 7047     		bx	lr
  75              	.L6:
  76              		.align	2
  77              	.L5:
  78 0040 00000000 		.word	current_read
  79 0044 00000000 		.word	current_write
  80 0048 6B640040 		.word	1073767531
ARM GAS  C:\Users\EA527~1.IVA\AppData\Local\Temp\ccLS5CIv.s 			page 3


  81 004c 00000000 		.word	tmp_tr
  82 0050 48640040 		.word	1073767496
  83 0054 00000000 		.word	.LANCHOR0
  84              		.cfi_endproc
  85              	.LFE0:
  86              		.size	Load, .-Load
  87              		.section	.text.PrepareToSend,"ax",%progbits
  88              		.align	2
  89              		.global	PrepareToSend
  90              		.thumb
  91              		.thumb_func
  92              		.type	PrepareToSend, %function
  93              	PrepareToSend:
  94              	.LFB1:
  34:sender.c      ****             }else{
  35:sender.c      ****                 break;
  36:sender.c      ****             }
  37:sender.c      ****         }else          break;
  38:sender.c      ****     }
  39:sender.c      **** }
  40:sender.c      **** 
  41:sender.c      **** 
  42:sender.c      **** TrResult  PrepareToSend(void){
  95              		.loc 1 42 0
  96              		.cfi_startproc
  97              		@ args = 0, pretend = 0, frame = 0
  98              		@ frame_needed = 0, uses_anonymous_args = 0
  99 0000 08B5     		push	{r3, lr}
 100              		.cfi_def_cfa_offset 8
 101              		.cfi_offset 3, -8
 102              		.cfi_offset 14, -4
  43:sender.c      ****     if (status)
 103              		.loc 1 43 0
 104 0002 094B     		ldr	r3, .L11
 105 0004 5B68     		ldr	r3, [r3, #4]
 106 0006 6BB9     		cbnz	r3, .L9
  44:sender.c      ****         return TRBUSY;
  45:sender.c      ****     *line_buf |= 0x80000000;
 107              		.loc 1 45 0
 108 0008 084B     		ldr	r3, .L11+4
 109 000a 1A68     		ldr	r2, [r3]
 110 000c 42F00042 		orr	r2, r2, #-2147483648
 111 0010 1A60     		str	r2, [r3]
  46:sender.c      ****     count_to_send  = PACKET_LENGTH;
 112              		.loc 1 46 0
 113 0012 2C21     		movs	r1, #44
 114 0014 044A     		ldr	r2, .L11
 115 0016 1160     		str	r1, [r2]
  47:sender.c      ****     current_read = line_buf;    
 116              		.loc 1 47 0
 117 0018 054A     		ldr	r2, .L11+8
 118 001a 1360     		str	r3, [r2]
  48:sender.c      ****     Load();
 119              		.loc 1 48 0
 120 001c FFF7FEFF 		bl	Load
 121              	.LVL0:
  49:sender.c      ****     return TRSUCCSSY;
ARM GAS  C:\Users\EA527~1.IVA\AppData\Local\Temp\ccLS5CIv.s 			page 4


 122              		.loc 1 49 0
 123 0020 0120     		movs	r0, #1
 124 0022 08BD     		pop	{r3, pc}
 125              	.L9:
  44:sender.c      ****     *line_buf |= 0x80000000;
 126              		.loc 1 44 0
 127 0024 0020     		movs	r0, #0
  50:sender.c      **** }
 128              		.loc 1 50 0
 129 0026 08BD     		pop	{r3, pc}
 130              	.L12:
 131              		.align	2
 132              	.L11:
 133 0028 00000000 		.word	.LANCHOR0
 134 002c 00000000 		.word	line_buf
 135 0030 00000000 		.word	current_read
 136              		.cfi_endproc
 137              	.LFE1:
 138              		.size	PrepareToSend, .-PrepareToSend
 139              		.section	.text.Send,"ax",%progbits
 140              		.align	2
 141              		.global	Send
 142              		.thumb
 143              		.thumb_func
 144              		.type	Send, %function
 145              	Send:
 146              	.LFB2:
  51:sender.c      **** 
  52:sender.c      **** 
  53:sender.c      **** void   Send(){
 147              		.loc 1 53 0
 148              		.cfi_startproc
 149              		@ args = 0, pretend = 0, frame = 0
 150              		@ frame_needed = 0, uses_anonymous_args = 0
 151 0000 10B5     		push	{r4, lr}
 152              		.cfi_def_cfa_offset 8
 153              		.cfi_offset 4, -8
 154              		.cfi_offset 14, -4
  54:sender.c      ****     status=1;    
 155              		.loc 1 54 0
 156 0002 0124     		movs	r4, #1
 157 0004 044B     		ldr	r3, .L15
 158 0006 5C60     		str	r4, [r3, #4]
  55:sender.c      ****     BitCounterEnc_WriteCounter(BitCounterEnc_ReadCompare());
 159              		.loc 1 55 0
 160 0008 FFF7FEFF 		bl	BitCounterEnc_ReadCompare
 161              	.LVL1:
 162 000c FFF7FEFF 		bl	BitCounterEnc_WriteCounter
 163              	.LVL2:
  56:sender.c      ****     StartTransmit_Write(1);
 164              		.loc 1 56 0
 165 0010 2046     		mov	r0, r4
 166 0012 FFF7FEFF 		bl	StartTransmit_Write
 167              	.LVL3:
 168 0016 10BD     		pop	{r4, pc}
 169              	.L16:
 170              		.align	2
ARM GAS  C:\Users\EA527~1.IVA\AppData\Local\Temp\ccLS5CIv.s 			page 5


 171              	.L15:
 172 0018 00000000 		.word	.LANCHOR0
 173              		.cfi_endproc
 174              	.LFE2:
 175              		.size	Send, .-Send
 176              		.section	.text.ClearStatus,"ax",%progbits
 177              		.align	2
 178              		.global	ClearStatus
 179              		.thumb
 180              		.thumb_func
 181              		.type	ClearStatus, %function
 182              	ClearStatus:
 183              	.LFB3:
  57:sender.c      **** }
  58:sender.c      **** 
  59:sender.c      **** void   ClearStatus(void){   //должна быть вызвана из прерывания bitcou
 184              		.loc 1 59 0
 185              		.cfi_startproc
 186              		@ args = 0, pretend = 0, frame = 0
 187              		@ frame_needed = 0, uses_anonymous_args = 0
 188              		@ link register save eliminated.
  60:sender.c      ****     status=0;        
 189              		.loc 1 60 0
 190 0000 0022     		movs	r2, #0
 191 0002 014B     		ldr	r3, .L18
 192 0004 5A60     		str	r2, [r3, #4]
 193 0006 7047     		bx	lr
 194              	.L19:
 195              		.align	2
 196              	.L18:
 197 0008 00000000 		.word	.LANCHOR0
 198              		.cfi_endproc
 199              	.LFE3:
 200              		.size	ClearStatus, .-ClearStatus
 201              		.comm	stsh,4,4
 202              		.comm	tmp_tr,4,4
 203              		.global	status
 204              		.comm	curStat,4,4
 205              		.bss
 206              		.align	2
 207              		.set	.LANCHOR0,. + 0
 208              		.type	count_to_send, %object
 209              		.size	count_to_send, 4
 210              	count_to_send:
 211 0000 00000000 		.space	4
 212              		.type	status, %object
 213              		.size	status, 4
 214              	status:
 215 0004 00000000 		.space	4
 216              		.text
 217              	.Letext0:
 218              		.file 2 "Generated_Source\\PSoC5/cytypes.h"
 219              		.file 3 "sender.h"
 220              		.file 4 "./line_buf.h"
 221              		.file 5 "Generated_Source\\PSoC5/BitCounterEnc.h"
 222              		.file 6 "Generated_Source\\PSoC5/StartTransmit.h"