ARM GAS  C:\Users\EA527~1.IVA\AppData\Local\Temp\ccWDpGcv.s 			page 1


   1              		.syntax unified
   2              		.cpu cortex-m3
   3              		.fpu softvfp
   4              		.eabi_attribute 20, 1
   5              		.eabi_attribute 21, 1
   6              		.eabi_attribute 23, 3
   7              		.eabi_attribute 24, 1
   8              		.eabi_attribute 25, 1
   9              		.eabi_attribute 26, 1
  10              		.eabi_attribute 30, 1
  11              		.eabi_attribute 34, 1
  12              		.eabi_attribute 18, 4
  13              		.thumb
  14              		.syntax unified
  15              		.file	"ShiftReg_6_PM.c"
  16              		.text
  17              	.Ltext0:
  18              		.cfi_sections	.debug_frame
  19              		.section	.text.ShiftReg_6_SaveConfig,"ax",%progbits
  20              		.align	2
  21              		.global	ShiftReg_6_SaveConfig
  22              		.thumb
  23              		.thumb_func
  24              		.type	ShiftReg_6_SaveConfig, %function
  25              	ShiftReg_6_SaveConfig:
  26              	.LFB0:
  27              		.file 1 "Generated_Source\\PSoC5\\ShiftReg_6_PM.c"
   1:Generated_Source\PSoC5/ShiftReg_6_PM.c **** /*******************************************************************************
   2:Generated_Source\PSoC5/ShiftReg_6_PM.c **** * File Name: ShiftReg_6_PM.c
   3:Generated_Source\PSoC5/ShiftReg_6_PM.c **** * Version 2.30
   4:Generated_Source\PSoC5/ShiftReg_6_PM.c **** *
   5:Generated_Source\PSoC5/ShiftReg_6_PM.c **** * Description:
   6:Generated_Source\PSoC5/ShiftReg_6_PM.c **** *  This file provides the API source code for sleep mode support for Shift
   7:Generated_Source\PSoC5/ShiftReg_6_PM.c **** *  Register component.
   8:Generated_Source\PSoC5/ShiftReg_6_PM.c **** *
   9:Generated_Source\PSoC5/ShiftReg_6_PM.c **** * Note:
  10:Generated_Source\PSoC5/ShiftReg_6_PM.c **** *
  11:Generated_Source\PSoC5/ShiftReg_6_PM.c **** ********************************************************************************
  12:Generated_Source\PSoC5/ShiftReg_6_PM.c **** * Copyright 2008-2013, Cypress Semiconductor Corporation.  All rights reserved.
  13:Generated_Source\PSoC5/ShiftReg_6_PM.c **** * You may use this file only in accordance with the license, terms, conditions,
  14:Generated_Source\PSoC5/ShiftReg_6_PM.c **** * disclaimers, and limitations in the end user license agreement accompanying
  15:Generated_Source\PSoC5/ShiftReg_6_PM.c **** * the software package with which this file was provided.
  16:Generated_Source\PSoC5/ShiftReg_6_PM.c **** *******************************************************************************/
  17:Generated_Source\PSoC5/ShiftReg_6_PM.c **** 
  18:Generated_Source\PSoC5/ShiftReg_6_PM.c **** #include "ShiftReg_6.h"
  19:Generated_Source\PSoC5/ShiftReg_6_PM.c **** 
  20:Generated_Source\PSoC5/ShiftReg_6_PM.c **** static ShiftReg_6_BACKUP_STRUCT ShiftReg_6_backup =
  21:Generated_Source\PSoC5/ShiftReg_6_PM.c **** {
  22:Generated_Source\PSoC5/ShiftReg_6_PM.c ****     ShiftReg_6_DISABLED,
  23:Generated_Source\PSoC5/ShiftReg_6_PM.c **** 
  24:Generated_Source\PSoC5/ShiftReg_6_PM.c ****     ((uint32) ShiftReg_6_DEFAULT_A0),
  25:Generated_Source\PSoC5/ShiftReg_6_PM.c ****     ((uint32) ShiftReg_6_DEFAULT_A1),
  26:Generated_Source\PSoC5/ShiftReg_6_PM.c **** 
  27:Generated_Source\PSoC5/ShiftReg_6_PM.c ****     #if(CY_UDB_V0)
  28:Generated_Source\PSoC5/ShiftReg_6_PM.c ****         ((uint32) ShiftReg_6_INT_SRC),
  29:Generated_Source\PSoC5/ShiftReg_6_PM.c ****     #endif /* (CY_UDB_V0) */
  30:Generated_Source\PSoC5/ShiftReg_6_PM.c **** };
ARM GAS  C:\Users\EA527~1.IVA\AppData\Local\Temp\ccWDpGcv.s 			page 2


  31:Generated_Source\PSoC5/ShiftReg_6_PM.c **** 
  32:Generated_Source\PSoC5/ShiftReg_6_PM.c **** 
  33:Generated_Source\PSoC5/ShiftReg_6_PM.c **** /*******************************************************************************
  34:Generated_Source\PSoC5/ShiftReg_6_PM.c **** * Function Name: ShiftReg_6_SaveConfig
  35:Generated_Source\PSoC5/ShiftReg_6_PM.c **** ********************************************************************************
  36:Generated_Source\PSoC5/ShiftReg_6_PM.c **** *
  37:Generated_Source\PSoC5/ShiftReg_6_PM.c **** * Summary:
  38:Generated_Source\PSoC5/ShiftReg_6_PM.c **** *  Saves Shift Register configuration.
  39:Generated_Source\PSoC5/ShiftReg_6_PM.c **** *
  40:Generated_Source\PSoC5/ShiftReg_6_PM.c **** * Parameters:
  41:Generated_Source\PSoC5/ShiftReg_6_PM.c **** *  None.
  42:Generated_Source\PSoC5/ShiftReg_6_PM.c **** *
  43:Generated_Source\PSoC5/ShiftReg_6_PM.c **** * Return:
  44:Generated_Source\PSoC5/ShiftReg_6_PM.c **** *  None.
  45:Generated_Source\PSoC5/ShiftReg_6_PM.c **** *
  46:Generated_Source\PSoC5/ShiftReg_6_PM.c **** * Reentrant:
  47:Generated_Source\PSoC5/ShiftReg_6_PM.c **** *  No.
  48:Generated_Source\PSoC5/ShiftReg_6_PM.c **** *
  49:Generated_Source\PSoC5/ShiftReg_6_PM.c **** *******************************************************************************/
  50:Generated_Source\PSoC5/ShiftReg_6_PM.c **** void ShiftReg_6_SaveConfig(void) 
  51:Generated_Source\PSoC5/ShiftReg_6_PM.c **** {
  28              		.loc 1 51 0
  29              		.cfi_startproc
  30              		@ args = 0, pretend = 0, frame = 0
  31              		@ frame_needed = 0, uses_anonymous_args = 0
  32              		@ link register save eliminated.
  52:Generated_Source\PSoC5/ShiftReg_6_PM.c ****     /* Store working registers A0 and A1 */
  53:Generated_Source\PSoC5/ShiftReg_6_PM.c ****     ShiftReg_6_backup.saveSrA0Reg   = CY_GET_REG32(ShiftReg_6_SHIFT_REG_LSB_PTR);
  33              		.loc 1 53 0
  34 0000 034B     		ldr	r3, .L2
  35 0002 1A68     		ldr	r2, [r3]
  36 0004 034B     		ldr	r3, .L2+4
  37 0006 5A60     		str	r2, [r3, #4]
  54:Generated_Source\PSoC5/ShiftReg_6_PM.c ****     ShiftReg_6_backup.saveSrA1Reg   = CY_GET_REG32(ShiftReg_6_SHIFT_REG_VALUE_LSB_PTR);
  38              		.loc 1 54 0
  39 0008 034A     		ldr	r2, .L2+8
  40 000a 1268     		ldr	r2, [r2]
  41 000c 9A60     		str	r2, [r3, #8]
  42 000e 7047     		bx	lr
  43              	.L3:
  44              		.align	2
  45              	.L2:
  46 0010 04650040 		.word	1073767684
  47 0014 00000000 		.word	.LANCHOR0
  48 0018 14650040 		.word	1073767700
  49              		.cfi_endproc
  50              	.LFE0:
  51              		.size	ShiftReg_6_SaveConfig, .-ShiftReg_6_SaveConfig
  52              		.section	.text.ShiftReg_6_RestoreConfig,"ax",%progbits
  53              		.align	2
  54              		.global	ShiftReg_6_RestoreConfig
  55              		.thumb
  56              		.thumb_func
  57              		.type	ShiftReg_6_RestoreConfig, %function
  58              	ShiftReg_6_RestoreConfig:
  59              	.LFB1:
  55:Generated_Source\PSoC5/ShiftReg_6_PM.c **** 
ARM GAS  C:\Users\EA527~1.IVA\AppData\Local\Temp\ccWDpGcv.s 			page 3


  56:Generated_Source\PSoC5/ShiftReg_6_PM.c ****     #if(CY_UDB_V0)
  57:Generated_Source\PSoC5/ShiftReg_6_PM.c ****         ShiftReg_6_backup.saveSrIntMask = ShiftReg_6_SR_STATUS_MASK;
  58:Generated_Source\PSoC5/ShiftReg_6_PM.c ****     #endif /* (CY_UDB_V0) */
  59:Generated_Source\PSoC5/ShiftReg_6_PM.c **** }
  60:Generated_Source\PSoC5/ShiftReg_6_PM.c **** 
  61:Generated_Source\PSoC5/ShiftReg_6_PM.c **** 
  62:Generated_Source\PSoC5/ShiftReg_6_PM.c **** /*******************************************************************************
  63:Generated_Source\PSoC5/ShiftReg_6_PM.c **** * Function Name: ShiftReg_6_RestoreConfig
  64:Generated_Source\PSoC5/ShiftReg_6_PM.c **** ********************************************************************************
  65:Generated_Source\PSoC5/ShiftReg_6_PM.c **** *
  66:Generated_Source\PSoC5/ShiftReg_6_PM.c **** * Summary:
  67:Generated_Source\PSoC5/ShiftReg_6_PM.c **** *  Restores Shift Register configuration.
  68:Generated_Source\PSoC5/ShiftReg_6_PM.c **** *
  69:Generated_Source\PSoC5/ShiftReg_6_PM.c **** * Parameters:
  70:Generated_Source\PSoC5/ShiftReg_6_PM.c **** *  None.
  71:Generated_Source\PSoC5/ShiftReg_6_PM.c **** *
  72:Generated_Source\PSoC5/ShiftReg_6_PM.c **** * Return:
  73:Generated_Source\PSoC5/ShiftReg_6_PM.c **** *  None.
  74:Generated_Source\PSoC5/ShiftReg_6_PM.c **** *
  75:Generated_Source\PSoC5/ShiftReg_6_PM.c **** *******************************************************************************/
  76:Generated_Source\PSoC5/ShiftReg_6_PM.c **** void ShiftReg_6_RestoreConfig(void) 
  77:Generated_Source\PSoC5/ShiftReg_6_PM.c **** {
  60              		.loc 1 77 0
  61              		.cfi_startproc
  62              		@ args = 0, pretend = 0, frame = 0
  63              		@ frame_needed = 0, uses_anonymous_args = 0
  64              		@ link register save eliminated.
  78:Generated_Source\PSoC5/ShiftReg_6_PM.c ****     /* Restore working registers A0 and A1 */
  79:Generated_Source\PSoC5/ShiftReg_6_PM.c ****     CY_SET_REG32(ShiftReg_6_SHIFT_REG_LSB_PTR, ShiftReg_6_backup.saveSrA0Reg);
  65              		.loc 1 79 0
  66 0000 034B     		ldr	r3, .L5
  67 0002 5968     		ldr	r1, [r3, #4]
  68 0004 034A     		ldr	r2, .L5+4
  69 0006 1160     		str	r1, [r2]
  80:Generated_Source\PSoC5/ShiftReg_6_PM.c ****     CY_SET_REG32(ShiftReg_6_SHIFT_REG_VALUE_LSB_PTR, ShiftReg_6_backup.saveSrA1Reg);
  70              		.loc 1 80 0
  71 0008 9A68     		ldr	r2, [r3, #8]
  72 000a 034B     		ldr	r3, .L5+8
  73 000c 1A60     		str	r2, [r3]
  74 000e 7047     		bx	lr
  75              	.L6:
  76              		.align	2
  77              	.L5:
  78 0010 00000000 		.word	.LANCHOR0
  79 0014 04650040 		.word	1073767684
  80 0018 14650040 		.word	1073767700
  81              		.cfi_endproc
  82              	.LFE1:
  83              		.size	ShiftReg_6_RestoreConfig, .-ShiftReg_6_RestoreConfig
  84              		.section	.text.ShiftReg_6_Sleep,"ax",%progbits
  85              		.align	2
  86              		.global	ShiftReg_6_Sleep
  87              		.thumb
  88              		.thumb_func
  89              		.type	ShiftReg_6_Sleep, %function
  90              	ShiftReg_6_Sleep:
  91              	.LFB2:
ARM GAS  C:\Users\EA527~1.IVA\AppData\Local\Temp\ccWDpGcv.s 			page 4


  81:Generated_Source\PSoC5/ShiftReg_6_PM.c **** 
  82:Generated_Source\PSoC5/ShiftReg_6_PM.c ****     #if(CY_UDB_V0)
  83:Generated_Source\PSoC5/ShiftReg_6_PM.c ****         ShiftReg_6_SR_STATUS_MASK = ((uint8) ShiftReg_6_backup.saveSrIntMask);
  84:Generated_Source\PSoC5/ShiftReg_6_PM.c ****     #endif /* (CY_UDB_V0) */
  85:Generated_Source\PSoC5/ShiftReg_6_PM.c **** }
  86:Generated_Source\PSoC5/ShiftReg_6_PM.c **** 
  87:Generated_Source\PSoC5/ShiftReg_6_PM.c **** 
  88:Generated_Source\PSoC5/ShiftReg_6_PM.c **** /*******************************************************************************
  89:Generated_Source\PSoC5/ShiftReg_6_PM.c **** * Function Name: ShiftReg_6_Sleep
  90:Generated_Source\PSoC5/ShiftReg_6_PM.c **** ********************************************************************************
  91:Generated_Source\PSoC5/ShiftReg_6_PM.c **** *
  92:Generated_Source\PSoC5/ShiftReg_6_PM.c **** * Summary:
  93:Generated_Source\PSoC5/ShiftReg_6_PM.c **** *  Prepare the component to enter a Sleep mode.
  94:Generated_Source\PSoC5/ShiftReg_6_PM.c **** *
  95:Generated_Source\PSoC5/ShiftReg_6_PM.c **** * Parameters:
  96:Generated_Source\PSoC5/ShiftReg_6_PM.c **** *  None.
  97:Generated_Source\PSoC5/ShiftReg_6_PM.c **** *
  98:Generated_Source\PSoC5/ShiftReg_6_PM.c **** * Return:
  99:Generated_Source\PSoC5/ShiftReg_6_PM.c **** *  None.
 100:Generated_Source\PSoC5/ShiftReg_6_PM.c **** *
 101:Generated_Source\PSoC5/ShiftReg_6_PM.c **** * Reentrant:
 102:Generated_Source\PSoC5/ShiftReg_6_PM.c **** *  No.
 103:Generated_Source\PSoC5/ShiftReg_6_PM.c **** *
 104:Generated_Source\PSoC5/ShiftReg_6_PM.c **** *******************************************************************************/
 105:Generated_Source\PSoC5/ShiftReg_6_PM.c **** void ShiftReg_6_Sleep(void) 
 106:Generated_Source\PSoC5/ShiftReg_6_PM.c **** {
  92              		.loc 1 106 0
  93              		.cfi_startproc
  94              		@ args = 0, pretend = 0, frame = 0
  95              		@ frame_needed = 0, uses_anonymous_args = 0
  96 0000 08B5     		push	{r3, lr}
  97              		.cfi_def_cfa_offset 8
  98              		.cfi_offset 3, -8
  99              		.cfi_offset 14, -4
 107:Generated_Source\PSoC5/ShiftReg_6_PM.c ****     ShiftReg_6_backup.enableState = ((uint8) ShiftReg_6_IS_ENABLED);
 100              		.loc 1 107 0
 101 0002 054B     		ldr	r3, .L9
 102 0004 1B78     		ldrb	r3, [r3]	@ zero_extendqisi2
 103 0006 03F00103 		and	r3, r3, #1
 104 000a 044A     		ldr	r2, .L9+4
 105 000c 1370     		strb	r3, [r2]
 108:Generated_Source\PSoC5/ShiftReg_6_PM.c **** 
 109:Generated_Source\PSoC5/ShiftReg_6_PM.c ****     ShiftReg_6_Stop();
 106              		.loc 1 109 0
 107 000e FFF7FEFF 		bl	ShiftReg_6_Stop
 108              	.LVL0:
 110:Generated_Source\PSoC5/ShiftReg_6_PM.c ****     ShiftReg_6_SaveConfig();
 109              		.loc 1 110 0
 110 0012 FFF7FEFF 		bl	ShiftReg_6_SaveConfig
 111              	.LVL1:
 112 0016 08BD     		pop	{r3, pc}
 113              	.L10:
 114              		.align	2
 115              	.L9:
 116 0018 75650040 		.word	1073767797
 117 001c 00000000 		.word	.LANCHOR0
 118              		.cfi_endproc
ARM GAS  C:\Users\EA527~1.IVA\AppData\Local\Temp\ccWDpGcv.s 			page 5


 119              	.LFE2:
 120              		.size	ShiftReg_6_Sleep, .-ShiftReg_6_Sleep
 121              		.section	.text.ShiftReg_6_Wakeup,"ax",%progbits
 122              		.align	2
 123              		.global	ShiftReg_6_Wakeup
 124              		.thumb
 125              		.thumb_func
 126              		.type	ShiftReg_6_Wakeup, %function
 127              	ShiftReg_6_Wakeup:
 128              	.LFB3:
 111:Generated_Source\PSoC5/ShiftReg_6_PM.c **** }
 112:Generated_Source\PSoC5/ShiftReg_6_PM.c **** 
 113:Generated_Source\PSoC5/ShiftReg_6_PM.c **** 
 114:Generated_Source\PSoC5/ShiftReg_6_PM.c **** /*******************************************************************************
 115:Generated_Source\PSoC5/ShiftReg_6_PM.c **** * Function Name: ShiftReg_6_Wakeup
 116:Generated_Source\PSoC5/ShiftReg_6_PM.c **** ********************************************************************************
 117:Generated_Source\PSoC5/ShiftReg_6_PM.c **** *
 118:Generated_Source\PSoC5/ShiftReg_6_PM.c **** * Summary:
 119:Generated_Source\PSoC5/ShiftReg_6_PM.c **** *  Restores and enables the user configuration.
 120:Generated_Source\PSoC5/ShiftReg_6_PM.c **** *
 121:Generated_Source\PSoC5/ShiftReg_6_PM.c **** * Parameters:
 122:Generated_Source\PSoC5/ShiftReg_6_PM.c **** *  None.
 123:Generated_Source\PSoC5/ShiftReg_6_PM.c **** *
 124:Generated_Source\PSoC5/ShiftReg_6_PM.c **** * Return:
 125:Generated_Source\PSoC5/ShiftReg_6_PM.c **** *  None.
 126:Generated_Source\PSoC5/ShiftReg_6_PM.c **** *
 127:Generated_Source\PSoC5/ShiftReg_6_PM.c **** *******************************************************************************/
 128:Generated_Source\PSoC5/ShiftReg_6_PM.c **** void ShiftReg_6_Wakeup(void) 
 129:Generated_Source\PSoC5/ShiftReg_6_PM.c **** {
 129              		.loc 1 129 0
 130              		.cfi_startproc
 131              		@ args = 0, pretend = 0, frame = 0
 132              		@ frame_needed = 0, uses_anonymous_args = 0
 133 0000 08B5     		push	{r3, lr}
 134              		.cfi_def_cfa_offset 8
 135              		.cfi_offset 3, -8
 136              		.cfi_offset 14, -4
 130:Generated_Source\PSoC5/ShiftReg_6_PM.c ****     ShiftReg_6_RestoreConfig();
 137              		.loc 1 130 0
 138 0002 FFF7FEFF 		bl	ShiftReg_6_RestoreConfig
 139              	.LVL2:
 131:Generated_Source\PSoC5/ShiftReg_6_PM.c **** 
 132:Generated_Source\PSoC5/ShiftReg_6_PM.c ****     if(0u != ShiftReg_6_backup.enableState)
 140              		.loc 1 132 0
 141 0006 034B     		ldr	r3, .L14
 142 0008 1B78     		ldrb	r3, [r3]	@ zero_extendqisi2
 143 000a 0BB1     		cbz	r3, .L11
 133:Generated_Source\PSoC5/ShiftReg_6_PM.c ****     {
 134:Generated_Source\PSoC5/ShiftReg_6_PM.c ****         ShiftReg_6_Enable();
 144              		.loc 1 134 0
 145 000c FFF7FEFF 		bl	ShiftReg_6_Enable
 146              	.LVL3:
 147              	.L11:
 148 0010 08BD     		pop	{r3, pc}
 149              	.L15:
 150 0012 00BF     		.align	2
 151              	.L14:
ARM GAS  C:\Users\EA527~1.IVA\AppData\Local\Temp\ccWDpGcv.s 			page 6


 152 0014 00000000 		.word	.LANCHOR0
 153              		.cfi_endproc
 154              	.LFE3:
 155              		.size	ShiftReg_6_Wakeup, .-ShiftReg_6_Wakeup
 156              		.bss
 157              		.align	2
 158              		.set	.LANCHOR0,. + 0
 159              		.type	ShiftReg_6_backup, %object
 160              		.size	ShiftReg_6_backup, 12
 161              	ShiftReg_6_backup:
 162 0000 00000000 		.space	12
 162      00000000 
 162      00000000 
 163              		.text
 164              	.Letext0:
 165              		.file 2 "Generated_Source\\PSoC5\\cytypes.h"
 166              		.file 3 "Generated_Source\\PSoC5\\ShiftReg_6.h"