ARM GAS  C:\Users\EA527~1.IVA\AppData\Local\Temp\cc4QJais.s 			page 1


   1              		.syntax unified
   2              		.cpu cortex-m3
   3              		.fpu softvfp
   4              		.eabi_attribute 20, 1
   5              		.eabi_attribute 21, 1
   6              		.eabi_attribute 23, 3
   7              		.eabi_attribute 24, 1
   8              		.eabi_attribute 25, 1
   9              		.eabi_attribute 26, 1
  10              		.eabi_attribute 30, 1
  11              		.eabi_attribute 34, 1
  12              		.eabi_attribute 18, 4
  13              		.thumb
  14              		.syntax unified
  15              		.file	"TransmitShiftReg.c"
  16              		.text
  17              	.Ltext0:
  18              		.cfi_sections	.debug_frame
  19              		.section	.text.TransmitShiftReg_EnableInt,"ax",%progbits
  20              		.align	2
  21              		.global	TransmitShiftReg_EnableInt
  22              		.thumb
  23              		.thumb_func
  24              		.type	TransmitShiftReg_EnableInt, %function
  25              	TransmitShiftReg_EnableInt:
  26              	.LFB4:
  27              		.file 1 "Generated_Source\\PSoC5\\TransmitShiftReg.c"
   1:Generated_Source\PSoC5/TransmitShiftReg.c **** /*******************************************************************************
   2:Generated_Source\PSoC5/TransmitShiftReg.c **** * File Name: TransmitShiftReg.c
   3:Generated_Source\PSoC5/TransmitShiftReg.c **** * Version 2.30
   4:Generated_Source\PSoC5/TransmitShiftReg.c **** *
   5:Generated_Source\PSoC5/TransmitShiftReg.c **** * Description:
   6:Generated_Source\PSoC5/TransmitShiftReg.c **** *  This file provides the API source code for the Shift Register component.
   7:Generated_Source\PSoC5/TransmitShiftReg.c **** *
   8:Generated_Source\PSoC5/TransmitShiftReg.c **** * Note: none
   9:Generated_Source\PSoC5/TransmitShiftReg.c **** *
  10:Generated_Source\PSoC5/TransmitShiftReg.c **** ********************************************************************************
  11:Generated_Source\PSoC5/TransmitShiftReg.c **** * Copyright 2008-2013, Cypress Semiconductor Corporation.  All rights reserved.
  12:Generated_Source\PSoC5/TransmitShiftReg.c **** * You may use this file only in accordance with the license, terms, conditions,
  13:Generated_Source\PSoC5/TransmitShiftReg.c **** * disclaimers, and limitations in the end user license agreement accompanying
  14:Generated_Source\PSoC5/TransmitShiftReg.c **** * the software package with which this file was provided.
  15:Generated_Source\PSoC5/TransmitShiftReg.c **** ********************************************************************************/
  16:Generated_Source\PSoC5/TransmitShiftReg.c **** 
  17:Generated_Source\PSoC5/TransmitShiftReg.c **** #include "TransmitShiftReg.h"
  18:Generated_Source\PSoC5/TransmitShiftReg.c **** 
  19:Generated_Source\PSoC5/TransmitShiftReg.c **** uint8 TransmitShiftReg_initVar = 0u;
  20:Generated_Source\PSoC5/TransmitShiftReg.c **** 
  21:Generated_Source\PSoC5/TransmitShiftReg.c **** 
  22:Generated_Source\PSoC5/TransmitShiftReg.c **** /*******************************************************************************
  23:Generated_Source\PSoC5/TransmitShiftReg.c **** * Function Name: TransmitShiftReg_Start
  24:Generated_Source\PSoC5/TransmitShiftReg.c **** ********************************************************************************
  25:Generated_Source\PSoC5/TransmitShiftReg.c **** *
  26:Generated_Source\PSoC5/TransmitShiftReg.c **** * Summary:
  27:Generated_Source\PSoC5/TransmitShiftReg.c **** *  Starts the Shift Register.
  28:Generated_Source\PSoC5/TransmitShiftReg.c **** *
  29:Generated_Source\PSoC5/TransmitShiftReg.c **** * Parameters:
  30:Generated_Source\PSoC5/TransmitShiftReg.c **** *  None.
ARM GAS  C:\Users\EA527~1.IVA\AppData\Local\Temp\cc4QJais.s 			page 2


  31:Generated_Source\PSoC5/TransmitShiftReg.c **** *
  32:Generated_Source\PSoC5/TransmitShiftReg.c **** * Return:
  33:Generated_Source\PSoC5/TransmitShiftReg.c **** *  None.
  34:Generated_Source\PSoC5/TransmitShiftReg.c **** *
  35:Generated_Source\PSoC5/TransmitShiftReg.c **** * Global Variables:
  36:Generated_Source\PSoC5/TransmitShiftReg.c **** *  TransmitShiftReg_initVar - used to check initial configuration, modified on
  37:Generated_Source\PSoC5/TransmitShiftReg.c **** *  first function call.
  38:Generated_Source\PSoC5/TransmitShiftReg.c **** *
  39:Generated_Source\PSoC5/TransmitShiftReg.c **** * Reentrant:
  40:Generated_Source\PSoC5/TransmitShiftReg.c **** *  No.
  41:Generated_Source\PSoC5/TransmitShiftReg.c **** *
  42:Generated_Source\PSoC5/TransmitShiftReg.c **** *******************************************************************************/
  43:Generated_Source\PSoC5/TransmitShiftReg.c **** void TransmitShiftReg_Start(void) 
  44:Generated_Source\PSoC5/TransmitShiftReg.c **** {
  45:Generated_Source\PSoC5/TransmitShiftReg.c ****     if(0u == TransmitShiftReg_initVar)
  46:Generated_Source\PSoC5/TransmitShiftReg.c ****     {
  47:Generated_Source\PSoC5/TransmitShiftReg.c ****         TransmitShiftReg_Init();
  48:Generated_Source\PSoC5/TransmitShiftReg.c ****         TransmitShiftReg_initVar = 1u; /* Component initialized */
  49:Generated_Source\PSoC5/TransmitShiftReg.c ****     }
  50:Generated_Source\PSoC5/TransmitShiftReg.c **** 
  51:Generated_Source\PSoC5/TransmitShiftReg.c ****     TransmitShiftReg_Enable();
  52:Generated_Source\PSoC5/TransmitShiftReg.c **** }
  53:Generated_Source\PSoC5/TransmitShiftReg.c **** 
  54:Generated_Source\PSoC5/TransmitShiftReg.c **** 
  55:Generated_Source\PSoC5/TransmitShiftReg.c **** /*******************************************************************************
  56:Generated_Source\PSoC5/TransmitShiftReg.c **** * Function Name: TransmitShiftReg_Enable
  57:Generated_Source\PSoC5/TransmitShiftReg.c **** ********************************************************************************
  58:Generated_Source\PSoC5/TransmitShiftReg.c **** *
  59:Generated_Source\PSoC5/TransmitShiftReg.c **** * Summary:
  60:Generated_Source\PSoC5/TransmitShiftReg.c **** *  Enables the Shift Register.
  61:Generated_Source\PSoC5/TransmitShiftReg.c **** *
  62:Generated_Source\PSoC5/TransmitShiftReg.c **** * Parameters:
  63:Generated_Source\PSoC5/TransmitShiftReg.c **** *  void.
  64:Generated_Source\PSoC5/TransmitShiftReg.c **** *
  65:Generated_Source\PSoC5/TransmitShiftReg.c **** * Return:
  66:Generated_Source\PSoC5/TransmitShiftReg.c **** *  void.
  67:Generated_Source\PSoC5/TransmitShiftReg.c **** *
  68:Generated_Source\PSoC5/TransmitShiftReg.c **** *******************************************************************************/
  69:Generated_Source\PSoC5/TransmitShiftReg.c **** void TransmitShiftReg_Enable(void) 
  70:Generated_Source\PSoC5/TransmitShiftReg.c **** {
  71:Generated_Source\PSoC5/TransmitShiftReg.c ****     /* Changing address in Datapath Control Store
  72:Generated_Source\PSoC5/TransmitShiftReg.c ****        from NOP to component state machine commands space */
  73:Generated_Source\PSoC5/TransmitShiftReg.c ****     TransmitShiftReg_SR_CONTROL |= TransmitShiftReg_CLK_EN;
  74:Generated_Source\PSoC5/TransmitShiftReg.c **** 
  75:Generated_Source\PSoC5/TransmitShiftReg.c ****     TransmitShiftReg_EnableInt();
  76:Generated_Source\PSoC5/TransmitShiftReg.c **** }
  77:Generated_Source\PSoC5/TransmitShiftReg.c **** 
  78:Generated_Source\PSoC5/TransmitShiftReg.c **** 
  79:Generated_Source\PSoC5/TransmitShiftReg.c **** /*******************************************************************************
  80:Generated_Source\PSoC5/TransmitShiftReg.c **** * Function Name: TransmitShiftReg_Init
  81:Generated_Source\PSoC5/TransmitShiftReg.c **** ********************************************************************************
  82:Generated_Source\PSoC5/TransmitShiftReg.c **** *
  83:Generated_Source\PSoC5/TransmitShiftReg.c **** * Summary:
  84:Generated_Source\PSoC5/TransmitShiftReg.c **** *  Initializes Tx and/or Rx interrupt sources with initial values.
  85:Generated_Source\PSoC5/TransmitShiftReg.c **** *
  86:Generated_Source\PSoC5/TransmitShiftReg.c **** * Parameters:
  87:Generated_Source\PSoC5/TransmitShiftReg.c **** *  void.
ARM GAS  C:\Users\EA527~1.IVA\AppData\Local\Temp\cc4QJais.s 			page 3


  88:Generated_Source\PSoC5/TransmitShiftReg.c **** *
  89:Generated_Source\PSoC5/TransmitShiftReg.c **** * Return:
  90:Generated_Source\PSoC5/TransmitShiftReg.c **** *  void.
  91:Generated_Source\PSoC5/TransmitShiftReg.c **** *
  92:Generated_Source\PSoC5/TransmitShiftReg.c **** *******************************************************************************/
  93:Generated_Source\PSoC5/TransmitShiftReg.c **** void TransmitShiftReg_Init(void) 
  94:Generated_Source\PSoC5/TransmitShiftReg.c **** {
  95:Generated_Source\PSoC5/TransmitShiftReg.c ****     TransmitShiftReg_SetIntMode(TransmitShiftReg_INT_SRC);
  96:Generated_Source\PSoC5/TransmitShiftReg.c **** }
  97:Generated_Source\PSoC5/TransmitShiftReg.c **** 
  98:Generated_Source\PSoC5/TransmitShiftReg.c **** 
  99:Generated_Source\PSoC5/TransmitShiftReg.c **** /*******************************************************************************
 100:Generated_Source\PSoC5/TransmitShiftReg.c **** * Function Name: TransmitShiftReg_Stop
 101:Generated_Source\PSoC5/TransmitShiftReg.c **** ********************************************************************************
 102:Generated_Source\PSoC5/TransmitShiftReg.c **** *
 103:Generated_Source\PSoC5/TransmitShiftReg.c **** * Summary:
 104:Generated_Source\PSoC5/TransmitShiftReg.c **** *  Disables the Shift Register
 105:Generated_Source\PSoC5/TransmitShiftReg.c **** *
 106:Generated_Source\PSoC5/TransmitShiftReg.c **** * Parameters:
 107:Generated_Source\PSoC5/TransmitShiftReg.c **** *  None.
 108:Generated_Source\PSoC5/TransmitShiftReg.c **** *
 109:Generated_Source\PSoC5/TransmitShiftReg.c **** * Return:
 110:Generated_Source\PSoC5/TransmitShiftReg.c **** *  None.
 111:Generated_Source\PSoC5/TransmitShiftReg.c **** *
 112:Generated_Source\PSoC5/TransmitShiftReg.c **** *******************************************************************************/
 113:Generated_Source\PSoC5/TransmitShiftReg.c **** void TransmitShiftReg_Stop(void) 
 114:Generated_Source\PSoC5/TransmitShiftReg.c **** {
 115:Generated_Source\PSoC5/TransmitShiftReg.c ****     /*changing Datapath Control Store address to NOP space*/
 116:Generated_Source\PSoC5/TransmitShiftReg.c ****     TransmitShiftReg_SR_CONTROL &= ((uint8) ~TransmitShiftReg_CLK_EN);
 117:Generated_Source\PSoC5/TransmitShiftReg.c ****     TransmitShiftReg_DisableInt();
 118:Generated_Source\PSoC5/TransmitShiftReg.c **** }
 119:Generated_Source\PSoC5/TransmitShiftReg.c **** 
 120:Generated_Source\PSoC5/TransmitShiftReg.c **** 
 121:Generated_Source\PSoC5/TransmitShiftReg.c **** /*******************************************************************************
 122:Generated_Source\PSoC5/TransmitShiftReg.c **** * Function Name: TransmitShiftReg_EnableInt
 123:Generated_Source\PSoC5/TransmitShiftReg.c **** ********************************************************************************
 124:Generated_Source\PSoC5/TransmitShiftReg.c **** *
 125:Generated_Source\PSoC5/TransmitShiftReg.c **** * Summary:
 126:Generated_Source\PSoC5/TransmitShiftReg.c **** *  Enables the Shift Register interrupt.
 127:Generated_Source\PSoC5/TransmitShiftReg.c **** *
 128:Generated_Source\PSoC5/TransmitShiftReg.c **** * Parameters:
 129:Generated_Source\PSoC5/TransmitShiftReg.c **** *  None.
 130:Generated_Source\PSoC5/TransmitShiftReg.c **** *
 131:Generated_Source\PSoC5/TransmitShiftReg.c **** * Return:
 132:Generated_Source\PSoC5/TransmitShiftReg.c **** *  None.
 133:Generated_Source\PSoC5/TransmitShiftReg.c **** *
 134:Generated_Source\PSoC5/TransmitShiftReg.c **** *******************************************************************************/
 135:Generated_Source\PSoC5/TransmitShiftReg.c **** void TransmitShiftReg_EnableInt(void) 
 136:Generated_Source\PSoC5/TransmitShiftReg.c **** {
  28              		.loc 1 136 0
  29              		.cfi_startproc
  30              		@ args = 0, pretend = 0, frame = 0
  31              		@ frame_needed = 0, uses_anonymous_args = 0
  32 0000 08B5     		push	{r3, lr}
  33              		.cfi_def_cfa_offset 8
  34              		.cfi_offset 3, -8
  35              		.cfi_offset 14, -4
ARM GAS  C:\Users\EA527~1.IVA\AppData\Local\Temp\cc4QJais.s 			page 4


 137:Generated_Source\PSoC5/TransmitShiftReg.c ****     uint8 interruptState;
 138:Generated_Source\PSoC5/TransmitShiftReg.c **** 
 139:Generated_Source\PSoC5/TransmitShiftReg.c ****     interruptState = CyEnterCriticalSection();
  36              		.loc 1 139 0
  37 0002 FFF7FEFF 		bl	CyEnterCriticalSection
  38              	.LVL0:
 140:Generated_Source\PSoC5/TransmitShiftReg.c ****     TransmitShiftReg_SR_AUX_CONTROL |= TransmitShiftReg_INTERRUPTS_ENABLE;
  39              		.loc 1 140 0
  40 0006 044A     		ldr	r2, .L3
  41 0008 1378     		ldrb	r3, [r2]	@ zero_extendqisi2
  42 000a 43F01003 		orr	r3, r3, #16
  43 000e 1370     		strb	r3, [r2]
 141:Generated_Source\PSoC5/TransmitShiftReg.c ****     CyExitCriticalSection(interruptState);
  44              		.loc 1 141 0
  45 0010 FFF7FEFF 		bl	CyExitCriticalSection
  46              	.LVL1:
  47 0014 08BD     		pop	{r3, pc}
  48              	.L4:
  49 0016 00BF     		.align	2
  50              	.L3:
  51 0018 9B650040 		.word	1073767835
  52              		.cfi_endproc
  53              	.LFE4:
  54              		.size	TransmitShiftReg_EnableInt, .-TransmitShiftReg_EnableInt
  55              		.section	.text.TransmitShiftReg_Enable,"ax",%progbits
  56              		.align	2
  57              		.global	TransmitShiftReg_Enable
  58              		.thumb
  59              		.thumb_func
  60              		.type	TransmitShiftReg_Enable, %function
  61              	TransmitShiftReg_Enable:
  62              	.LFB1:
  70:Generated_Source\PSoC5/TransmitShiftReg.c ****     /* Changing address in Datapath Control Store
  63              		.loc 1 70 0
  64              		.cfi_startproc
  65              		@ args = 0, pretend = 0, frame = 0
  66              		@ frame_needed = 0, uses_anonymous_args = 0
  67 0000 08B5     		push	{r3, lr}
  68              		.cfi_def_cfa_offset 8
  69              		.cfi_offset 3, -8
  70              		.cfi_offset 14, -4
  73:Generated_Source\PSoC5/TransmitShiftReg.c **** 
  71              		.loc 1 73 0
  72 0002 044A     		ldr	r2, .L7
  73 0004 1378     		ldrb	r3, [r2]	@ zero_extendqisi2
  74 0006 43F00103 		orr	r3, r3, #1
  75 000a 1370     		strb	r3, [r2]
  75:Generated_Source\PSoC5/TransmitShiftReg.c **** }
  76              		.loc 1 75 0
  77 000c FFF7FEFF 		bl	TransmitShiftReg_EnableInt
  78              	.LVL2:
  79 0010 08BD     		pop	{r3, pc}
  80              	.L8:
  81 0012 00BF     		.align	2
  82              	.L7:
  83 0014 7B650040 		.word	1073767803
  84              		.cfi_endproc
ARM GAS  C:\Users\EA527~1.IVA\AppData\Local\Temp\cc4QJais.s 			page 5


  85              	.LFE1:
  86              		.size	TransmitShiftReg_Enable, .-TransmitShiftReg_Enable
  87              		.section	.text.TransmitShiftReg_DisableInt,"ax",%progbits
  88              		.align	2
  89              		.global	TransmitShiftReg_DisableInt
  90              		.thumb
  91              		.thumb_func
  92              		.type	TransmitShiftReg_DisableInt, %function
  93              	TransmitShiftReg_DisableInt:
  94              	.LFB5:
 142:Generated_Source\PSoC5/TransmitShiftReg.c **** }
 143:Generated_Source\PSoC5/TransmitShiftReg.c **** 
 144:Generated_Source\PSoC5/TransmitShiftReg.c **** 
 145:Generated_Source\PSoC5/TransmitShiftReg.c **** /*******************************************************************************
 146:Generated_Source\PSoC5/TransmitShiftReg.c **** * Function Name: TransmitShiftReg_DisableInt
 147:Generated_Source\PSoC5/TransmitShiftReg.c **** ********************************************************************************
 148:Generated_Source\PSoC5/TransmitShiftReg.c **** *
 149:Generated_Source\PSoC5/TransmitShiftReg.c **** * Summary:
 150:Generated_Source\PSoC5/TransmitShiftReg.c **** *  Disables the Shift Register interrupt.
 151:Generated_Source\PSoC5/TransmitShiftReg.c **** *
 152:Generated_Source\PSoC5/TransmitShiftReg.c **** * Parameters:
 153:Generated_Source\PSoC5/TransmitShiftReg.c **** *  None.
 154:Generated_Source\PSoC5/TransmitShiftReg.c **** *
 155:Generated_Source\PSoC5/TransmitShiftReg.c **** * Return:
 156:Generated_Source\PSoC5/TransmitShiftReg.c **** *  None.
 157:Generated_Source\PSoC5/TransmitShiftReg.c **** *
 158:Generated_Source\PSoC5/TransmitShiftReg.c **** *******************************************************************************/
 159:Generated_Source\PSoC5/TransmitShiftReg.c **** void TransmitShiftReg_DisableInt(void) 
 160:Generated_Source\PSoC5/TransmitShiftReg.c **** {
  95              		.loc 1 160 0
  96              		.cfi_startproc
  97              		@ args = 0, pretend = 0, frame = 0
  98              		@ frame_needed = 0, uses_anonymous_args = 0
  99 0000 08B5     		push	{r3, lr}
 100              		.cfi_def_cfa_offset 8
 101              		.cfi_offset 3, -8
 102              		.cfi_offset 14, -4
 161:Generated_Source\PSoC5/TransmitShiftReg.c ****     uint8 interruptState;
 162:Generated_Source\PSoC5/TransmitShiftReg.c **** 
 163:Generated_Source\PSoC5/TransmitShiftReg.c ****     interruptState = CyEnterCriticalSection();
 103              		.loc 1 163 0
 104 0002 FFF7FEFF 		bl	CyEnterCriticalSection
 105              	.LVL3:
 164:Generated_Source\PSoC5/TransmitShiftReg.c ****     TransmitShiftReg_SR_AUX_CONTROL &= ((uint8) ~TransmitShiftReg_INTERRUPTS_ENABLE);
 106              		.loc 1 164 0
 107 0006 044A     		ldr	r2, .L11
 108 0008 1378     		ldrb	r3, [r2]	@ zero_extendqisi2
 109 000a 03F0EF03 		and	r3, r3, #239
 110 000e 1370     		strb	r3, [r2]
 165:Generated_Source\PSoC5/TransmitShiftReg.c ****     CyExitCriticalSection(interruptState);
 111              		.loc 1 165 0
 112 0010 FFF7FEFF 		bl	CyExitCriticalSection
 113              	.LVL4:
 114 0014 08BD     		pop	{r3, pc}
 115              	.L12:
 116 0016 00BF     		.align	2
 117              	.L11:
ARM GAS  C:\Users\EA527~1.IVA\AppData\Local\Temp\cc4QJais.s 			page 6


 118 0018 9B650040 		.word	1073767835
 119              		.cfi_endproc
 120              	.LFE5:
 121              		.size	TransmitShiftReg_DisableInt, .-TransmitShiftReg_DisableInt
 122              		.section	.text.TransmitShiftReg_Stop,"ax",%progbits
 123              		.align	2
 124              		.global	TransmitShiftReg_Stop
 125              		.thumb
 126              		.thumb_func
 127              		.type	TransmitShiftReg_Stop, %function
 128              	TransmitShiftReg_Stop:
 129              	.LFB3:
 114:Generated_Source\PSoC5/TransmitShiftReg.c ****     /*changing Datapath Control Store address to NOP space*/
 130              		.loc 1 114 0
 131              		.cfi_startproc
 132              		@ args = 0, pretend = 0, frame = 0
 133              		@ frame_needed = 0, uses_anonymous_args = 0
 134 0000 08B5     		push	{r3, lr}
 135              		.cfi_def_cfa_offset 8
 136              		.cfi_offset 3, -8
 137              		.cfi_offset 14, -4
 116:Generated_Source\PSoC5/TransmitShiftReg.c ****     TransmitShiftReg_DisableInt();
 138              		.loc 1 116 0
 139 0002 044A     		ldr	r2, .L15
 140 0004 1378     		ldrb	r3, [r2]	@ zero_extendqisi2
 141 0006 03F0FE03 		and	r3, r3, #254
 142 000a 1370     		strb	r3, [r2]
 117:Generated_Source\PSoC5/TransmitShiftReg.c **** }
 143              		.loc 1 117 0
 144 000c FFF7FEFF 		bl	TransmitShiftReg_DisableInt
 145              	.LVL5:
 146 0010 08BD     		pop	{r3, pc}
 147              	.L16:
 148 0012 00BF     		.align	2
 149              	.L15:
 150 0014 7B650040 		.word	1073767803
 151              		.cfi_endproc
 152              	.LFE3:
 153              		.size	TransmitShiftReg_Stop, .-TransmitShiftReg_Stop
 154              		.section	.text.TransmitShiftReg_GetFIFOStatus,"ax",%progbits
 155              		.align	2
 156              		.global	TransmitShiftReg_GetFIFOStatus
 157              		.thumb
 158              		.thumb_func
 159              		.type	TransmitShiftReg_GetFIFOStatus, %function
 160              	TransmitShiftReg_GetFIFOStatus:
 161              	.LFB6:
 166:Generated_Source\PSoC5/TransmitShiftReg.c **** }
 167:Generated_Source\PSoC5/TransmitShiftReg.c **** 
 168:Generated_Source\PSoC5/TransmitShiftReg.c **** 
 169:Generated_Source\PSoC5/TransmitShiftReg.c **** /*******************************************************************************
 170:Generated_Source\PSoC5/TransmitShiftReg.c **** * Function Name: TransmitShiftReg_GetFIFOStatus
 171:Generated_Source\PSoC5/TransmitShiftReg.c **** ********************************************************************************
 172:Generated_Source\PSoC5/TransmitShiftReg.c **** *
 173:Generated_Source\PSoC5/TransmitShiftReg.c **** * Summary:
 174:Generated_Source\PSoC5/TransmitShiftReg.c **** *  Returns current status of input or output FIFO.
 175:Generated_Source\PSoC5/TransmitShiftReg.c **** *
ARM GAS  C:\Users\EA527~1.IVA\AppData\Local\Temp\cc4QJais.s 			page 7


 176:Generated_Source\PSoC5/TransmitShiftReg.c **** * Parameters:
 177:Generated_Source\PSoC5/TransmitShiftReg.c **** *  fifoId.
 178:Generated_Source\PSoC5/TransmitShiftReg.c **** *
 179:Generated_Source\PSoC5/TransmitShiftReg.c **** * Return:
 180:Generated_Source\PSoC5/TransmitShiftReg.c **** *  FIFO status.
 181:Generated_Source\PSoC5/TransmitShiftReg.c **** *
 182:Generated_Source\PSoC5/TransmitShiftReg.c **** *******************************************************************************/
 183:Generated_Source\PSoC5/TransmitShiftReg.c **** uint8 TransmitShiftReg_GetFIFOStatus(uint8 fifoId) 
 184:Generated_Source\PSoC5/TransmitShiftReg.c **** {
 162              		.loc 1 184 0
 163              		.cfi_startproc
 164              		@ args = 0, pretend = 0, frame = 0
 165              		@ frame_needed = 0, uses_anonymous_args = 0
 166              		@ link register save eliminated.
 167              	.LVL6:
 168 0000 0346     		mov	r3, r0
 169              	.LVL7:
 185:Generated_Source\PSoC5/TransmitShiftReg.c ****     uint8 result;
 186:Generated_Source\PSoC5/TransmitShiftReg.c **** 
 187:Generated_Source\PSoC5/TransmitShiftReg.c ****     result = TransmitShiftReg_RET_FIFO_NOT_DEFINED;
 188:Generated_Source\PSoC5/TransmitShiftReg.c **** 
 189:Generated_Source\PSoC5/TransmitShiftReg.c ****     #if(0u != TransmitShiftReg_USE_INPUT_FIFO)
 190:Generated_Source\PSoC5/TransmitShiftReg.c ****         if(TransmitShiftReg_IN_FIFO == fifoId)
 170              		.loc 1 190 0
 171 0002 0128     		cmp	r0, #1
 172 0004 0BD1     		bne	.L24
 191:Generated_Source\PSoC5/TransmitShiftReg.c ****         {
 192:Generated_Source\PSoC5/TransmitShiftReg.c ****             switch(TransmitShiftReg_GET_IN_FIFO_STS)
 173              		.loc 1 192 0
 174 0006 0F4A     		ldr	r2, .L28
 175 0008 1278     		ldrb	r2, [r2]	@ zero_extendqisi2
 176 000a C2F3C102 		ubfx	r2, r2, #3, #2
 177 000e 12B1     		cbz	r2, .L19
 178 0010 022A     		cmp	r2, #2
 179 0012 02D0     		beq	.L20
 180 0014 05E0     		b	.L27
 181              	.L19:
 193:Generated_Source\PSoC5/TransmitShiftReg.c ****             {
 194:Generated_Source\PSoC5/TransmitShiftReg.c ****                 case TransmitShiftReg_IN_FIFO_FULL :
 195:Generated_Source\PSoC5/TransmitShiftReg.c ****                     result = TransmitShiftReg_RET_FIFO_FULL;
 182              		.loc 1 195 0
 183 0016 0020     		movs	r0, #0
 184              	.LVL8:
 185 0018 04E0     		b	.L18
 186              	.LVL9:
 187              	.L20:
 196:Generated_Source\PSoC5/TransmitShiftReg.c ****                     break;
 197:Generated_Source\PSoC5/TransmitShiftReg.c **** 
 198:Generated_Source\PSoC5/TransmitShiftReg.c ****                 case TransmitShiftReg_IN_FIFO_EMPTY :
 199:Generated_Source\PSoC5/TransmitShiftReg.c ****                     result = TransmitShiftReg_RET_FIFO_EMPTY;
 200:Generated_Source\PSoC5/TransmitShiftReg.c ****                     break;
 201:Generated_Source\PSoC5/TransmitShiftReg.c **** 
 202:Generated_Source\PSoC5/TransmitShiftReg.c ****                 case TransmitShiftReg_IN_FIFO_PARTIAL:
 203:Generated_Source\PSoC5/TransmitShiftReg.c ****                     result = TransmitShiftReg_RET_FIFO_PARTIAL;
 188              		.loc 1 203 0
 189 001a 0120     		movs	r0, #1
 190              	.LVL10:
ARM GAS  C:\Users\EA527~1.IVA\AppData\Local\Temp\cc4QJais.s 			page 8


 204:Generated_Source\PSoC5/TransmitShiftReg.c ****                     break;
 191              		.loc 1 204 0
 192 001c 02E0     		b	.L18
 193              	.LVL11:
 194              	.L24:
 187:Generated_Source\PSoC5/TransmitShiftReg.c **** 
 195              		.loc 1 187 0
 196 001e FE20     		movs	r0, #254
 197              	.LVL12:
 198 0020 00E0     		b	.L18
 199              	.LVL13:
 200              	.L27:
 199:Generated_Source\PSoC5/TransmitShiftReg.c ****                     break;
 201              		.loc 1 199 0
 202 0022 0220     		movs	r0, #2
 203              	.LVL14:
 204              	.L18:
 205:Generated_Source\PSoC5/TransmitShiftReg.c ****                     
 206:Generated_Source\PSoC5/TransmitShiftReg.c ****                 default:
 207:Generated_Source\PSoC5/TransmitShiftReg.c ****                     /* Initial result value, while 
 208:Generated_Source\PSoC5/TransmitShiftReg.c ****                        IN_FIFO_EMPTY case is false 
 209:Generated_Source\PSoC5/TransmitShiftReg.c ****                      */
 210:Generated_Source\PSoC5/TransmitShiftReg.c ****                     result = TransmitShiftReg_RET_FIFO_EMPTY;
 211:Generated_Source\PSoC5/TransmitShiftReg.c ****                     break;
 212:Generated_Source\PSoC5/TransmitShiftReg.c ****             }   
 213:Generated_Source\PSoC5/TransmitShiftReg.c ****         }
 214:Generated_Source\PSoC5/TransmitShiftReg.c ****     #endif /* (0u != TransmitShiftReg_USE_INPUT_FIFO) */
 215:Generated_Source\PSoC5/TransmitShiftReg.c **** 
 216:Generated_Source\PSoC5/TransmitShiftReg.c ****     if(TransmitShiftReg_OUT_FIFO == fifoId)
 205              		.loc 1 216 0
 206 0024 022B     		cmp	r3, #2
 207 0026 0BD1     		bne	.L21
 217:Generated_Source\PSoC5/TransmitShiftReg.c ****     {
 218:Generated_Source\PSoC5/TransmitShiftReg.c ****         switch(TransmitShiftReg_GET_OUT_FIFO_STS)
 208              		.loc 1 218 0
 209 0028 064B     		ldr	r3, .L28
 210 002a 1B78     		ldrb	r3, [r3]	@ zero_extendqisi2
 211 002c C3F34113 		ubfx	r3, r3, #5, #2
 212 0030 2BB1     		cbz	r3, .L26
 213 0032 022B     		cmp	r3, #2
 214 0034 01D0     		beq	.L23
 219:Generated_Source\PSoC5/TransmitShiftReg.c ****         {
 220:Generated_Source\PSoC5/TransmitShiftReg.c ****             case TransmitShiftReg_OUT_FIFO_FULL :
 221:Generated_Source\PSoC5/TransmitShiftReg.c ****                 result = TransmitShiftReg_RET_FIFO_FULL;
 215              		.loc 1 221 0
 216 0036 0020     		movs	r0, #0
 217              	.LVL15:
 218 0038 7047     		bx	lr
 219              	.LVL16:
 220              	.L23:
 222:Generated_Source\PSoC5/TransmitShiftReg.c ****                 break;
 223:Generated_Source\PSoC5/TransmitShiftReg.c **** 
 224:Generated_Source\PSoC5/TransmitShiftReg.c ****             case TransmitShiftReg_OUT_FIFO_EMPTY :
 225:Generated_Source\PSoC5/TransmitShiftReg.c ****                 result = TransmitShiftReg_RET_FIFO_EMPTY;
 226:Generated_Source\PSoC5/TransmitShiftReg.c ****                 break;
 227:Generated_Source\PSoC5/TransmitShiftReg.c **** 
 228:Generated_Source\PSoC5/TransmitShiftReg.c ****             case TransmitShiftReg_OUT_FIFO_PARTIAL :
ARM GAS  C:\Users\EA527~1.IVA\AppData\Local\Temp\cc4QJais.s 			page 9


 229:Generated_Source\PSoC5/TransmitShiftReg.c ****                 result = TransmitShiftReg_RET_FIFO_PARTIAL;
 221              		.loc 1 229 0
 222 003a 0120     		movs	r0, #1
 230:Generated_Source\PSoC5/TransmitShiftReg.c ****                 break;
 223              		.loc 1 230 0
 224 003c 7047     		bx	lr
 225              	.LVL17:
 226              	.L26:
 225:Generated_Source\PSoC5/TransmitShiftReg.c ****                 break;
 227              		.loc 1 225 0
 228 003e 0220     		movs	r0, #2
 229              	.LVL18:
 230              	.L21:
 231:Generated_Source\PSoC5/TransmitShiftReg.c **** 
 232:Generated_Source\PSoC5/TransmitShiftReg.c ****             default:
 233:Generated_Source\PSoC5/TransmitShiftReg.c ****                 /* Initial result value, while 
 234:Generated_Source\PSoC5/TransmitShiftReg.c ****                    OUT_FIFO_FULL case is false 
 235:Generated_Source\PSoC5/TransmitShiftReg.c ****                  */
 236:Generated_Source\PSoC5/TransmitShiftReg.c ****                 result = TransmitShiftReg_RET_FIFO_FULL;
 237:Generated_Source\PSoC5/TransmitShiftReg.c ****                 break;
 238:Generated_Source\PSoC5/TransmitShiftReg.c ****         }
 239:Generated_Source\PSoC5/TransmitShiftReg.c ****     }
 240:Generated_Source\PSoC5/TransmitShiftReg.c **** 
 241:Generated_Source\PSoC5/TransmitShiftReg.c ****     return(result);
 242:Generated_Source\PSoC5/TransmitShiftReg.c **** }
 231              		.loc 1 242 0
 232 0040 7047     		bx	lr
 233              	.L29:
 234 0042 00BF     		.align	2
 235              	.L28:
 236 0044 6B650040 		.word	1073767787
 237              		.cfi_endproc
 238              	.LFE6:
 239              		.size	TransmitShiftReg_GetFIFOStatus, .-TransmitShiftReg_GetFIFOStatus
 240              		.section	.text.TransmitShiftReg_SetIntMode,"ax",%progbits
 241              		.align	2
 242              		.global	TransmitShiftReg_SetIntMode
 243              		.thumb
 244              		.thumb_func
 245              		.type	TransmitShiftReg_SetIntMode, %function
 246              	TransmitShiftReg_SetIntMode:
 247              	.LFB7:
 243:Generated_Source\PSoC5/TransmitShiftReg.c **** 
 244:Generated_Source\PSoC5/TransmitShiftReg.c **** 
 245:Generated_Source\PSoC5/TransmitShiftReg.c **** /*******************************************************************************
 246:Generated_Source\PSoC5/TransmitShiftReg.c **** * Function Name: TransmitShiftReg_SetIntMode
 247:Generated_Source\PSoC5/TransmitShiftReg.c **** ********************************************************************************
 248:Generated_Source\PSoC5/TransmitShiftReg.c **** *
 249:Generated_Source\PSoC5/TransmitShiftReg.c **** * Summary:
 250:Generated_Source\PSoC5/TransmitShiftReg.c **** *  Sets the Interrupt Source for the Shift Register interrupt. Multiple
 251:Generated_Source\PSoC5/TransmitShiftReg.c **** *  sources may be ORed together
 252:Generated_Source\PSoC5/TransmitShiftReg.c **** *
 253:Generated_Source\PSoC5/TransmitShiftReg.c **** * Parameters:
 254:Generated_Source\PSoC5/TransmitShiftReg.c **** *  interruptSource: Byte containing the constant for the selected interrupt
 255:Generated_Source\PSoC5/TransmitShiftReg.c **** *  source/s.
 256:Generated_Source\PSoC5/TransmitShiftReg.c **** *
 257:Generated_Source\PSoC5/TransmitShiftReg.c **** * Return:
ARM GAS  C:\Users\EA527~1.IVA\AppData\Local\Temp\cc4QJais.s 			page 10


 258:Generated_Source\PSoC5/TransmitShiftReg.c **** *  None.
 259:Generated_Source\PSoC5/TransmitShiftReg.c **** *
 260:Generated_Source\PSoC5/TransmitShiftReg.c **** *******************************************************************************/
 261:Generated_Source\PSoC5/TransmitShiftReg.c **** void TransmitShiftReg_SetIntMode(uint8 interruptSource) 
 262:Generated_Source\PSoC5/TransmitShiftReg.c **** {
 248              		.loc 1 262 0
 249              		.cfi_startproc
 250              		@ args = 0, pretend = 0, frame = 0
 251              		@ frame_needed = 0, uses_anonymous_args = 0
 252              		@ link register save eliminated.
 253              	.LVL19:
 263:Generated_Source\PSoC5/TransmitShiftReg.c ****     TransmitShiftReg_SR_STATUS_MASK &= ((uint8) ~TransmitShiftReg_INTS_EN_MASK);          /* Clear 
 254              		.loc 1 263 0
 255 0000 054B     		ldr	r3, .L31
 256 0002 1A78     		ldrb	r2, [r3]	@ zero_extendqisi2
 257 0004 02F0F802 		and	r2, r2, #248
 258 0008 1A70     		strb	r2, [r3]
 264:Generated_Source\PSoC5/TransmitShiftReg.c ****     TransmitShiftReg_SR_STATUS_MASK |= (interruptSource & TransmitShiftReg_INTS_EN_MASK); /* Set in
 259              		.loc 1 264 0
 260 000a 1A78     		ldrb	r2, [r3]	@ zero_extendqisi2
 261 000c 00F00700 		and	r0, r0, #7
 262              	.LVL20:
 263 0010 1043     		orrs	r0, r0, r2
 264 0012 1870     		strb	r0, [r3]
 265 0014 7047     		bx	lr
 266              	.L32:
 267 0016 00BF     		.align	2
 268              	.L31:
 269 0018 8B650040 		.word	1073767819
 270              		.cfi_endproc
 271              	.LFE7:
 272              		.size	TransmitShiftReg_SetIntMode, .-TransmitShiftReg_SetIntMode
 273              		.section	.text.TransmitShiftReg_Init,"ax",%progbits
 274              		.align	2
 275              		.global	TransmitShiftReg_Init
 276              		.thumb
 277              		.thumb_func
 278              		.type	TransmitShiftReg_Init, %function
 279              	TransmitShiftReg_Init:
 280              	.LFB2:
  94:Generated_Source\PSoC5/TransmitShiftReg.c ****     TransmitShiftReg_SetIntMode(TransmitShiftReg_INT_SRC);
 281              		.loc 1 94 0
 282              		.cfi_startproc
 283              		@ args = 0, pretend = 0, frame = 0
 284              		@ frame_needed = 0, uses_anonymous_args = 0
 285 0000 08B5     		push	{r3, lr}
 286              		.cfi_def_cfa_offset 8
 287              		.cfi_offset 3, -8
 288              		.cfi_offset 14, -4
  95:Generated_Source\PSoC5/TransmitShiftReg.c **** }
 289              		.loc 1 95 0
 290 0002 0120     		movs	r0, #1
 291 0004 FFF7FEFF 		bl	TransmitShiftReg_SetIntMode
 292              	.LVL21:
 293 0008 08BD     		pop	{r3, pc}
 294              		.cfi_endproc
 295              	.LFE2:
ARM GAS  C:\Users\EA527~1.IVA\AppData\Local\Temp\cc4QJais.s 			page 11


 296              		.size	TransmitShiftReg_Init, .-TransmitShiftReg_Init
 297 000a 00BF     		.section	.text.TransmitShiftReg_Start,"ax",%progbits
 298              		.align	2
 299              		.global	TransmitShiftReg_Start
 300              		.thumb
 301              		.thumb_func
 302              		.type	TransmitShiftReg_Start, %function
 303              	TransmitShiftReg_Start:
 304              	.LFB0:
  44:Generated_Source\PSoC5/TransmitShiftReg.c ****     if(0u == TransmitShiftReg_initVar)
 305              		.loc 1 44 0
 306              		.cfi_startproc
 307              		@ args = 0, pretend = 0, frame = 0
 308              		@ frame_needed = 0, uses_anonymous_args = 0
 309 0000 08B5     		push	{r3, lr}
 310              		.cfi_def_cfa_offset 8
 311              		.cfi_offset 3, -8
 312              		.cfi_offset 14, -4
  45:Generated_Source\PSoC5/TransmitShiftReg.c ****     {
 313              		.loc 1 45 0
 314 0002 054B     		ldr	r3, .L38
 315 0004 1B78     		ldrb	r3, [r3]	@ zero_extendqisi2
 316 0006 23B9     		cbnz	r3, .L36
  47:Generated_Source\PSoC5/TransmitShiftReg.c ****         TransmitShiftReg_initVar = 1u; /* Component initialized */
 317              		.loc 1 47 0
 318 0008 FFF7FEFF 		bl	TransmitShiftReg_Init
 319              	.LVL22:
  48:Generated_Source\PSoC5/TransmitShiftReg.c ****     }
 320              		.loc 1 48 0
 321 000c 0122     		movs	r2, #1
 322 000e 024B     		ldr	r3, .L38
 323 0010 1A70     		strb	r2, [r3]
 324              	.L36:
  51:Generated_Source\PSoC5/TransmitShiftReg.c **** }
 325              		.loc 1 51 0
 326 0012 FFF7FEFF 		bl	TransmitShiftReg_Enable
 327              	.LVL23:
 328 0016 08BD     		pop	{r3, pc}
 329              	.L39:
 330              		.align	2
 331              	.L38:
 332 0018 00000000 		.word	.LANCHOR0
 333              		.cfi_endproc
 334              	.LFE0:
 335              		.size	TransmitShiftReg_Start, .-TransmitShiftReg_Start
 336              		.section	.text.TransmitShiftReg_GetIntStatus,"ax",%progbits
 337              		.align	2
 338              		.global	TransmitShiftReg_GetIntStatus
 339              		.thumb
 340              		.thumb_func
 341              		.type	TransmitShiftReg_GetIntStatus, %function
 342              	TransmitShiftReg_GetIntStatus:
 343              	.LFB8:
 265:Generated_Source\PSoC5/TransmitShiftReg.c **** }
 266:Generated_Source\PSoC5/TransmitShiftReg.c **** 
 267:Generated_Source\PSoC5/TransmitShiftReg.c **** 
 268:Generated_Source\PSoC5/TransmitShiftReg.c **** /*******************************************************************************
ARM GAS  C:\Users\EA527~1.IVA\AppData\Local\Temp\cc4QJais.s 			page 12


 269:Generated_Source\PSoC5/TransmitShiftReg.c **** * Function Name: TransmitShiftReg_GetIntStatus
 270:Generated_Source\PSoC5/TransmitShiftReg.c **** ********************************************************************************
 271:Generated_Source\PSoC5/TransmitShiftReg.c **** *
 272:Generated_Source\PSoC5/TransmitShiftReg.c **** * Summary:
 273:Generated_Source\PSoC5/TransmitShiftReg.c **** *  Gets the Shift Register Interrupt status.
 274:Generated_Source\PSoC5/TransmitShiftReg.c **** *
 275:Generated_Source\PSoC5/TransmitShiftReg.c **** * Parameters:
 276:Generated_Source\PSoC5/TransmitShiftReg.c **** *  None.
 277:Generated_Source\PSoC5/TransmitShiftReg.c **** *
 278:Generated_Source\PSoC5/TransmitShiftReg.c **** * Return:
 279:Generated_Source\PSoC5/TransmitShiftReg.c **** *  Byte containing the constant for the selected interrupt source/s.
 280:Generated_Source\PSoC5/TransmitShiftReg.c **** *
 281:Generated_Source\PSoC5/TransmitShiftReg.c **** *******************************************************************************/
 282:Generated_Source\PSoC5/TransmitShiftReg.c **** uint8 TransmitShiftReg_GetIntStatus(void) 
 283:Generated_Source\PSoC5/TransmitShiftReg.c **** {
 344              		.loc 1 283 0
 345              		.cfi_startproc
 346              		@ args = 0, pretend = 0, frame = 0
 347              		@ frame_needed = 0, uses_anonymous_args = 0
 348              		@ link register save eliminated.
 284:Generated_Source\PSoC5/TransmitShiftReg.c ****     return(TransmitShiftReg_SR_STATUS & TransmitShiftReg_INTS_EN_MASK);
 349              		.loc 1 284 0
 350 0000 024B     		ldr	r3, .L41
 351 0002 1878     		ldrb	r0, [r3]	@ zero_extendqisi2
 285:Generated_Source\PSoC5/TransmitShiftReg.c **** }
 352              		.loc 1 285 0
 353 0004 00F00700 		and	r0, r0, #7
 354 0008 7047     		bx	lr
 355              	.L42:
 356 000a 00BF     		.align	2
 357              	.L41:
 358 000c 6B650040 		.word	1073767787
 359              		.cfi_endproc
 360              	.LFE8:
 361              		.size	TransmitShiftReg_GetIntStatus, .-TransmitShiftReg_GetIntStatus
 362              		.section	.text.TransmitShiftReg_WriteRegValue,"ax",%progbits
 363              		.align	2
 364              		.global	TransmitShiftReg_WriteRegValue
 365              		.thumb
 366              		.thumb_func
 367              		.type	TransmitShiftReg_WriteRegValue, %function
 368              	TransmitShiftReg_WriteRegValue:
 369              	.LFB9:
 286:Generated_Source\PSoC5/TransmitShiftReg.c **** 
 287:Generated_Source\PSoC5/TransmitShiftReg.c **** 
 288:Generated_Source\PSoC5/TransmitShiftReg.c **** /*******************************************************************************
 289:Generated_Source\PSoC5/TransmitShiftReg.c **** * Function Name: TransmitShiftReg_WriteRegValue
 290:Generated_Source\PSoC5/TransmitShiftReg.c **** ********************************************************************************
 291:Generated_Source\PSoC5/TransmitShiftReg.c **** *
 292:Generated_Source\PSoC5/TransmitShiftReg.c **** * Summary:
 293:Generated_Source\PSoC5/TransmitShiftReg.c **** *  Send state directly to shift register
 294:Generated_Source\PSoC5/TransmitShiftReg.c **** *
 295:Generated_Source\PSoC5/TransmitShiftReg.c **** * Parameters:
 296:Generated_Source\PSoC5/TransmitShiftReg.c **** *  shiftData: containing shift register state.
 297:Generated_Source\PSoC5/TransmitShiftReg.c **** *
 298:Generated_Source\PSoC5/TransmitShiftReg.c **** * Return:
 299:Generated_Source\PSoC5/TransmitShiftReg.c **** *  None.
ARM GAS  C:\Users\EA527~1.IVA\AppData\Local\Temp\cc4QJais.s 			page 13


 300:Generated_Source\PSoC5/TransmitShiftReg.c **** *
 301:Generated_Source\PSoC5/TransmitShiftReg.c **** *******************************************************************************/
 302:Generated_Source\PSoC5/TransmitShiftReg.c **** void TransmitShiftReg_WriteRegValue(uint32 shiftData)
 303:Generated_Source\PSoC5/TransmitShiftReg.c ****                                                                      
 304:Generated_Source\PSoC5/TransmitShiftReg.c **** {
 370              		.loc 1 304 0
 371              		.cfi_startproc
 372              		@ args = 0, pretend = 0, frame = 0
 373              		@ frame_needed = 0, uses_anonymous_args = 0
 374              		@ link register save eliminated.
 375              	.LVL24:
 305:Generated_Source\PSoC5/TransmitShiftReg.c ****     CY_SET_REG32(TransmitShiftReg_SHIFT_REG_LSB_PTR, shiftData);
 376              		.loc 1 305 0
 377 0000 014B     		ldr	r3, .L44
 378 0002 1860     		str	r0, [r3]
 379 0004 7047     		bx	lr
 380              	.L45:
 381 0006 00BF     		.align	2
 382              	.L44:
 383 0008 08650040 		.word	1073767688
 384              		.cfi_endproc
 385              	.LFE9:
 386              		.size	TransmitShiftReg_WriteRegValue, .-TransmitShiftReg_WriteRegValue
 387              		.section	.text.TransmitShiftReg_WriteData,"ax",%progbits
 388              		.align	2
 389              		.global	TransmitShiftReg_WriteData
 390              		.thumb
 391              		.thumb_func
 392              		.type	TransmitShiftReg_WriteData, %function
 393              	TransmitShiftReg_WriteData:
 394              	.LFB10:
 306:Generated_Source\PSoC5/TransmitShiftReg.c **** }
 307:Generated_Source\PSoC5/TransmitShiftReg.c **** 
 308:Generated_Source\PSoC5/TransmitShiftReg.c **** 
 309:Generated_Source\PSoC5/TransmitShiftReg.c **** #if(0u != TransmitShiftReg_USE_INPUT_FIFO)
 310:Generated_Source\PSoC5/TransmitShiftReg.c ****     /*******************************************************************************
 311:Generated_Source\PSoC5/TransmitShiftReg.c ****     * Function Name: TransmitShiftReg_WriteData
 312:Generated_Source\PSoC5/TransmitShiftReg.c ****     ********************************************************************************
 313:Generated_Source\PSoC5/TransmitShiftReg.c ****     *
 314:Generated_Source\PSoC5/TransmitShiftReg.c ****     * Summary:
 315:Generated_Source\PSoC5/TransmitShiftReg.c ****     *  Send state to FIFO for later transfer to shift register based on the Load
 316:Generated_Source\PSoC5/TransmitShiftReg.c ****     *  input
 317:Generated_Source\PSoC5/TransmitShiftReg.c ****     *
 318:Generated_Source\PSoC5/TransmitShiftReg.c ****     * Parameters:
 319:Generated_Source\PSoC5/TransmitShiftReg.c ****     *  shiftData: containing shift register state.
 320:Generated_Source\PSoC5/TransmitShiftReg.c ****     *
 321:Generated_Source\PSoC5/TransmitShiftReg.c ****     * Return:
 322:Generated_Source\PSoC5/TransmitShiftReg.c ****     *  Indicates: successful execution of function
 323:Generated_Source\PSoC5/TransmitShiftReg.c ****     *  when FIFO is empty; and error when FIFO is full.
 324:Generated_Source\PSoC5/TransmitShiftReg.c ****     *
 325:Generated_Source\PSoC5/TransmitShiftReg.c ****     * Reentrant:
 326:Generated_Source\PSoC5/TransmitShiftReg.c ****     *  No.
 327:Generated_Source\PSoC5/TransmitShiftReg.c ****     *
 328:Generated_Source\PSoC5/TransmitShiftReg.c ****     *******************************************************************************/
 329:Generated_Source\PSoC5/TransmitShiftReg.c ****     cystatus TransmitShiftReg_WriteData(uint32 shiftData)
 330:Generated_Source\PSoC5/TransmitShiftReg.c ****                                                                          
 331:Generated_Source\PSoC5/TransmitShiftReg.c ****     {
ARM GAS  C:\Users\EA527~1.IVA\AppData\Local\Temp\cc4QJais.s 			page 14


 395              		.loc 1 331 0
 396              		.cfi_startproc
 397              		@ args = 0, pretend = 0, frame = 0
 398              		@ frame_needed = 0, uses_anonymous_args = 0
 399              	.LVL25:
 400 0000 10B5     		push	{r4, lr}
 401              		.cfi_def_cfa_offset 8
 402              		.cfi_offset 4, -8
 403              		.cfi_offset 14, -4
 404 0002 0446     		mov	r4, r0
 405              	.LVL26:
 332:Generated_Source\PSoC5/TransmitShiftReg.c ****         cystatus result;
 333:Generated_Source\PSoC5/TransmitShiftReg.c **** 
 334:Generated_Source\PSoC5/TransmitShiftReg.c ****         result = CYRET_INVALID_STATE;
 335:Generated_Source\PSoC5/TransmitShiftReg.c **** 
 336:Generated_Source\PSoC5/TransmitShiftReg.c ****         /* Writes data into the input FIFO if it is not FULL */
 337:Generated_Source\PSoC5/TransmitShiftReg.c ****         if(TransmitShiftReg_RET_FIFO_FULL != (TransmitShiftReg_GetFIFOStatus(TransmitShiftReg_IN_FI
 406              		.loc 1 337 0
 407 0004 0120     		movs	r0, #1
 408              	.LVL27:
 409 0006 FFF7FEFF 		bl	TransmitShiftReg_GetFIFOStatus
 410              	.LVL28:
 411 000a 18B1     		cbz	r0, .L48
 338:Generated_Source\PSoC5/TransmitShiftReg.c ****         {
 339:Generated_Source\PSoC5/TransmitShiftReg.c ****             CY_SET_REG32(TransmitShiftReg_IN_FIFO_VAL_LSB_PTR, shiftData);
 412              		.loc 1 339 0
 413 000c 024B     		ldr	r3, .L50
 414 000e 1C60     		str	r4, [r3]
 415              	.LVL29:
 340:Generated_Source\PSoC5/TransmitShiftReg.c ****             result = CYRET_SUCCESS;
 416              		.loc 1 340 0
 417 0010 0020     		movs	r0, #0
 418 0012 10BD     		pop	{r4, pc}
 419              	.LVL30:
 420              	.L48:
 334:Generated_Source\PSoC5/TransmitShiftReg.c **** 
 421              		.loc 1 334 0
 422 0014 1120     		movs	r0, #17
 423              	.LVL31:
 341:Generated_Source\PSoC5/TransmitShiftReg.c ****         }
 342:Generated_Source\PSoC5/TransmitShiftReg.c **** 
 343:Generated_Source\PSoC5/TransmitShiftReg.c ****         return(result);
 344:Generated_Source\PSoC5/TransmitShiftReg.c ****     }
 424              		.loc 1 344 0
 425 0016 10BD     		pop	{r4, pc}
 426              	.LVL32:
 427              	.L51:
 428              		.align	2
 429              	.L50:
 430 0018 48650040 		.word	1073767752
 431              		.cfi_endproc
 432              	.LFE10:
 433              		.size	TransmitShiftReg_WriteData, .-TransmitShiftReg_WriteData
 434              		.section	.text.TransmitShiftReg_ReadRegValue,"ax",%progbits
 435              		.align	2
 436              		.global	TransmitShiftReg_ReadRegValue
 437              		.thumb
ARM GAS  C:\Users\EA527~1.IVA\AppData\Local\Temp\cc4QJais.s 			page 15


 438              		.thumb_func
 439              		.type	TransmitShiftReg_ReadRegValue, %function
 440              	TransmitShiftReg_ReadRegValue:
 441              	.LFB11:
 345:Generated_Source\PSoC5/TransmitShiftReg.c **** #endif /* (0u != TransmitShiftReg_USE_INPUT_FIFO) */
 346:Generated_Source\PSoC5/TransmitShiftReg.c **** 
 347:Generated_Source\PSoC5/TransmitShiftReg.c **** 
 348:Generated_Source\PSoC5/TransmitShiftReg.c **** #if(0u != TransmitShiftReg_USE_OUTPUT_FIFO)
 349:Generated_Source\PSoC5/TransmitShiftReg.c ****     /*******************************************************************************
 350:Generated_Source\PSoC5/TransmitShiftReg.c ****     * Function Name: TransmitShiftReg_ReadData
 351:Generated_Source\PSoC5/TransmitShiftReg.c ****     ********************************************************************************
 352:Generated_Source\PSoC5/TransmitShiftReg.c ****     *
 353:Generated_Source\PSoC5/TransmitShiftReg.c ****     * Summary:
 354:Generated_Source\PSoC5/TransmitShiftReg.c ****     *  Returns state in FIFO due to Store input.
 355:Generated_Source\PSoC5/TransmitShiftReg.c ****     *
 356:Generated_Source\PSoC5/TransmitShiftReg.c ****     * Parameters:
 357:Generated_Source\PSoC5/TransmitShiftReg.c ****     *  None.
 358:Generated_Source\PSoC5/TransmitShiftReg.c ****     *
 359:Generated_Source\PSoC5/TransmitShiftReg.c ****     * Return:
 360:Generated_Source\PSoC5/TransmitShiftReg.c ****     *  Shift Register state
 361:Generated_Source\PSoC5/TransmitShiftReg.c ****     *
 362:Generated_Source\PSoC5/TransmitShiftReg.c ****     * Reentrant:
 363:Generated_Source\PSoC5/TransmitShiftReg.c ****     *  No.
 364:Generated_Source\PSoC5/TransmitShiftReg.c ****     *
 365:Generated_Source\PSoC5/TransmitShiftReg.c ****     *******************************************************************************/
 366:Generated_Source\PSoC5/TransmitShiftReg.c ****     uint32 TransmitShiftReg_ReadData(void) 
 367:Generated_Source\PSoC5/TransmitShiftReg.c ****     {
 368:Generated_Source\PSoC5/TransmitShiftReg.c ****         return(CY_GET_REG32(TransmitShiftReg_OUT_FIFO_VAL_LSB_PTR));
 369:Generated_Source\PSoC5/TransmitShiftReg.c ****     }
 370:Generated_Source\PSoC5/TransmitShiftReg.c **** #endif /* (0u != TransmitShiftReg_USE_OUTPUT_FIFO) */
 371:Generated_Source\PSoC5/TransmitShiftReg.c **** 
 372:Generated_Source\PSoC5/TransmitShiftReg.c **** 
 373:Generated_Source\PSoC5/TransmitShiftReg.c **** /*******************************************************************************
 374:Generated_Source\PSoC5/TransmitShiftReg.c **** * Function Name: TransmitShiftReg_ReadRegValue
 375:Generated_Source\PSoC5/TransmitShiftReg.c **** ********************************************************************************
 376:Generated_Source\PSoC5/TransmitShiftReg.c **** *
 377:Generated_Source\PSoC5/TransmitShiftReg.c **** * Summary:
 378:Generated_Source\PSoC5/TransmitShiftReg.c **** *  Directly returns current state in shift register, not data in FIFO due
 379:Generated_Source\PSoC5/TransmitShiftReg.c **** *  to Store input.
 380:Generated_Source\PSoC5/TransmitShiftReg.c **** *
 381:Generated_Source\PSoC5/TransmitShiftReg.c **** * Parameters:
 382:Generated_Source\PSoC5/TransmitShiftReg.c **** *  None.
 383:Generated_Source\PSoC5/TransmitShiftReg.c **** *
 384:Generated_Source\PSoC5/TransmitShiftReg.c **** * Return:
 385:Generated_Source\PSoC5/TransmitShiftReg.c **** *  Shift Register state. Clears output FIFO.
 386:Generated_Source\PSoC5/TransmitShiftReg.c **** *
 387:Generated_Source\PSoC5/TransmitShiftReg.c **** * Reentrant:
 388:Generated_Source\PSoC5/TransmitShiftReg.c **** *  No.
 389:Generated_Source\PSoC5/TransmitShiftReg.c **** *
 390:Generated_Source\PSoC5/TransmitShiftReg.c **** *******************************************************************************/
 391:Generated_Source\PSoC5/TransmitShiftReg.c **** uint32 TransmitShiftReg_ReadRegValue(void) 
 392:Generated_Source\PSoC5/TransmitShiftReg.c **** {
 442              		.loc 1 392 0
 443              		.cfi_startproc
 444              		@ args = 0, pretend = 0, frame = 0
 445              		@ frame_needed = 0, uses_anonymous_args = 0
 446 0000 08B5     		push	{r3, lr}
ARM GAS  C:\Users\EA527~1.IVA\AppData\Local\Temp\cc4QJais.s 			page 16


 447              		.cfi_def_cfa_offset 8
 448              		.cfi_offset 3, -8
 449              		.cfi_offset 14, -4
 393:Generated_Source\PSoC5/TransmitShiftReg.c ****     uint32 result;
 394:Generated_Source\PSoC5/TransmitShiftReg.c **** 
 395:Generated_Source\PSoC5/TransmitShiftReg.c ****     /* Clear FIFO before software capture */
 396:Generated_Source\PSoC5/TransmitShiftReg.c ****     while(TransmitShiftReg_RET_FIFO_EMPTY != TransmitShiftReg_GetFIFOStatus(TransmitShiftReg_OUT_FI
 450              		.loc 1 396 0
 451 0002 01E0     		b	.L53
 452              	.L54:
 397:Generated_Source\PSoC5/TransmitShiftReg.c ****     {
 398:Generated_Source\PSoC5/TransmitShiftReg.c ****         (void) CY_GET_REG32(TransmitShiftReg_OUT_FIFO_VAL_LSB_PTR);
 453              		.loc 1 398 0
 454 0004 054B     		ldr	r3, .L56
 455 0006 1B68     		ldr	r3, [r3]
 456              	.L53:
 396:Generated_Source\PSoC5/TransmitShiftReg.c ****     {
 457              		.loc 1 396 0
 458 0008 0220     		movs	r0, #2
 459 000a FFF7FEFF 		bl	TransmitShiftReg_GetFIFOStatus
 460              	.LVL33:
 461 000e 0228     		cmp	r0, #2
 462 0010 F8D1     		bne	.L54
 399:Generated_Source\PSoC5/TransmitShiftReg.c ****     }
 400:Generated_Source\PSoC5/TransmitShiftReg.c **** 
 401:Generated_Source\PSoC5/TransmitShiftReg.c ****     /* Read of 8 bits from A1 causes capture to output FIFO */
 402:Generated_Source\PSoC5/TransmitShiftReg.c ****     (void) CY_GET_REG8(TransmitShiftReg_SHIFT_REG_CAPTURE_PTR);
 463              		.loc 1 402 0
 464 0012 034B     		ldr	r3, .L56+4
 465 0014 1B78     		ldrb	r3, [r3]	@ zero_extendqisi2
 403:Generated_Source\PSoC5/TransmitShiftReg.c **** 
 404:Generated_Source\PSoC5/TransmitShiftReg.c ****     /* Read output FIFO */
 405:Generated_Source\PSoC5/TransmitShiftReg.c ****     result  = CY_GET_REG32(TransmitShiftReg_OUT_FIFO_VAL_LSB_PTR);
 466              		.loc 1 405 0
 467 0016 014B     		ldr	r3, .L56
 468 0018 1868     		ldr	r0, [r3]
 469              	.LVL34:
 406:Generated_Source\PSoC5/TransmitShiftReg.c ****     
 407:Generated_Source\PSoC5/TransmitShiftReg.c ****     #if(0u != (TransmitShiftReg_SR_SIZE % 8u))
 408:Generated_Source\PSoC5/TransmitShiftReg.c ****         result &= ((uint32) TransmitShiftReg_SR_MASK);
 409:Generated_Source\PSoC5/TransmitShiftReg.c ****     #endif /* (0u != (TransmitShiftReg_SR_SIZE % 8u)) */
 410:Generated_Source\PSoC5/TransmitShiftReg.c ****     
 411:Generated_Source\PSoC5/TransmitShiftReg.c ****     return(result);
 412:Generated_Source\PSoC5/TransmitShiftReg.c **** }
 470              		.loc 1 412 0
 471 001a 08BD     		pop	{r3, pc}
 472              	.L57:
 473              		.align	2
 474              	.L56:
 475 001c 58650040 		.word	1073767768
 476 0020 18650040 		.word	1073767704
 477              		.cfi_endproc
 478              	.LFE11:
 479              		.size	TransmitShiftReg_ReadRegValue, .-TransmitShiftReg_ReadRegValue
 480              		.global	TransmitShiftReg_initVar
 481              		.bss
 482              		.set	.LANCHOR0,. + 0
ARM GAS  C:\Users\EA527~1.IVA\AppData\Local\Temp\cc4QJais.s 			page 17


 483              		.type	TransmitShiftReg_initVar, %object
 484              		.size	TransmitShiftReg_initVar, 1
 485              	TransmitShiftReg_initVar:
 486 0000 00       		.space	1
 487              		.text
 488              	.Letext0:
 489              		.file 2 "Generated_Source\\PSoC5\\cytypes.h"
 490              		.file 3 "Generated_Source\\PSoC5\\CyLib.h"