ARM GAS  C:\Users\EA527~1.IVA\AppData\Local\Temp\ccLnWAS2.s 			page 1


   1              		.syntax unified
   2              		.cpu cortex-m3
   3              		.fpu softvfp
   4              		.eabi_attribute 20, 1
   5              		.eabi_attribute 21, 1
   6              		.eabi_attribute 23, 3
   7              		.eabi_attribute 24, 1
   8              		.eabi_attribute 25, 1
   9              		.eabi_attribute 26, 1
  10              		.eabi_attribute 30, 1
  11              		.eabi_attribute 34, 1
  12              		.eabi_attribute 18, 4
  13              		.thumb
  14              		.syntax unified
  15              		.file	"TransmitWordShift.c"
  16              		.text
  17              	.Ltext0:
  18              		.cfi_sections	.debug_frame
  19              		.section	.text.TransmitWordShift_SetVector,"ax",%progbits
  20              		.align	2
  21              		.global	TransmitWordShift_SetVector
  22              		.thumb
  23              		.thumb_func
  24              		.type	TransmitWordShift_SetVector, %function
  25              	TransmitWordShift_SetVector:
  26              	.LFB4:
  27              		.file 1 "Generated_Source\\PSoC5\\TransmitWordShift.c"
   1:Generated_Source\PSoC5/TransmitWordShift.c **** /*******************************************************************************
   2:Generated_Source\PSoC5/TransmitWordShift.c **** * File Name: TransmitWordShift.c  
   3:Generated_Source\PSoC5/TransmitWordShift.c **** * Version 1.70
   4:Generated_Source\PSoC5/TransmitWordShift.c **** *
   5:Generated_Source\PSoC5/TransmitWordShift.c **** *  Description:
   6:Generated_Source\PSoC5/TransmitWordShift.c **** *   API for controlling the state of an interrupt.
   7:Generated_Source\PSoC5/TransmitWordShift.c **** *
   8:Generated_Source\PSoC5/TransmitWordShift.c **** *
   9:Generated_Source\PSoC5/TransmitWordShift.c **** *  Note:
  10:Generated_Source\PSoC5/TransmitWordShift.c **** *
  11:Generated_Source\PSoC5/TransmitWordShift.c **** ********************************************************************************
  12:Generated_Source\PSoC5/TransmitWordShift.c **** * Copyright 2008-2015, Cypress Semiconductor Corporation.  All rights reserved.
  13:Generated_Source\PSoC5/TransmitWordShift.c **** * You may use this file only in accordance with the license, terms, conditions, 
  14:Generated_Source\PSoC5/TransmitWordShift.c **** * disclaimers, and limitations in the end user license agreement accompanying 
  15:Generated_Source\PSoC5/TransmitWordShift.c **** * the software package with which this file was provided.
  16:Generated_Source\PSoC5/TransmitWordShift.c **** *******************************************************************************/
  17:Generated_Source\PSoC5/TransmitWordShift.c **** 
  18:Generated_Source\PSoC5/TransmitWordShift.c **** 
  19:Generated_Source\PSoC5/TransmitWordShift.c **** #include <cydevice_trm.h>
  20:Generated_Source\PSoC5/TransmitWordShift.c **** #include <CyLib.h>
  21:Generated_Source\PSoC5/TransmitWordShift.c **** #include <TransmitWordShift.h>
  22:Generated_Source\PSoC5/TransmitWordShift.c **** #include "cyapicallbacks.h"
  23:Generated_Source\PSoC5/TransmitWordShift.c **** 
  24:Generated_Source\PSoC5/TransmitWordShift.c **** #if !defined(TransmitWordShift__REMOVED) /* Check for removal by optimization */
  25:Generated_Source\PSoC5/TransmitWordShift.c **** 
  26:Generated_Source\PSoC5/TransmitWordShift.c **** /*******************************************************************************
  27:Generated_Source\PSoC5/TransmitWordShift.c **** *  Place your includes, defines and code here 
  28:Generated_Source\PSoC5/TransmitWordShift.c **** ********************************************************************************/
  29:Generated_Source\PSoC5/TransmitWordShift.c **** /* `#START TransmitWordShift_intc` */
  30:Generated_Source\PSoC5/TransmitWordShift.c **** #include <StartTransmit.h>
ARM GAS  C:\Users\EA527~1.IVA\AppData\Local\Temp\ccLnWAS2.s 			page 2


  31:Generated_Source\PSoC5/TransmitWordShift.c **** #include <sender.h>
  32:Generated_Source\PSoC5/TransmitWordShift.c **** #include <BitCounterEnc.h>
  33:Generated_Source\PSoC5/TransmitWordShift.c **** /* `#END` */
  34:Generated_Source\PSoC5/TransmitWordShift.c **** 
  35:Generated_Source\PSoC5/TransmitWordShift.c **** #ifndef CYINT_IRQ_BASE
  36:Generated_Source\PSoC5/TransmitWordShift.c **** #define CYINT_IRQ_BASE      16
  37:Generated_Source\PSoC5/TransmitWordShift.c **** #endif /* CYINT_IRQ_BASE */
  38:Generated_Source\PSoC5/TransmitWordShift.c **** #ifndef CYINT_VECT_TABLE
  39:Generated_Source\PSoC5/TransmitWordShift.c **** #define CYINT_VECT_TABLE    ((cyisraddress **) CYREG_NVIC_VECT_OFFSET)
  40:Generated_Source\PSoC5/TransmitWordShift.c **** #endif /* CYINT_VECT_TABLE */
  41:Generated_Source\PSoC5/TransmitWordShift.c **** 
  42:Generated_Source\PSoC5/TransmitWordShift.c **** /* Declared in startup, used to set unused interrupts to. */
  43:Generated_Source\PSoC5/TransmitWordShift.c **** CY_ISR_PROTO(IntDefaultHandler);
  44:Generated_Source\PSoC5/TransmitWordShift.c **** 
  45:Generated_Source\PSoC5/TransmitWordShift.c **** 
  46:Generated_Source\PSoC5/TransmitWordShift.c **** /*******************************************************************************
  47:Generated_Source\PSoC5/TransmitWordShift.c **** * Function Name: TransmitWordShift_Start
  48:Generated_Source\PSoC5/TransmitWordShift.c **** ********************************************************************************
  49:Generated_Source\PSoC5/TransmitWordShift.c **** *
  50:Generated_Source\PSoC5/TransmitWordShift.c **** * Summary:
  51:Generated_Source\PSoC5/TransmitWordShift.c **** *  Set up the interrupt and enable it. This function disables the interrupt, 
  52:Generated_Source\PSoC5/TransmitWordShift.c **** *  sets the default interrupt vector, sets the priority from the value in the
  53:Generated_Source\PSoC5/TransmitWordShift.c **** *  Design Wide Resources Interrupt Editor, then enables the interrupt to the 
  54:Generated_Source\PSoC5/TransmitWordShift.c **** *  interrupt controller.
  55:Generated_Source\PSoC5/TransmitWordShift.c **** *
  56:Generated_Source\PSoC5/TransmitWordShift.c **** * Parameters:  
  57:Generated_Source\PSoC5/TransmitWordShift.c **** *   None
  58:Generated_Source\PSoC5/TransmitWordShift.c **** *
  59:Generated_Source\PSoC5/TransmitWordShift.c **** * Return:
  60:Generated_Source\PSoC5/TransmitWordShift.c **** *   None
  61:Generated_Source\PSoC5/TransmitWordShift.c **** *
  62:Generated_Source\PSoC5/TransmitWordShift.c **** *******************************************************************************/
  63:Generated_Source\PSoC5/TransmitWordShift.c **** void TransmitWordShift_Start(void)
  64:Generated_Source\PSoC5/TransmitWordShift.c **** {
  65:Generated_Source\PSoC5/TransmitWordShift.c ****     /* For all we know the interrupt is active. */
  66:Generated_Source\PSoC5/TransmitWordShift.c ****     TransmitWordShift_Disable();
  67:Generated_Source\PSoC5/TransmitWordShift.c **** 
  68:Generated_Source\PSoC5/TransmitWordShift.c ****     /* Set the ISR to point to the TransmitWordShift Interrupt. */
  69:Generated_Source\PSoC5/TransmitWordShift.c ****     TransmitWordShift_SetVector(&TransmitWordShift_Interrupt);
  70:Generated_Source\PSoC5/TransmitWordShift.c **** 
  71:Generated_Source\PSoC5/TransmitWordShift.c ****     /* Set the priority. */
  72:Generated_Source\PSoC5/TransmitWordShift.c ****     TransmitWordShift_SetPriority((uint8)TransmitWordShift_INTC_PRIOR_NUMBER);
  73:Generated_Source\PSoC5/TransmitWordShift.c **** 
  74:Generated_Source\PSoC5/TransmitWordShift.c ****     /* Enable it. */
  75:Generated_Source\PSoC5/TransmitWordShift.c ****     TransmitWordShift_Enable();
  76:Generated_Source\PSoC5/TransmitWordShift.c **** }
  77:Generated_Source\PSoC5/TransmitWordShift.c **** 
  78:Generated_Source\PSoC5/TransmitWordShift.c **** 
  79:Generated_Source\PSoC5/TransmitWordShift.c **** /*******************************************************************************
  80:Generated_Source\PSoC5/TransmitWordShift.c **** * Function Name: TransmitWordShift_StartEx
  81:Generated_Source\PSoC5/TransmitWordShift.c **** ********************************************************************************
  82:Generated_Source\PSoC5/TransmitWordShift.c **** *
  83:Generated_Source\PSoC5/TransmitWordShift.c **** * Summary:
  84:Generated_Source\PSoC5/TransmitWordShift.c **** *  Sets up the interrupt and enables it. This function disables the interrupt,
  85:Generated_Source\PSoC5/TransmitWordShift.c **** *  sets the interrupt vector based on the address passed in, sets the priority 
  86:Generated_Source\PSoC5/TransmitWordShift.c **** *  from the value in the Design Wide Resources Interrupt Editor, then enables 
  87:Generated_Source\PSoC5/TransmitWordShift.c **** *  the interrupt to the interrupt controller.
ARM GAS  C:\Users\EA527~1.IVA\AppData\Local\Temp\ccLnWAS2.s 			page 3


  88:Generated_Source\PSoC5/TransmitWordShift.c **** *  
  89:Generated_Source\PSoC5/TransmitWordShift.c **** *  When defining ISR functions, the CY_ISR and CY_ISR_PROTO macros should be 
  90:Generated_Source\PSoC5/TransmitWordShift.c **** *  used to provide consistent definition across compilers:
  91:Generated_Source\PSoC5/TransmitWordShift.c **** *  
  92:Generated_Source\PSoC5/TransmitWordShift.c **** *  Function definition example:
  93:Generated_Source\PSoC5/TransmitWordShift.c **** *   CY_ISR(MyISR)
  94:Generated_Source\PSoC5/TransmitWordShift.c **** *   {
  95:Generated_Source\PSoC5/TransmitWordShift.c **** *   }
  96:Generated_Source\PSoC5/TransmitWordShift.c **** *   Function prototype example:
  97:Generated_Source\PSoC5/TransmitWordShift.c **** *   CY_ISR_PROTO(MyISR);
  98:Generated_Source\PSoC5/TransmitWordShift.c **** *
  99:Generated_Source\PSoC5/TransmitWordShift.c **** * Parameters:  
 100:Generated_Source\PSoC5/TransmitWordShift.c **** *   address: Address of the ISR to set in the interrupt vector table.
 101:Generated_Source\PSoC5/TransmitWordShift.c **** *
 102:Generated_Source\PSoC5/TransmitWordShift.c **** * Return:
 103:Generated_Source\PSoC5/TransmitWordShift.c **** *   None
 104:Generated_Source\PSoC5/TransmitWordShift.c **** *
 105:Generated_Source\PSoC5/TransmitWordShift.c **** *******************************************************************************/
 106:Generated_Source\PSoC5/TransmitWordShift.c **** void TransmitWordShift_StartEx(cyisraddress address)
 107:Generated_Source\PSoC5/TransmitWordShift.c **** {
 108:Generated_Source\PSoC5/TransmitWordShift.c ****     /* For all we know the interrupt is active. */
 109:Generated_Source\PSoC5/TransmitWordShift.c ****     TransmitWordShift_Disable();
 110:Generated_Source\PSoC5/TransmitWordShift.c **** 
 111:Generated_Source\PSoC5/TransmitWordShift.c ****     /* Set the ISR to point to the TransmitWordShift Interrupt. */
 112:Generated_Source\PSoC5/TransmitWordShift.c ****     TransmitWordShift_SetVector(address);
 113:Generated_Source\PSoC5/TransmitWordShift.c **** 
 114:Generated_Source\PSoC5/TransmitWordShift.c ****     /* Set the priority. */
 115:Generated_Source\PSoC5/TransmitWordShift.c ****     TransmitWordShift_SetPriority((uint8)TransmitWordShift_INTC_PRIOR_NUMBER);
 116:Generated_Source\PSoC5/TransmitWordShift.c **** 
 117:Generated_Source\PSoC5/TransmitWordShift.c ****     /* Enable it. */
 118:Generated_Source\PSoC5/TransmitWordShift.c ****     TransmitWordShift_Enable();
 119:Generated_Source\PSoC5/TransmitWordShift.c **** }
 120:Generated_Source\PSoC5/TransmitWordShift.c **** 
 121:Generated_Source\PSoC5/TransmitWordShift.c **** 
 122:Generated_Source\PSoC5/TransmitWordShift.c **** /*******************************************************************************
 123:Generated_Source\PSoC5/TransmitWordShift.c **** * Function Name: TransmitWordShift_Stop
 124:Generated_Source\PSoC5/TransmitWordShift.c **** ********************************************************************************
 125:Generated_Source\PSoC5/TransmitWordShift.c **** *
 126:Generated_Source\PSoC5/TransmitWordShift.c **** * Summary:
 127:Generated_Source\PSoC5/TransmitWordShift.c **** *   Disables and removes the interrupt.
 128:Generated_Source\PSoC5/TransmitWordShift.c **** *
 129:Generated_Source\PSoC5/TransmitWordShift.c **** * Parameters:  
 130:Generated_Source\PSoC5/TransmitWordShift.c **** *   None
 131:Generated_Source\PSoC5/TransmitWordShift.c **** *
 132:Generated_Source\PSoC5/TransmitWordShift.c **** * Return:
 133:Generated_Source\PSoC5/TransmitWordShift.c **** *   None
 134:Generated_Source\PSoC5/TransmitWordShift.c **** *
 135:Generated_Source\PSoC5/TransmitWordShift.c **** *******************************************************************************/
 136:Generated_Source\PSoC5/TransmitWordShift.c **** void TransmitWordShift_Stop(void)
 137:Generated_Source\PSoC5/TransmitWordShift.c **** {
 138:Generated_Source\PSoC5/TransmitWordShift.c ****     /* Disable this interrupt. */
 139:Generated_Source\PSoC5/TransmitWordShift.c ****     TransmitWordShift_Disable();
 140:Generated_Source\PSoC5/TransmitWordShift.c **** 
 141:Generated_Source\PSoC5/TransmitWordShift.c ****     /* Set the ISR to point to the passive one. */
 142:Generated_Source\PSoC5/TransmitWordShift.c ****     TransmitWordShift_SetVector(&IntDefaultHandler);
 143:Generated_Source\PSoC5/TransmitWordShift.c **** }
 144:Generated_Source\PSoC5/TransmitWordShift.c **** 
ARM GAS  C:\Users\EA527~1.IVA\AppData\Local\Temp\ccLnWAS2.s 			page 4


 145:Generated_Source\PSoC5/TransmitWordShift.c **** 
 146:Generated_Source\PSoC5/TransmitWordShift.c **** /*******************************************************************************
 147:Generated_Source\PSoC5/TransmitWordShift.c **** * Function Name: TransmitWordShift_Interrupt
 148:Generated_Source\PSoC5/TransmitWordShift.c **** ********************************************************************************
 149:Generated_Source\PSoC5/TransmitWordShift.c **** *
 150:Generated_Source\PSoC5/TransmitWordShift.c **** * Summary:
 151:Generated_Source\PSoC5/TransmitWordShift.c **** *   The default Interrupt Service Routine for TransmitWordShift.
 152:Generated_Source\PSoC5/TransmitWordShift.c **** *
 153:Generated_Source\PSoC5/TransmitWordShift.c **** *   Add custom code between the coments to keep the next version of this file
 154:Generated_Source\PSoC5/TransmitWordShift.c **** *   from over writting your code.
 155:Generated_Source\PSoC5/TransmitWordShift.c **** *
 156:Generated_Source\PSoC5/TransmitWordShift.c **** * Parameters:  
 157:Generated_Source\PSoC5/TransmitWordShift.c **** *
 158:Generated_Source\PSoC5/TransmitWordShift.c **** * Return:
 159:Generated_Source\PSoC5/TransmitWordShift.c **** *   None
 160:Generated_Source\PSoC5/TransmitWordShift.c **** *
 161:Generated_Source\PSoC5/TransmitWordShift.c **** *******************************************************************************/
 162:Generated_Source\PSoC5/TransmitWordShift.c **** CY_ISR(TransmitWordShift_Interrupt)
 163:Generated_Source\PSoC5/TransmitWordShift.c **** {
 164:Generated_Source\PSoC5/TransmitWordShift.c ****     #ifdef TransmitWordShift_INTERRUPT_INTERRUPT_CALLBACK
 165:Generated_Source\PSoC5/TransmitWordShift.c ****         TransmitWordShift_Interrupt_InterruptCallback();
 166:Generated_Source\PSoC5/TransmitWordShift.c ****     #endif /* TransmitWordShift_INTERRUPT_INTERRUPT_CALLBACK */ 
 167:Generated_Source\PSoC5/TransmitWordShift.c **** 
 168:Generated_Source\PSoC5/TransmitWordShift.c ****     /*  Place your Interrupt code here. */
 169:Generated_Source\PSoC5/TransmitWordShift.c ****     /* `#START TransmitWordShift_Interrupt` */
 170:Generated_Source\PSoC5/TransmitWordShift.c ****         ClearStatus();
 171:Generated_Source\PSoC5/TransmitWordShift.c ****         BitCounterEnc_ReadStatusRegister();
 172:Generated_Source\PSoC5/TransmitWordShift.c ****         TransmitWordShift_ClearPending();
 173:Generated_Source\PSoC5/TransmitWordShift.c ****         TransmitWordShift_Disable();
 174:Generated_Source\PSoC5/TransmitWordShift.c ****     /* `#END` */
 175:Generated_Source\PSoC5/TransmitWordShift.c **** }
 176:Generated_Source\PSoC5/TransmitWordShift.c **** 
 177:Generated_Source\PSoC5/TransmitWordShift.c **** 
 178:Generated_Source\PSoC5/TransmitWordShift.c **** /*******************************************************************************
 179:Generated_Source\PSoC5/TransmitWordShift.c **** * Function Name: TransmitWordShift_SetVector
 180:Generated_Source\PSoC5/TransmitWordShift.c **** ********************************************************************************
 181:Generated_Source\PSoC5/TransmitWordShift.c **** *
 182:Generated_Source\PSoC5/TransmitWordShift.c **** * Summary:
 183:Generated_Source\PSoC5/TransmitWordShift.c **** *   Change the ISR vector for the Interrupt. Note calling TransmitWordShift_Start
 184:Generated_Source\PSoC5/TransmitWordShift.c **** *   will override any effect this method would have had. To set the vector 
 185:Generated_Source\PSoC5/TransmitWordShift.c **** *   before the component has been started use TransmitWordShift_StartEx instead.
 186:Generated_Source\PSoC5/TransmitWordShift.c **** * 
 187:Generated_Source\PSoC5/TransmitWordShift.c **** *   When defining ISR functions, the CY_ISR and CY_ISR_PROTO macros should be 
 188:Generated_Source\PSoC5/TransmitWordShift.c **** *   used to provide consistent definition across compilers:
 189:Generated_Source\PSoC5/TransmitWordShift.c **** *
 190:Generated_Source\PSoC5/TransmitWordShift.c **** *   Function definition example:
 191:Generated_Source\PSoC5/TransmitWordShift.c **** *   CY_ISR(MyISR)
 192:Generated_Source\PSoC5/TransmitWordShift.c **** *   {
 193:Generated_Source\PSoC5/TransmitWordShift.c **** *   }
 194:Generated_Source\PSoC5/TransmitWordShift.c **** *
 195:Generated_Source\PSoC5/TransmitWordShift.c **** *   Function prototype example:
 196:Generated_Source\PSoC5/TransmitWordShift.c **** *     CY_ISR_PROTO(MyISR);
 197:Generated_Source\PSoC5/TransmitWordShift.c **** *
 198:Generated_Source\PSoC5/TransmitWordShift.c **** * Parameters:
 199:Generated_Source\PSoC5/TransmitWordShift.c **** *   address: Address of the ISR to set in the interrupt vector table.
 200:Generated_Source\PSoC5/TransmitWordShift.c **** *
 201:Generated_Source\PSoC5/TransmitWordShift.c **** * Return:
ARM GAS  C:\Users\EA527~1.IVA\AppData\Local\Temp\ccLnWAS2.s 			page 5


 202:Generated_Source\PSoC5/TransmitWordShift.c **** *   None
 203:Generated_Source\PSoC5/TransmitWordShift.c **** *
 204:Generated_Source\PSoC5/TransmitWordShift.c **** *******************************************************************************/
 205:Generated_Source\PSoC5/TransmitWordShift.c **** void TransmitWordShift_SetVector(cyisraddress address)
 206:Generated_Source\PSoC5/TransmitWordShift.c **** {
  28              		.loc 1 206 0
  29              		.cfi_startproc
  30              		@ args = 0, pretend = 0, frame = 0
  31              		@ frame_needed = 0, uses_anonymous_args = 0
  32              		@ link register save eliminated.
  33              	.LVL0:
 207:Generated_Source\PSoC5/TransmitWordShift.c ****     cyisraddress * ramVectorTable;
 208:Generated_Source\PSoC5/TransmitWordShift.c **** 
 209:Generated_Source\PSoC5/TransmitWordShift.c ****     ramVectorTable = (cyisraddress *) *CYINT_VECT_TABLE;
  34              		.loc 1 209 0
  35 0000 014B     		ldr	r3, .L2
  36 0002 1B68     		ldr	r3, [r3]
  37              	.LVL1:
 210:Generated_Source\PSoC5/TransmitWordShift.c **** 
 211:Generated_Source\PSoC5/TransmitWordShift.c ****     ramVectorTable[CYINT_IRQ_BASE + (uint32)TransmitWordShift__INTC_NUMBER] = address;
  38              		.loc 1 211 0
  39 0004 1864     		str	r0, [r3, #64]
  40 0006 7047     		bx	lr
  41              	.L3:
  42              		.align	2
  43              	.L2:
  44 0008 08ED00E0 		.word	-536810232
  45              		.cfi_endproc
  46              	.LFE4:
  47              		.size	TransmitWordShift_SetVector, .-TransmitWordShift_SetVector
  48              		.section	.text.TransmitWordShift_GetVector,"ax",%progbits
  49              		.align	2
  50              		.global	TransmitWordShift_GetVector
  51              		.thumb
  52              		.thumb_func
  53              		.type	TransmitWordShift_GetVector, %function
  54              	TransmitWordShift_GetVector:
  55              	.LFB5:
 212:Generated_Source\PSoC5/TransmitWordShift.c **** }
 213:Generated_Source\PSoC5/TransmitWordShift.c **** 
 214:Generated_Source\PSoC5/TransmitWordShift.c **** 
 215:Generated_Source\PSoC5/TransmitWordShift.c **** /*******************************************************************************
 216:Generated_Source\PSoC5/TransmitWordShift.c **** * Function Name: TransmitWordShift_GetVector
 217:Generated_Source\PSoC5/TransmitWordShift.c **** ********************************************************************************
 218:Generated_Source\PSoC5/TransmitWordShift.c **** *
 219:Generated_Source\PSoC5/TransmitWordShift.c **** * Summary:
 220:Generated_Source\PSoC5/TransmitWordShift.c **** *   Gets the "address" of the current ISR vector for the Interrupt.
 221:Generated_Source\PSoC5/TransmitWordShift.c **** *
 222:Generated_Source\PSoC5/TransmitWordShift.c **** * Parameters:
 223:Generated_Source\PSoC5/TransmitWordShift.c **** *   None
 224:Generated_Source\PSoC5/TransmitWordShift.c **** *
 225:Generated_Source\PSoC5/TransmitWordShift.c **** * Return:
 226:Generated_Source\PSoC5/TransmitWordShift.c **** *   Address of the ISR in the interrupt vector table.
 227:Generated_Source\PSoC5/TransmitWordShift.c **** *
 228:Generated_Source\PSoC5/TransmitWordShift.c **** *******************************************************************************/
 229:Generated_Source\PSoC5/TransmitWordShift.c **** cyisraddress TransmitWordShift_GetVector(void)
 230:Generated_Source\PSoC5/TransmitWordShift.c **** {
ARM GAS  C:\Users\EA527~1.IVA\AppData\Local\Temp\ccLnWAS2.s 			page 6


  56              		.loc 1 230 0
  57              		.cfi_startproc
  58              		@ args = 0, pretend = 0, frame = 0
  59              		@ frame_needed = 0, uses_anonymous_args = 0
  60              		@ link register save eliminated.
 231:Generated_Source\PSoC5/TransmitWordShift.c ****     cyisraddress * ramVectorTable;
 232:Generated_Source\PSoC5/TransmitWordShift.c **** 
 233:Generated_Source\PSoC5/TransmitWordShift.c ****     ramVectorTable = (cyisraddress *) *CYINT_VECT_TABLE;
  61              		.loc 1 233 0
  62 0000 014B     		ldr	r3, .L5
  63 0002 1B68     		ldr	r3, [r3]
  64              	.LVL2:
 234:Generated_Source\PSoC5/TransmitWordShift.c **** 
 235:Generated_Source\PSoC5/TransmitWordShift.c ****     return ramVectorTable[CYINT_IRQ_BASE + (uint32)TransmitWordShift__INTC_NUMBER];
 236:Generated_Source\PSoC5/TransmitWordShift.c **** }
  65              		.loc 1 236 0
  66 0004 186C     		ldr	r0, [r3, #64]
  67 0006 7047     		bx	lr
  68              	.L6:
  69              		.align	2
  70              	.L5:
  71 0008 08ED00E0 		.word	-536810232
  72              		.cfi_endproc
  73              	.LFE5:
  74              		.size	TransmitWordShift_GetVector, .-TransmitWordShift_GetVector
  75              		.section	.text.TransmitWordShift_SetPriority,"ax",%progbits
  76              		.align	2
  77              		.global	TransmitWordShift_SetPriority
  78              		.thumb
  79              		.thumb_func
  80              		.type	TransmitWordShift_SetPriority, %function
  81              	TransmitWordShift_SetPriority:
  82              	.LFB6:
 237:Generated_Source\PSoC5/TransmitWordShift.c **** 
 238:Generated_Source\PSoC5/TransmitWordShift.c **** 
 239:Generated_Source\PSoC5/TransmitWordShift.c **** /*******************************************************************************
 240:Generated_Source\PSoC5/TransmitWordShift.c **** * Function Name: TransmitWordShift_SetPriority
 241:Generated_Source\PSoC5/TransmitWordShift.c **** ********************************************************************************
 242:Generated_Source\PSoC5/TransmitWordShift.c **** *
 243:Generated_Source\PSoC5/TransmitWordShift.c **** * Summary:
 244:Generated_Source\PSoC5/TransmitWordShift.c **** *   Sets the Priority of the Interrupt. 
 245:Generated_Source\PSoC5/TransmitWordShift.c **** *
 246:Generated_Source\PSoC5/TransmitWordShift.c **** *   Note calling TransmitWordShift_Start or TransmitWordShift_StartEx will 
 247:Generated_Source\PSoC5/TransmitWordShift.c **** *   override any effect this API would have had. This API should only be called
 248:Generated_Source\PSoC5/TransmitWordShift.c **** *   after TransmitWordShift_Start or TransmitWordShift_StartEx has been called. 
 249:Generated_Source\PSoC5/TransmitWordShift.c **** *   To set the initial priority for the component, use the Design-Wide Resources
 250:Generated_Source\PSoC5/TransmitWordShift.c **** *   Interrupt Editor.
 251:Generated_Source\PSoC5/TransmitWordShift.c **** *
 252:Generated_Source\PSoC5/TransmitWordShift.c **** *   Note This API has no effect on Non-maskable interrupt NMI).
 253:Generated_Source\PSoC5/TransmitWordShift.c **** *
 254:Generated_Source\PSoC5/TransmitWordShift.c **** * Parameters:
 255:Generated_Source\PSoC5/TransmitWordShift.c **** *   priority: Priority of the interrupt, 0 being the highest priority
 256:Generated_Source\PSoC5/TransmitWordShift.c **** *             PSoC 3 and PSoC 5LP: Priority is from 0 to 7.
 257:Generated_Source\PSoC5/TransmitWordShift.c **** *             PSoC 4: Priority is from 0 to 3.
 258:Generated_Source\PSoC5/TransmitWordShift.c **** *
 259:Generated_Source\PSoC5/TransmitWordShift.c **** * Return:
 260:Generated_Source\PSoC5/TransmitWordShift.c **** *   None
ARM GAS  C:\Users\EA527~1.IVA\AppData\Local\Temp\ccLnWAS2.s 			page 7


 261:Generated_Source\PSoC5/TransmitWordShift.c **** *
 262:Generated_Source\PSoC5/TransmitWordShift.c **** *******************************************************************************/
 263:Generated_Source\PSoC5/TransmitWordShift.c **** void TransmitWordShift_SetPriority(uint8 priority)
 264:Generated_Source\PSoC5/TransmitWordShift.c **** {
  83              		.loc 1 264 0
  84              		.cfi_startproc
  85              		@ args = 0, pretend = 0, frame = 0
  86              		@ frame_needed = 0, uses_anonymous_args = 0
  87              		@ link register save eliminated.
  88              	.LVL3:
 265:Generated_Source\PSoC5/TransmitWordShift.c ****     *TransmitWordShift_INTC_PRIOR = priority << 5;
  89              		.loc 1 265 0
  90 0000 4001     		lsls	r0, r0, #5
  91              	.LVL4:
  92 0002 C0B2     		uxtb	r0, r0
  93 0004 014B     		ldr	r3, .L8
  94 0006 1870     		strb	r0, [r3]
  95 0008 7047     		bx	lr
  96              	.L9:
  97 000a 00BF     		.align	2
  98              	.L8:
  99 000c 00E400E0 		.word	-536812544
 100              		.cfi_endproc
 101              	.LFE6:
 102              		.size	TransmitWordShift_SetPriority, .-TransmitWordShift_SetPriority
 103              		.section	.text.TransmitWordShift_GetPriority,"ax",%progbits
 104              		.align	2
 105              		.global	TransmitWordShift_GetPriority
 106              		.thumb
 107              		.thumb_func
 108              		.type	TransmitWordShift_GetPriority, %function
 109              	TransmitWordShift_GetPriority:
 110              	.LFB7:
 266:Generated_Source\PSoC5/TransmitWordShift.c **** }
 267:Generated_Source\PSoC5/TransmitWordShift.c **** 
 268:Generated_Source\PSoC5/TransmitWordShift.c **** 
 269:Generated_Source\PSoC5/TransmitWordShift.c **** /*******************************************************************************
 270:Generated_Source\PSoC5/TransmitWordShift.c **** * Function Name: TransmitWordShift_GetPriority
 271:Generated_Source\PSoC5/TransmitWordShift.c **** ********************************************************************************
 272:Generated_Source\PSoC5/TransmitWordShift.c **** *
 273:Generated_Source\PSoC5/TransmitWordShift.c **** * Summary:
 274:Generated_Source\PSoC5/TransmitWordShift.c **** *   Gets the Priority of the Interrupt.
 275:Generated_Source\PSoC5/TransmitWordShift.c **** *
 276:Generated_Source\PSoC5/TransmitWordShift.c **** * Parameters:
 277:Generated_Source\PSoC5/TransmitWordShift.c **** *   None
 278:Generated_Source\PSoC5/TransmitWordShift.c **** *
 279:Generated_Source\PSoC5/TransmitWordShift.c **** * Return:
 280:Generated_Source\PSoC5/TransmitWordShift.c **** *   Priority of the interrupt, 0 being the highest priority
 281:Generated_Source\PSoC5/TransmitWordShift.c **** *    PSoC 3 and PSoC 5LP: Priority is from 0 to 7.
 282:Generated_Source\PSoC5/TransmitWordShift.c **** *    PSoC 4: Priority is from 0 to 3.
 283:Generated_Source\PSoC5/TransmitWordShift.c **** *
 284:Generated_Source\PSoC5/TransmitWordShift.c **** *******************************************************************************/
 285:Generated_Source\PSoC5/TransmitWordShift.c **** uint8 TransmitWordShift_GetPriority(void)
 286:Generated_Source\PSoC5/TransmitWordShift.c **** {
 111              		.loc 1 286 0
 112              		.cfi_startproc
 113              		@ args = 0, pretend = 0, frame = 0
ARM GAS  C:\Users\EA527~1.IVA\AppData\Local\Temp\ccLnWAS2.s 			page 8


 114              		@ frame_needed = 0, uses_anonymous_args = 0
 115              		@ link register save eliminated.
 287:Generated_Source\PSoC5/TransmitWordShift.c ****     uint8 priority;
 288:Generated_Source\PSoC5/TransmitWordShift.c **** 
 289:Generated_Source\PSoC5/TransmitWordShift.c **** 
 290:Generated_Source\PSoC5/TransmitWordShift.c ****     priority = *TransmitWordShift_INTC_PRIOR >> 5;
 116              		.loc 1 290 0
 117 0000 014B     		ldr	r3, .L11
 118 0002 1878     		ldrb	r0, [r3]	@ zero_extendqisi2
 119              	.LVL5:
 291:Generated_Source\PSoC5/TransmitWordShift.c **** 
 292:Generated_Source\PSoC5/TransmitWordShift.c ****     return priority;
 293:Generated_Source\PSoC5/TransmitWordShift.c **** }
 120              		.loc 1 293 0
 121 0004 4009     		lsrs	r0, r0, #5
 122              	.LVL6:
 123 0006 7047     		bx	lr
 124              	.L12:
 125              		.align	2
 126              	.L11:
 127 0008 00E400E0 		.word	-536812544
 128              		.cfi_endproc
 129              	.LFE7:
 130              		.size	TransmitWordShift_GetPriority, .-TransmitWordShift_GetPriority
 131              		.section	.text.TransmitWordShift_Enable,"ax",%progbits
 132              		.align	2
 133              		.global	TransmitWordShift_Enable
 134              		.thumb
 135              		.thumb_func
 136              		.type	TransmitWordShift_Enable, %function
 137              	TransmitWordShift_Enable:
 138              	.LFB8:
 294:Generated_Source\PSoC5/TransmitWordShift.c **** 
 295:Generated_Source\PSoC5/TransmitWordShift.c **** 
 296:Generated_Source\PSoC5/TransmitWordShift.c **** /*******************************************************************************
 297:Generated_Source\PSoC5/TransmitWordShift.c **** * Function Name: TransmitWordShift_Enable
 298:Generated_Source\PSoC5/TransmitWordShift.c **** ********************************************************************************
 299:Generated_Source\PSoC5/TransmitWordShift.c **** *
 300:Generated_Source\PSoC5/TransmitWordShift.c **** * Summary:
 301:Generated_Source\PSoC5/TransmitWordShift.c **** *   Enables the interrupt to the interrupt controller. Do not call this function
 302:Generated_Source\PSoC5/TransmitWordShift.c **** *   unless ISR_Start() has been called or the functionality of the ISR_Start() 
 303:Generated_Source\PSoC5/TransmitWordShift.c **** *   function, which sets the vector and the priority, has been called.
 304:Generated_Source\PSoC5/TransmitWordShift.c **** *
 305:Generated_Source\PSoC5/TransmitWordShift.c **** * Parameters:
 306:Generated_Source\PSoC5/TransmitWordShift.c **** *   None
 307:Generated_Source\PSoC5/TransmitWordShift.c **** *
 308:Generated_Source\PSoC5/TransmitWordShift.c **** * Return:
 309:Generated_Source\PSoC5/TransmitWordShift.c **** *   None
 310:Generated_Source\PSoC5/TransmitWordShift.c **** *
 311:Generated_Source\PSoC5/TransmitWordShift.c **** *******************************************************************************/
 312:Generated_Source\PSoC5/TransmitWordShift.c **** void TransmitWordShift_Enable(void)
 313:Generated_Source\PSoC5/TransmitWordShift.c **** {
 139              		.loc 1 313 0
 140              		.cfi_startproc
 141              		@ args = 0, pretend = 0, frame = 0
 142              		@ frame_needed = 0, uses_anonymous_args = 0
 143              		@ link register save eliminated.
ARM GAS  C:\Users\EA527~1.IVA\AppData\Local\Temp\ccLnWAS2.s 			page 9


 314:Generated_Source\PSoC5/TransmitWordShift.c ****     /* Enable the general interrupt. */
 315:Generated_Source\PSoC5/TransmitWordShift.c ****     *TransmitWordShift_INTC_SET_EN = TransmitWordShift__INTC_MASK;
 144              		.loc 1 315 0
 145 0000 0122     		movs	r2, #1
 146 0002 014B     		ldr	r3, .L14
 147 0004 1A60     		str	r2, [r3]
 148 0006 7047     		bx	lr
 149              	.L15:
 150              		.align	2
 151              	.L14:
 152 0008 00E100E0 		.word	-536813312
 153              		.cfi_endproc
 154              	.LFE8:
 155              		.size	TransmitWordShift_Enable, .-TransmitWordShift_Enable
 156              		.section	.text.TransmitWordShift_GetState,"ax",%progbits
 157              		.align	2
 158              		.global	TransmitWordShift_GetState
 159              		.thumb
 160              		.thumb_func
 161              		.type	TransmitWordShift_GetState, %function
 162              	TransmitWordShift_GetState:
 163              	.LFB9:
 316:Generated_Source\PSoC5/TransmitWordShift.c **** }
 317:Generated_Source\PSoC5/TransmitWordShift.c **** 
 318:Generated_Source\PSoC5/TransmitWordShift.c **** 
 319:Generated_Source\PSoC5/TransmitWordShift.c **** /*******************************************************************************
 320:Generated_Source\PSoC5/TransmitWordShift.c **** * Function Name: TransmitWordShift_GetState
 321:Generated_Source\PSoC5/TransmitWordShift.c **** ********************************************************************************
 322:Generated_Source\PSoC5/TransmitWordShift.c **** *
 323:Generated_Source\PSoC5/TransmitWordShift.c **** * Summary:
 324:Generated_Source\PSoC5/TransmitWordShift.c **** *   Gets the state (enabled, disabled) of the Interrupt.
 325:Generated_Source\PSoC5/TransmitWordShift.c **** *
 326:Generated_Source\PSoC5/TransmitWordShift.c **** * Parameters:
 327:Generated_Source\PSoC5/TransmitWordShift.c **** *   None
 328:Generated_Source\PSoC5/TransmitWordShift.c **** *
 329:Generated_Source\PSoC5/TransmitWordShift.c **** * Return:
 330:Generated_Source\PSoC5/TransmitWordShift.c **** *   1 if enabled, 0 if disabled.
 331:Generated_Source\PSoC5/TransmitWordShift.c **** *
 332:Generated_Source\PSoC5/TransmitWordShift.c **** *******************************************************************************/
 333:Generated_Source\PSoC5/TransmitWordShift.c **** uint8 TransmitWordShift_GetState(void)
 334:Generated_Source\PSoC5/TransmitWordShift.c **** {
 164              		.loc 1 334 0
 165              		.cfi_startproc
 166              		@ args = 0, pretend = 0, frame = 0
 167              		@ frame_needed = 0, uses_anonymous_args = 0
 168              		@ link register save eliminated.
 335:Generated_Source\PSoC5/TransmitWordShift.c ****     /* Get the state of the general interrupt. */
 336:Generated_Source\PSoC5/TransmitWordShift.c ****     return ((*TransmitWordShift_INTC_SET_EN & (uint32)TransmitWordShift__INTC_MASK) != 0u) ? 1u:0u;
 169              		.loc 1 336 0
 170 0000 024B     		ldr	r3, .L17
 171 0002 1868     		ldr	r0, [r3]
 337:Generated_Source\PSoC5/TransmitWordShift.c **** }
 172              		.loc 1 337 0
 173 0004 00F00100 		and	r0, r0, #1
 174 0008 7047     		bx	lr
 175              	.L18:
 176 000a 00BF     		.align	2
ARM GAS  C:\Users\EA527~1.IVA\AppData\Local\Temp\ccLnWAS2.s 			page 10


 177              	.L17:
 178 000c 00E100E0 		.word	-536813312
 179              		.cfi_endproc
 180              	.LFE9:
 181              		.size	TransmitWordShift_GetState, .-TransmitWordShift_GetState
 182              		.section	.text.TransmitWordShift_Disable,"ax",%progbits
 183              		.align	2
 184              		.global	TransmitWordShift_Disable
 185              		.thumb
 186              		.thumb_func
 187              		.type	TransmitWordShift_Disable, %function
 188              	TransmitWordShift_Disable:
 189              	.LFB10:
 338:Generated_Source\PSoC5/TransmitWordShift.c **** 
 339:Generated_Source\PSoC5/TransmitWordShift.c **** 
 340:Generated_Source\PSoC5/TransmitWordShift.c **** /*******************************************************************************
 341:Generated_Source\PSoC5/TransmitWordShift.c **** * Function Name: TransmitWordShift_Disable
 342:Generated_Source\PSoC5/TransmitWordShift.c **** ********************************************************************************
 343:Generated_Source\PSoC5/TransmitWordShift.c **** *
 344:Generated_Source\PSoC5/TransmitWordShift.c **** * Summary:
 345:Generated_Source\PSoC5/TransmitWordShift.c **** *   Disables the Interrupt in the interrupt controller.
 346:Generated_Source\PSoC5/TransmitWordShift.c **** *
 347:Generated_Source\PSoC5/TransmitWordShift.c **** * Parameters:
 348:Generated_Source\PSoC5/TransmitWordShift.c **** *   None
 349:Generated_Source\PSoC5/TransmitWordShift.c **** *
 350:Generated_Source\PSoC5/TransmitWordShift.c **** * Return:
 351:Generated_Source\PSoC5/TransmitWordShift.c **** *   None
 352:Generated_Source\PSoC5/TransmitWordShift.c **** *
 353:Generated_Source\PSoC5/TransmitWordShift.c **** *******************************************************************************/
 354:Generated_Source\PSoC5/TransmitWordShift.c **** void TransmitWordShift_Disable(void)
 355:Generated_Source\PSoC5/TransmitWordShift.c **** {
 190              		.loc 1 355 0
 191              		.cfi_startproc
 192              		@ args = 0, pretend = 0, frame = 0
 193              		@ frame_needed = 0, uses_anonymous_args = 0
 194              		@ link register save eliminated.
 356:Generated_Source\PSoC5/TransmitWordShift.c ****     /* Disable the general interrupt. */
 357:Generated_Source\PSoC5/TransmitWordShift.c ****     *TransmitWordShift_INTC_CLR_EN = TransmitWordShift__INTC_MASK;
 195              		.loc 1 357 0
 196 0000 0122     		movs	r2, #1
 197 0002 014B     		ldr	r3, .L20
 198 0004 1A60     		str	r2, [r3]
 199 0006 7047     		bx	lr
 200              	.L21:
 201              		.align	2
 202              	.L20:
 203 0008 80E100E0 		.word	-536813184
 204              		.cfi_endproc
 205              	.LFE10:
 206              		.size	TransmitWordShift_Disable, .-TransmitWordShift_Disable
 207              		.section	.text.TransmitWordShift_Start,"ax",%progbits
 208              		.align	2
 209              		.global	TransmitWordShift_Start
 210              		.thumb
 211              		.thumb_func
 212              		.type	TransmitWordShift_Start, %function
 213              	TransmitWordShift_Start:
ARM GAS  C:\Users\EA527~1.IVA\AppData\Local\Temp\ccLnWAS2.s 			page 11


 214              	.LFB0:
  64:Generated_Source\PSoC5/TransmitWordShift.c ****     /* For all we know the interrupt is active. */
 215              		.loc 1 64 0
 216              		.cfi_startproc
 217              		@ args = 0, pretend = 0, frame = 0
 218              		@ frame_needed = 0, uses_anonymous_args = 0
 219 0000 08B5     		push	{r3, lr}
 220              		.cfi_def_cfa_offset 8
 221              		.cfi_offset 3, -8
 222              		.cfi_offset 14, -4
  66:Generated_Source\PSoC5/TransmitWordShift.c **** 
 223              		.loc 1 66 0
 224 0002 FFF7FEFF 		bl	TransmitWordShift_Disable
 225              	.LVL7:
  69:Generated_Source\PSoC5/TransmitWordShift.c **** 
 226              		.loc 1 69 0
 227 0006 0448     		ldr	r0, .L24
 228 0008 FFF7FEFF 		bl	TransmitWordShift_SetVector
 229              	.LVL8:
  72:Generated_Source\PSoC5/TransmitWordShift.c **** 
 230              		.loc 1 72 0
 231 000c 0620     		movs	r0, #6
 232 000e FFF7FEFF 		bl	TransmitWordShift_SetPriority
 233              	.LVL9:
  75:Generated_Source\PSoC5/TransmitWordShift.c **** }
 234              		.loc 1 75 0
 235 0012 FFF7FEFF 		bl	TransmitWordShift_Enable
 236              	.LVL10:
 237 0016 08BD     		pop	{r3, pc}
 238              	.L25:
 239              		.align	2
 240              	.L24:
 241 0018 00000000 		.word	TransmitWordShift_Interrupt
 242              		.cfi_endproc
 243              	.LFE0:
 244              		.size	TransmitWordShift_Start, .-TransmitWordShift_Start
 245              		.section	.text.TransmitWordShift_StartEx,"ax",%progbits
 246              		.align	2
 247              		.global	TransmitWordShift_StartEx
 248              		.thumb
 249              		.thumb_func
 250              		.type	TransmitWordShift_StartEx, %function
 251              	TransmitWordShift_StartEx:
 252              	.LFB1:
 107:Generated_Source\PSoC5/TransmitWordShift.c ****     /* For all we know the interrupt is active. */
 253              		.loc 1 107 0
 254              		.cfi_startproc
 255              		@ args = 0, pretend = 0, frame = 0
 256              		@ frame_needed = 0, uses_anonymous_args = 0
 257              	.LVL11:
 258 0000 10B5     		push	{r4, lr}
 259              		.cfi_def_cfa_offset 8
 260              		.cfi_offset 4, -8
 261              		.cfi_offset 14, -4
 262 0002 0446     		mov	r4, r0
 109:Generated_Source\PSoC5/TransmitWordShift.c **** 
 263              		.loc 1 109 0
ARM GAS  C:\Users\EA527~1.IVA\AppData\Local\Temp\ccLnWAS2.s 			page 12


 264 0004 FFF7FEFF 		bl	TransmitWordShift_Disable
 265              	.LVL12:
 112:Generated_Source\PSoC5/TransmitWordShift.c **** 
 266              		.loc 1 112 0
 267 0008 2046     		mov	r0, r4
 268 000a FFF7FEFF 		bl	TransmitWordShift_SetVector
 269              	.LVL13:
 115:Generated_Source\PSoC5/TransmitWordShift.c **** 
 270              		.loc 1 115 0
 271 000e 0620     		movs	r0, #6
 272 0010 FFF7FEFF 		bl	TransmitWordShift_SetPriority
 273              	.LVL14:
 118:Generated_Source\PSoC5/TransmitWordShift.c **** }
 274              		.loc 1 118 0
 275 0014 FFF7FEFF 		bl	TransmitWordShift_Enable
 276              	.LVL15:
 277 0018 10BD     		pop	{r4, pc}
 278              		.cfi_endproc
 279              	.LFE1:
 280              		.size	TransmitWordShift_StartEx, .-TransmitWordShift_StartEx
 281 001a 00BF     		.section	.text.TransmitWordShift_Stop,"ax",%progbits
 282              		.align	2
 283              		.global	TransmitWordShift_Stop
 284              		.thumb
 285              		.thumb_func
 286              		.type	TransmitWordShift_Stop, %function
 287              	TransmitWordShift_Stop:
 288              	.LFB2:
 137:Generated_Source\PSoC5/TransmitWordShift.c ****     /* Disable this interrupt. */
 289              		.loc 1 137 0
 290              		.cfi_startproc
 291              		@ args = 0, pretend = 0, frame = 0
 292              		@ frame_needed = 0, uses_anonymous_args = 0
 293 0000 08B5     		push	{r3, lr}
 294              		.cfi_def_cfa_offset 8
 295              		.cfi_offset 3, -8
 296              		.cfi_offset 14, -4
 139:Generated_Source\PSoC5/TransmitWordShift.c **** 
 297              		.loc 1 139 0
 298 0002 FFF7FEFF 		bl	TransmitWordShift_Disable
 299              	.LVL16:
 142:Generated_Source\PSoC5/TransmitWordShift.c **** }
 300              		.loc 1 142 0
 301 0006 0248     		ldr	r0, .L30
 302 0008 FFF7FEFF 		bl	TransmitWordShift_SetVector
 303              	.LVL17:
 304 000c 08BD     		pop	{r3, pc}
 305              	.L31:
 306 000e 00BF     		.align	2
 307              	.L30:
 308 0010 00000000 		.word	IntDefaultHandler
 309              		.cfi_endproc
 310              	.LFE2:
 311              		.size	TransmitWordShift_Stop, .-TransmitWordShift_Stop
 312              		.section	.text.TransmitWordShift_SetPending,"ax",%progbits
 313              		.align	2
 314              		.global	TransmitWordShift_SetPending
ARM GAS  C:\Users\EA527~1.IVA\AppData\Local\Temp\ccLnWAS2.s 			page 13


 315              		.thumb
 316              		.thumb_func
 317              		.type	TransmitWordShift_SetPending, %function
 318              	TransmitWordShift_SetPending:
 319              	.LFB11:
 358:Generated_Source\PSoC5/TransmitWordShift.c **** }
 359:Generated_Source\PSoC5/TransmitWordShift.c **** 
 360:Generated_Source\PSoC5/TransmitWordShift.c **** 
 361:Generated_Source\PSoC5/TransmitWordShift.c **** /*******************************************************************************
 362:Generated_Source\PSoC5/TransmitWordShift.c **** * Function Name: TransmitWordShift_SetPending
 363:Generated_Source\PSoC5/TransmitWordShift.c **** ********************************************************************************
 364:Generated_Source\PSoC5/TransmitWordShift.c **** *
 365:Generated_Source\PSoC5/TransmitWordShift.c **** * Summary:
 366:Generated_Source\PSoC5/TransmitWordShift.c **** *   Causes the Interrupt to enter the pending state, a software method of
 367:Generated_Source\PSoC5/TransmitWordShift.c **** *   generating the interrupt.
 368:Generated_Source\PSoC5/TransmitWordShift.c **** *
 369:Generated_Source\PSoC5/TransmitWordShift.c **** * Parameters:
 370:Generated_Source\PSoC5/TransmitWordShift.c **** *   None
 371:Generated_Source\PSoC5/TransmitWordShift.c **** *
 372:Generated_Source\PSoC5/TransmitWordShift.c **** * Return:
 373:Generated_Source\PSoC5/TransmitWordShift.c **** *   None
 374:Generated_Source\PSoC5/TransmitWordShift.c **** *
 375:Generated_Source\PSoC5/TransmitWordShift.c **** * Side Effects:
 376:Generated_Source\PSoC5/TransmitWordShift.c **** *   If interrupts are enabled and the interrupt is set up properly, the ISR is
 377:Generated_Source\PSoC5/TransmitWordShift.c **** *   entered (depending on the priority of this interrupt and other pending 
 378:Generated_Source\PSoC5/TransmitWordShift.c **** *   interrupts).
 379:Generated_Source\PSoC5/TransmitWordShift.c **** *
 380:Generated_Source\PSoC5/TransmitWordShift.c **** *******************************************************************************/
 381:Generated_Source\PSoC5/TransmitWordShift.c **** void TransmitWordShift_SetPending(void)
 382:Generated_Source\PSoC5/TransmitWordShift.c **** {
 320              		.loc 1 382 0
 321              		.cfi_startproc
 322              		@ args = 0, pretend = 0, frame = 0
 323              		@ frame_needed = 0, uses_anonymous_args = 0
 324              		@ link register save eliminated.
 383:Generated_Source\PSoC5/TransmitWordShift.c ****     *TransmitWordShift_INTC_SET_PD = TransmitWordShift__INTC_MASK;
 325              		.loc 1 383 0
 326 0000 0122     		movs	r2, #1
 327 0002 014B     		ldr	r3, .L33
 328 0004 1A60     		str	r2, [r3]
 329 0006 7047     		bx	lr
 330              	.L34:
 331              		.align	2
 332              	.L33:
 333 0008 00E200E0 		.word	-536813056
 334              		.cfi_endproc
 335              	.LFE11:
 336              		.size	TransmitWordShift_SetPending, .-TransmitWordShift_SetPending
 337              		.section	.text.TransmitWordShift_ClearPending,"ax",%progbits
 338              		.align	2
 339              		.global	TransmitWordShift_ClearPending
 340              		.thumb
 341              		.thumb_func
 342              		.type	TransmitWordShift_ClearPending, %function
 343              	TransmitWordShift_ClearPending:
 344              	.LFB12:
 384:Generated_Source\PSoC5/TransmitWordShift.c **** }
ARM GAS  C:\Users\EA527~1.IVA\AppData\Local\Temp\ccLnWAS2.s 			page 14


 385:Generated_Source\PSoC5/TransmitWordShift.c **** 
 386:Generated_Source\PSoC5/TransmitWordShift.c **** 
 387:Generated_Source\PSoC5/TransmitWordShift.c **** /*******************************************************************************
 388:Generated_Source\PSoC5/TransmitWordShift.c **** * Function Name: TransmitWordShift_ClearPending
 389:Generated_Source\PSoC5/TransmitWordShift.c **** ********************************************************************************
 390:Generated_Source\PSoC5/TransmitWordShift.c **** *
 391:Generated_Source\PSoC5/TransmitWordShift.c **** * Summary:
 392:Generated_Source\PSoC5/TransmitWordShift.c **** *   Clears a pending interrupt in the interrupt controller.
 393:Generated_Source\PSoC5/TransmitWordShift.c **** *
 394:Generated_Source\PSoC5/TransmitWordShift.c **** *   Note Some interrupt sources are clear-on-read and require the block 
 395:Generated_Source\PSoC5/TransmitWordShift.c **** *   interrupt/status register to be read/cleared with the appropriate block API 
 396:Generated_Source\PSoC5/TransmitWordShift.c **** *   (GPIO, UART, and so on). Otherwise the ISR will continue to remain in 
 397:Generated_Source\PSoC5/TransmitWordShift.c **** *   pending state even though the interrupt itself is cleared using this API.
 398:Generated_Source\PSoC5/TransmitWordShift.c **** *
 399:Generated_Source\PSoC5/TransmitWordShift.c **** * Parameters:
 400:Generated_Source\PSoC5/TransmitWordShift.c **** *   None
 401:Generated_Source\PSoC5/TransmitWordShift.c **** *
 402:Generated_Source\PSoC5/TransmitWordShift.c **** * Return:
 403:Generated_Source\PSoC5/TransmitWordShift.c **** *   None
 404:Generated_Source\PSoC5/TransmitWordShift.c **** *
 405:Generated_Source\PSoC5/TransmitWordShift.c **** *******************************************************************************/
 406:Generated_Source\PSoC5/TransmitWordShift.c **** void TransmitWordShift_ClearPending(void)
 407:Generated_Source\PSoC5/TransmitWordShift.c **** {
 345              		.loc 1 407 0
 346              		.cfi_startproc
 347              		@ args = 0, pretend = 0, frame = 0
 348              		@ frame_needed = 0, uses_anonymous_args = 0
 349              		@ link register save eliminated.
 408:Generated_Source\PSoC5/TransmitWordShift.c ****     *TransmitWordShift_INTC_CLR_PD = TransmitWordShift__INTC_MASK;
 350              		.loc 1 408 0
 351 0000 0122     		movs	r2, #1
 352 0002 014B     		ldr	r3, .L36
 353 0004 1A60     		str	r2, [r3]
 354 0006 7047     		bx	lr
 355              	.L37:
 356              		.align	2
 357              	.L36:
 358 0008 80E200E0 		.word	-536812928
 359              		.cfi_endproc
 360              	.LFE12:
 361              		.size	TransmitWordShift_ClearPending, .-TransmitWordShift_ClearPending
 362              		.section	.text.TransmitWordShift_Interrupt,"ax",%progbits
 363              		.align	2
 364              		.global	TransmitWordShift_Interrupt
 365              		.thumb
 366              		.thumb_func
 367              		.type	TransmitWordShift_Interrupt, %function
 368              	TransmitWordShift_Interrupt:
 369              	.LFB3:
 163:Generated_Source\PSoC5/TransmitWordShift.c ****     #ifdef TransmitWordShift_INTERRUPT_INTERRUPT_CALLBACK
 370              		.loc 1 163 0
 371              		.cfi_startproc
 372              		@ args = 0, pretend = 0, frame = 0
 373              		@ frame_needed = 0, uses_anonymous_args = 0
 374 0000 08B5     		push	{r3, lr}
 375              		.cfi_def_cfa_offset 8
 376              		.cfi_offset 3, -8
ARM GAS  C:\Users\EA527~1.IVA\AppData\Local\Temp\ccLnWAS2.s 			page 15


 377              		.cfi_offset 14, -4
 170:Generated_Source\PSoC5/TransmitWordShift.c ****         BitCounterEnc_ReadStatusRegister();
 378              		.loc 1 170 0
 379 0002 FFF7FEFF 		bl	ClearStatus
 380              	.LVL18:
 171:Generated_Source\PSoC5/TransmitWordShift.c ****         TransmitWordShift_ClearPending();
 381              		.loc 1 171 0
 382 0006 FFF7FEFF 		bl	BitCounterEnc_ReadStatusRegister
 383              	.LVL19:
 172:Generated_Source\PSoC5/TransmitWordShift.c ****         TransmitWordShift_Disable();
 384              		.loc 1 172 0
 385 000a FFF7FEFF 		bl	TransmitWordShift_ClearPending
 386              	.LVL20:
 173:Generated_Source\PSoC5/TransmitWordShift.c ****     /* `#END` */
 387              		.loc 1 173 0
 388 000e FFF7FEFF 		bl	TransmitWordShift_Disable
 389              	.LVL21:
 390 0012 08BD     		pop	{r3, pc}
 391              		.cfi_endproc
 392              	.LFE3:
 393              		.size	TransmitWordShift_Interrupt, .-TransmitWordShift_Interrupt
 394              		.text
 395              	.Letext0:
 396              		.file 2 "Generated_Source\\PSoC5/cytypes.h"
 397              		.file 3 "./sender.h"
 398              		.file 4 "Generated_Source\\PSoC5/BitCounterEnc.h"