ARM GAS  C:\Users\EA527~1.IVA\AppData\Local\Temp\cczDX8Wa.s 			page 1


   1              		.syntax unified
   2              		.cpu cortex-m3
   3              		.fpu softvfp
   4              		.eabi_attribute 20, 1
   5              		.eabi_attribute 21, 1
   6              		.eabi_attribute 23, 3
   7              		.eabi_attribute 24, 1
   8              		.eabi_attribute 25, 1
   9              		.eabi_attribute 26, 1
  10              		.eabi_attribute 30, 1
  11              		.eabi_attribute 34, 1
  12              		.eabi_attribute 18, 4
  13              		.thumb
  14              		.syntax unified
  15              		.file	"USB_UART_cdc.c"
  16              		.text
  17              	.Ltext0:
  18              		.cfi_sections	.debug_frame
  19              		.section	.text.USBUARTInitCDC,"ax",%progbits
  20              		.align	2
  21              		.global	USBUARTInitCDC
  22              		.thumb
  23              		.thumb_func
  24              		.type	USBUARTInitCDC, %function
  25              	USBUARTInitCDC:
  26              	.LFB64:
  27              		.file 1 "USB_UART_cdc.c"
   1:USB_UART_cdc.c **** /* ========================================
   2:USB_UART_cdc.c ****  *
   3:USB_UART_cdc.c ****  * Copyright YOUR COMPANY, THE YEAR
   4:USB_UART_cdc.c ****  * All Rights Reserved
   5:USB_UART_cdc.c ****  * UNPUBLISHED, LICENSED SOFTWARE.
   6:USB_UART_cdc.c ****  *
   7:USB_UART_cdc.c ****  * CONFIDENTIAL AND PROPRIETARY INFORMATION
   8:USB_UART_cdc.c ****  * WHICH IS THE PROPERTY OF your company.
   9:USB_UART_cdc.c ****  *
  10:USB_UART_cdc.c ****  * ========================================
  11:USB_UART_cdc.c **** */
  12:USB_UART_cdc.c **** #include "global.h"
  13:USB_UART_cdc.c **** #include "Agg_sent.h"
  14:USB_UART_cdc.c **** #include "USB_UART_cdc.h"
  15:USB_UART_cdc.c **** #include "string.h"
  16:USB_UART_cdc.c **** #include "stdio.h"
  17:USB_UART_cdc.c **** 
  18:USB_UART_cdc.c **** uint8 welcome_massage[] = {"Text you command: "};
  19:USB_UART_cdc.c **** uint16 count, count2;
  20:USB_UART_cdc.c **** uint8 buffer[USBUART_BUFFER_SIZE];
  21:USB_UART_cdc.c **** uint8 buffer2[USBUART_BUFFER_SIZE];
  22:USB_UART_cdc.c **** uint8* token_buffer2 = buffer2;
  23:USB_UART_cdc.c **** 
  24:USB_UART_cdc.c **** void USBUARTInitCDC(void){
  28              		.loc 1 24 0
  29              		.cfi_startproc
  30              		@ args = 0, pretend = 0, frame = 0
  31              		@ frame_needed = 0, uses_anonymous_args = 0
  32 0000 08B5     		push	{r3, lr}
  33              		.cfi_def_cfa_offset 8
ARM GAS  C:\Users\EA527~1.IVA\AppData\Local\Temp\cczDX8Wa.s 			page 2


  34              		.cfi_offset 3, -8
  35              		.cfi_offset 14, -4
  25:USB_UART_cdc.c ****         /* Host can send double SET_INTERFACE request. */
  26:USB_UART_cdc.c ****         if (0u != USBUART_IsConfigurationChanged())
  36              		.loc 1 26 0
  37 0002 FFF7FEFF 		bl	USBUART_IsConfigurationChanged
  38              	.LVL0:
  39 0006 20B1     		cbz	r0, .L1
  27:USB_UART_cdc.c ****         {
  28:USB_UART_cdc.c ****             /* Initialize IN endpoints when device is configured. */
  29:USB_UART_cdc.c ****             if (0u != USBUART_GetConfiguration())
  40              		.loc 1 29 0
  41 0008 FFF7FEFF 		bl	USBUART_GetConfiguration
  42              	.LVL1:
  43 000c 08B1     		cbz	r0, .L1
  30:USB_UART_cdc.c ****             {
  31:USB_UART_cdc.c ****                 /* Enumeration is done, enable OUT endpoint to receive data 
  32:USB_UART_cdc.c ****                  * from host. */
  33:USB_UART_cdc.c ****                 USBUART_CDC_Init();
  44              		.loc 1 33 0
  45 000e FFF7FEFF 		bl	USBUART_CDC_Init
  46              	.LVL2:
  47              	.L1:
  48 0012 08BD     		pop	{r3, pc}
  49              		.cfi_endproc
  50              	.LFE64:
  51              		.size	USBUARTInitCDC, .-USBUARTInitCDC
  52              		.section	.text.Service_USB,"ax",%progbits
  53              		.align	2
  54              		.global	Service_USB
  55              		.thumb
  56              		.thumb_func
  57              		.type	Service_USB, %function
  58              	Service_USB:
  59              	.LFB65:
  34:USB_UART_cdc.c ****                 
  35:USB_UART_cdc.c ****             }
  36:USB_UART_cdc.c ****         }
  37:USB_UART_cdc.c **** }
  38:USB_UART_cdc.c **** 
  39:USB_UART_cdc.c **** void Service_USB(void){
  60              		.loc 1 39 0
  61              		.cfi_startproc
  62              		@ args = 0, pretend = 0, frame = 0
  63              		@ frame_needed = 0, uses_anonymous_args = 0
  64 0000 10B5     		push	{r4, lr}
  65              		.cfi_def_cfa_offset 8
  66              		.cfi_offset 4, -8
  67              		.cfi_offset 14, -4
  40:USB_UART_cdc.c ****     if (0u != USBUART_GetConfiguration())
  68              		.loc 1 40 0
  69 0002 FFF7FEFF 		bl	USBUART_GetConfiguration
  70              	.LVL3:
  71 0006 38B3     		cbz	r0, .L4
  41:USB_UART_cdc.c ****         {
  42:USB_UART_cdc.c ****            
  43:USB_UART_cdc.c ****             /* Check for input data from host. */
ARM GAS  C:\Users\EA527~1.IVA\AppData\Local\Temp\cczDX8Wa.s 			page 3


  44:USB_UART_cdc.c ****             if (0u != USBUART_DataIsReady())
  72              		.loc 1 44 0
  73 0008 FFF7FEFF 		bl	USBUART_DataIsReady
  74              	.LVL4:
  75 000c 20B3     		cbz	r0, .L4
  76              	.LVL5:
  77              	.LBB2:
  45:USB_UART_cdc.c ****             {
  46:USB_UART_cdc.c ****                 uint8 tmp = 0;
  47:USB_UART_cdc.c ****                 /* Read received data and re-enable OUT endpoint. */
  48:USB_UART_cdc.c ****                 count = USBUART_GetAll(buffer);
  78              		.loc 1 48 0
  79 000e 1348     		ldr	r0, .L11
  80 0010 FFF7FEFF 		bl	USBUART_GetAll
  81              	.LVL6:
  82 0014 124B     		ldr	r3, .L11+4
  83 0016 1880     		strh	r0, [r3]	@ movhi
  46:USB_UART_cdc.c ****                 /* Read received data and re-enable OUT endpoint. */
  84              		.loc 1 46 0
  85 0018 0021     		movs	r1, #0
  49:USB_UART_cdc.c ****                 
  50:USB_UART_cdc.c ****                 while (count--)
  86              		.loc 1 50 0
  87 001a 17E0     		b	.L6
  88              	.LVL7:
  89              	.L9:
  51:USB_UART_cdc.c ****                 {
  52:USB_UART_cdc.c ****                     if(0 != InsertByte(&usb_context.primary_buf, buffer[tmp++])){ 
  90              		.loc 1 52 0
  91 001c 4C1C     		adds	r4, r1, #1
  92 001e E4B2     		uxtb	r4, r4
  93              	.LVL8:
  94 0020 0E4B     		ldr	r3, .L11
  95 0022 595C     		ldrb	r1, [r3, r1]	@ zero_extendqisi2
  96 0024 0F48     		ldr	r0, .L11+8
  97 0026 FFF7FEFF 		bl	InsertByte
  98              	.LVL9:
  99 002a 70B1     		cbz	r0, .L7
  53:USB_UART_cdc.c ****                         if(1 == agg_sent(&usb_context)) usb_context.sentence_ready=1;
 100              		.loc 1 53 0
 101 002c 0D48     		ldr	r0, .L11+8
 102 002e FFF7FEFF 		bl	agg_sent
 103              	.LVL10:
 104 0032 0128     		cmp	r0, #1
 105 0034 03D1     		bne	.L8
 106              		.loc 1 53 0 is_stmt 0 discriminator 1
 107 0036 0122     		movs	r2, #1
 108 0038 0A4B     		ldr	r3, .L11+8
 109 003a 83F84A21 		strb	r2, [r3, #330]
 110              	.L8:
  54:USB_UART_cdc.c ****                         InsertByte(&usb_context.primary_buf, buffer[tmp-1]);
 111              		.loc 1 54 0 is_stmt 1
 112 003e 631E     		subs	r3, r4, #1
 113 0040 064A     		ldr	r2, .L11
 114 0042 D15C     		ldrb	r1, [r2, r3]	@ zero_extendqisi2
 115 0044 0748     		ldr	r0, .L11+8
 116 0046 FFF7FEFF 		bl	InsertByte
ARM GAS  C:\Users\EA527~1.IVA\AppData\Local\Temp\cczDX8Wa.s 			page 4


 117              	.LVL11:
 118              	.L7:
 119              	.LBE2:
  39:USB_UART_cdc.c ****     if (0u != USBUART_GetConfiguration())
 120              		.loc 1 39 0
 121 004a 2146     		mov	r1, r4
 122              	.LVL12:
 123              	.L6:
 124              	.LBB3:
  50:USB_UART_cdc.c ****                 {
 125              		.loc 1 50 0
 126 004c 044A     		ldr	r2, .L11+4
 127 004e 1388     		ldrh	r3, [r2]
 128 0050 581E     		subs	r0, r3, #1
 129 0052 1080     		strh	r0, [r2]	@ movhi
 130 0054 002B     		cmp	r3, #0
 131 0056 E1D1     		bne	.L9
 132              	.LVL13:
 133              	.L4:
 134 0058 10BD     		pop	{r4, pc}
 135              	.L12:
 136 005a 00BF     		.align	2
 137              	.L11:
 138 005c 00000000 		.word	buffer
 139 0060 00000000 		.word	count
 140 0064 00000000 		.word	usb_context
 141              	.LBE3:
 142              		.cfi_endproc
 143              	.LFE65:
 144              		.size	Service_USB, .-Service_USB
 145              		.section	.text.Send_USB,"ax",%progbits
 146              		.align	2
 147              		.global	Send_USB
 148              		.thumb
 149              		.thumb_func
 150              		.type	Send_USB, %function
 151              	Send_USB:
 152              	.LFB66:
  55:USB_UART_cdc.c ****                     }
  56:USB_UART_cdc.c ****                 }
  57:USB_UART_cdc.c ****             }
  58:USB_UART_cdc.c ****         }
  59:USB_UART_cdc.c **** }
  60:USB_UART_cdc.c **** #if 1
  61:USB_UART_cdc.c **** void Send_USB(){
 153              		.loc 1 61 0
 154              		.cfi_startproc
 155              		@ args = 0, pretend = 0, frame = 0
 156              		@ frame_needed = 0, uses_anonymous_args = 0
  62:USB_UART_cdc.c ****     if(usb_context.need_to_send==0)return;
 157              		.loc 1 62 0
 158 0000 174B     		ldr	r3, .L19
 159 0002 93F85031 		ldrb	r3, [r3, #336]	@ zero_extendqisi2
 160 0006 4BB3     		cbz	r3, .L18
  61:USB_UART_cdc.c ****     if(usb_context.need_to_send==0)return;
 161              		.loc 1 61 0
 162 0008 10B5     		push	{r4, lr}
ARM GAS  C:\Users\EA527~1.IVA\AppData\Local\Temp\cczDX8Wa.s 			page 5


 163              		.cfi_def_cfa_offset 8
 164              		.cfi_offset 4, -8
 165              		.cfi_offset 14, -4
  63:USB_UART_cdc.c ****     /* Wait until component is ready to send data to host. */
  64:USB_UART_cdc.c ****     if(0u != USBUART_CDCIsReady())
 166              		.loc 1 64 0
 167 000a FFF7FEFF 		bl	USBUART_CDCIsReady
 168              	.LVL14:
 169 000e 20B3     		cbz	r0, .L13
  65:USB_UART_cdc.c ****     {
  66:USB_UART_cdc.c ****     /* If the last sent packet is exactly the maximum packet 
  67:USB_UART_cdc.c ****     *  size, it is followed by a zero-length packet to assure
  68:USB_UART_cdc.c ****     *  that the end of the segment is properly identified by 
  69:USB_UART_cdc.c ****     *  the terminal.
  70:USB_UART_cdc.c ****     */
  71:USB_UART_cdc.c ****  
  72:USB_UART_cdc.c ****         if(usb_context.count_to_send==0){ 
 170              		.loc 1 72 0
 171 0010 134B     		ldr	r3, .L19
 172 0012 B3F85211 		ldrh	r1, [r3, #338]
 173 0016 39B9     		cbnz	r1, .L15
  73:USB_UART_cdc.c ****             USBUART_PutData(NULL, 0u);
 174              		.loc 1 73 0
 175 0018 0846     		mov	r0, r1
 176 001a FFF7FEFF 		bl	USBUART_PutData
 177              	.LVL15:
  74:USB_UART_cdc.c ****             usb_context.need_to_send =0;
 178              		.loc 1 74 0
 179 001e 0022     		movs	r2, #0
 180 0020 0F4B     		ldr	r3, .L19
 181 0022 83F85021 		strb	r2, [r3, #336]
 182 0026 10BD     		pop	{r4, pc}
 183              	.L15:
  75:USB_UART_cdc.c ****         }else{
  76:USB_UART_cdc.c ****             if(usb_context.count_to_send < USBUART_BUFFER_SIZE){/* Send data back to host. */
 184              		.loc 1 76 0
 185 0028 3F29     		cmp	r1, #63
 186 002a 08D8     		bhi	.L16
  77:USB_UART_cdc.c ****                 USBUART_PutData(usb_context.message_to_send,usb_context.count_to_send);
 187              		.loc 1 77 0
 188 002c 0C4C     		ldr	r4, .L19
 189 002e D4F84C01 		ldr	r0, [r4, #332]
 190 0032 FFF7FEFF 		bl	USBUART_PutData
 191              	.LVL16:
  78:USB_UART_cdc.c ****                 usb_context.need_to_send =0;
 192              		.loc 1 78 0
 193 0036 0023     		movs	r3, #0
 194 0038 84F85031 		strb	r3, [r4, #336]
 195 003c 10BD     		pop	{r4, pc}
 196              	.L16:
  79:USB_UART_cdc.c ****             }else{
  80:USB_UART_cdc.c ****                 usb_context.count_to_send -= USBUART_BUFFER_SIZE;/* Send data back to host. */
 197              		.loc 1 80 0
 198 003e 084C     		ldr	r4, .L19
 199 0040 4039     		subs	r1, r1, #64
 200 0042 A4F85211 		strh	r1, [r4, #338]	@ movhi
  81:USB_UART_cdc.c ****                 USBUART_PutData(usb_context.message_to_send,USBUART_BUFFER_SIZE);
ARM GAS  C:\Users\EA527~1.IVA\AppData\Local\Temp\cczDX8Wa.s 			page 6


 201              		.loc 1 81 0
 202 0046 4021     		movs	r1, #64
 203 0048 D4F84C01 		ldr	r0, [r4, #332]
 204 004c FFF7FEFF 		bl	USBUART_PutData
 205              	.LVL17:
  82:USB_UART_cdc.c ****                 usb_context.message_to_send += USBUART_BUFFER_SIZE;
 206              		.loc 1 82 0
 207 0050 D4F84C31 		ldr	r3, [r4, #332]
 208 0054 4033     		adds	r3, r3, #64
 209 0056 C4F84C31 		str	r3, [r4, #332]
 210              	.L13:
 211 005a 10BD     		pop	{r4, pc}
 212              	.L18:
 213              		.cfi_def_cfa_offset 0
 214              		.cfi_restore 4
 215              		.cfi_restore 14
 216 005c 7047     		bx	lr
 217              	.L20:
 218 005e 00BF     		.align	2
 219              	.L19:
 220 0060 00000000 		.word	usb_context
 221              		.cfi_endproc
 222              	.LFE66:
 223              		.size	Send_USB, .-Send_USB
 224              		.global	token_buffer2
 225              		.comm	buffer2,64,4
 226              		.comm	buffer,64,4
 227              		.comm	count2,2,2
 228              		.comm	count,2,2
 229              		.global	welcome_massage
 230              		.data
 231              		.align	2
 232              		.type	token_buffer2, %object
 233              		.size	token_buffer2, 4
 234              	token_buffer2:
 235 0000 00000000 		.word	buffer2
 236              		.type	welcome_massage, %object
 237              		.size	welcome_massage, 19
 238              	welcome_massage:
 239 0004 54657874 		.ascii	"Text you command: \000"
 239      20796F75 
 239      20636F6D 
 239      6D616E64 
 239      3A2000
 240              		.text
 241              	.Letext0:
 242              		.file 2 "c:\\program files (x86)\\cypress\\psoc creator\\4.2\\psoc creator\\import\\gnu\\arm\\5.4.
 243              		.file 3 "c:\\program files (x86)\\cypress\\psoc creator\\4.2\\psoc creator\\import\\gnu\\arm\\5.4.
 244              		.file 4 "Generated_Source\\PSoC5/cytypes.h"
 245              		.file 5 "global.h"
 246              		.file 6 "Generated_Source\\PSoC5/core_cm3.h"
 247              		.file 7 "Generated_Source\\PSoC5/USBUART.h"
 248              		.file 8 "Generated_Source\\PSoC5/USBUART_cdc.h"
 249              		.file 9 "Agg_sent.h"