ARM GAS  C:\Users\EA527~1.IVA\AppData\Local\Temp\ccVzyjha.s 			page 1


   1              		.syntax unified
   2              		.cpu cortex-m3
   3              		.fpu softvfp
   4              		.eabi_attribute 20, 1
   5              		.eabi_attribute 21, 1
   6              		.eabi_attribute 23, 3
   7              		.eabi_attribute 24, 1
   8              		.eabi_attribute 25, 1
   9              		.eabi_attribute 26, 1
  10              		.eabi_attribute 30, 1
  11              		.eabi_attribute 34, 1
  12              		.eabi_attribute 18, 4
  13              		.thumb
  14              		.syntax unified
  15              		.file	"USBUART_hid.c"
  16              		.text
  17              	.Ltext0:
  18              		.cfi_sections	.debug_frame
  19              		.section	.text.USBUART_UpdateHIDTimer,"ax",%progbits
  20              		.align	2
  21              		.global	USBUART_UpdateHIDTimer
  22              		.thumb
  23              		.thumb_func
  24              		.type	USBUART_UpdateHIDTimer, %function
  25              	USBUART_UpdateHIDTimer:
  26              	.LFB0:
  27              		.file 1 "Generated_Source\\PSoC5\\USBUART_hid.c"
   1:Generated_Source\PSoC5/USBUART_hid.c **** /***************************************************************************//**
   2:Generated_Source\PSoC5/USBUART_hid.c **** * \file USBUART_hid.c
   3:Generated_Source\PSoC5/USBUART_hid.c **** * \version 3.10
   4:Generated_Source\PSoC5/USBUART_hid.c **** *
   5:Generated_Source\PSoC5/USBUART_hid.c **** * \brief
   6:Generated_Source\PSoC5/USBUART_hid.c **** *  This file contains the USB HID Class request handler. 
   7:Generated_Source\PSoC5/USBUART_hid.c **** *
   8:Generated_Source\PSoC5/USBUART_hid.c **** * Related Document:
   9:Generated_Source\PSoC5/USBUART_hid.c **** *  Device Class Definition for Human Interface Devices (HID) Version 1.11
  10:Generated_Source\PSoC5/USBUART_hid.c **** *
  11:Generated_Source\PSoC5/USBUART_hid.c **** ********************************************************************************
  12:Generated_Source\PSoC5/USBUART_hid.c **** * \copyright
  13:Generated_Source\PSoC5/USBUART_hid.c **** * Copyright 2008-2016, Cypress Semiconductor Corporation.  All rights reserved.
  14:Generated_Source\PSoC5/USBUART_hid.c **** * You may use this file only in accordance with the license, terms, conditions,
  15:Generated_Source\PSoC5/USBUART_hid.c **** * disclaimers, and limitations in the end user license agreement accompanying
  16:Generated_Source\PSoC5/USBUART_hid.c **** * the software package with which this file was provided.
  17:Generated_Source\PSoC5/USBUART_hid.c **** *******************************************************************************/
  18:Generated_Source\PSoC5/USBUART_hid.c **** 
  19:Generated_Source\PSoC5/USBUART_hid.c **** #include "USBUART_hid.h"
  20:Generated_Source\PSoC5/USBUART_hid.c **** #include "USBUART_pvt.h"
  21:Generated_Source\PSoC5/USBUART_hid.c **** #include "cyapicallbacks.h"
  22:Generated_Source\PSoC5/USBUART_hid.c **** 
  23:Generated_Source\PSoC5/USBUART_hid.c **** 
  24:Generated_Source\PSoC5/USBUART_hid.c **** #if defined(USBUART_ENABLE_HID_CLASS)
  25:Generated_Source\PSoC5/USBUART_hid.c **** 
  26:Generated_Source\PSoC5/USBUART_hid.c **** /***************************************
  27:Generated_Source\PSoC5/USBUART_hid.c **** *    HID Variables
  28:Generated_Source\PSoC5/USBUART_hid.c **** ***************************************/
  29:Generated_Source\PSoC5/USBUART_hid.c **** /** This variable is initialized in the USBFS_InitComponent() API to the 
  30:Generated_Source\PSoC5/USBUART_hid.c ****  * PROTOCOL_REPORT value. It is controlled by the host using the 
ARM GAS  C:\Users\EA527~1.IVA\AppData\Local\Temp\ccVzyjha.s 			page 2


  31:Generated_Source\PSoC5/USBUART_hid.c ****  * HID_SET_PROTOCOL request. The value is returned to the user code by the 
  32:Generated_Source\PSoC5/USBUART_hid.c ****  * USBFS_GetProtocol() API.*/
  33:Generated_Source\PSoC5/USBUART_hid.c **** volatile uint8 USBUART_hidProtocol[USBUART_MAX_INTERFACES_NUMBER];
  34:Generated_Source\PSoC5/USBUART_hid.c **** 
  35:Generated_Source\PSoC5/USBUART_hid.c **** /** This variable controls the HID report rate. It is controlled by the host 
  36:Generated_Source\PSoC5/USBUART_hid.c ****  * using the HID_SET_IDLE request and used by the USBFS_UpdateHIDTimer() API to 
  37:Generated_Source\PSoC5/USBUART_hid.c ****  * reload timer.*/
  38:Generated_Source\PSoC5/USBUART_hid.c **** volatile uint8 USBUART_hidIdleRate[USBUART_MAX_INTERFACES_NUMBER];
  39:Generated_Source\PSoC5/USBUART_hid.c **** 
  40:Generated_Source\PSoC5/USBUART_hid.c **** /** This variable contains the timer counter, which is decremented and reloaded 
  41:Generated_Source\PSoC5/USBUART_hid.c ****  * by the USBFS_UpdateHIDTimer() API.*/
  42:Generated_Source\PSoC5/USBUART_hid.c **** volatile uint8 USBUART_hidIdleTimer[USBUART_MAX_INTERFACES_NUMBER]; /* HID device idle rate value *
  43:Generated_Source\PSoC5/USBUART_hid.c **** 
  44:Generated_Source\PSoC5/USBUART_hid.c **** 
  45:Generated_Source\PSoC5/USBUART_hid.c **** /***************************************
  46:Generated_Source\PSoC5/USBUART_hid.c **** * Custom Declarations
  47:Generated_Source\PSoC5/USBUART_hid.c **** ***************************************/
  48:Generated_Source\PSoC5/USBUART_hid.c **** 
  49:Generated_Source\PSoC5/USBUART_hid.c **** /* `#START HID_CUSTOM_DECLARATIONS` Place your declaration here */
  50:Generated_Source\PSoC5/USBUART_hid.c **** 
  51:Generated_Source\PSoC5/USBUART_hid.c **** /* `#END` */
  52:Generated_Source\PSoC5/USBUART_hid.c **** 
  53:Generated_Source\PSoC5/USBUART_hid.c **** 
  54:Generated_Source\PSoC5/USBUART_hid.c **** /*******************************************************************************
  55:Generated_Source\PSoC5/USBUART_hid.c **** * Function Name: USBUART_UpdateHIDTimer
  56:Generated_Source\PSoC5/USBUART_hid.c **** ****************************************************************************//**
  57:Generated_Source\PSoC5/USBUART_hid.c **** *
  58:Generated_Source\PSoC5/USBUART_hid.c **** *  This function updates the HID Report idle timer and returns the status and 
  59:Generated_Source\PSoC5/USBUART_hid.c **** *  reloads the timer if it expires.
  60:Generated_Source\PSoC5/USBUART_hid.c **** *
  61:Generated_Source\PSoC5/USBUART_hid.c **** *  \param interface Contains the interface number.
  62:Generated_Source\PSoC5/USBUART_hid.c **** *
  63:Generated_Source\PSoC5/USBUART_hid.c **** * \return
  64:Generated_Source\PSoC5/USBUART_hid.c **** *  Returns the state of the HID timer. Symbolic names and their associated values are given here:
  65:Generated_Source\PSoC5/USBUART_hid.c **** *  Return Value               |Notes
  66:Generated_Source\PSoC5/USBUART_hid.c **** *  ---------------------------|------------------------------------------------
  67:Generated_Source\PSoC5/USBUART_hid.c **** *  USBFS_IDLE_TIMER_EXPIRED   | The timer expired.
  68:Generated_Source\PSoC5/USBUART_hid.c **** *  USBFS_IDLE_TIMER_RUNNING   | The timer is running.
  69:Generated_Source\PSoC5/USBUART_hid.c **** *  USBFS_IDLE_TIMER_IDEFINITE | The report is sent when data or state changes.
  70:Generated_Source\PSoC5/USBUART_hid.c **** *
  71:Generated_Source\PSoC5/USBUART_hid.c **** *
  72:Generated_Source\PSoC5/USBUART_hid.c **** * \reentrant
  73:Generated_Source\PSoC5/USBUART_hid.c **** *  No.
  74:Generated_Source\PSoC5/USBUART_hid.c **** *
  75:Generated_Source\PSoC5/USBUART_hid.c **** *******************************************************************************/
  76:Generated_Source\PSoC5/USBUART_hid.c **** uint8 USBUART_UpdateHIDTimer(uint8 interface) 
  77:Generated_Source\PSoC5/USBUART_hid.c **** {
  28              		.loc 1 77 0
  29              		.cfi_startproc
  30              		@ args = 0, pretend = 0, frame = 0
  31              		@ frame_needed = 0, uses_anonymous_args = 0
  32              		@ link register save eliminated.
  33              	.LVL0:
  78:Generated_Source\PSoC5/USBUART_hid.c ****     uint8 stat = USBUART_IDLE_TIMER_INDEFINITE;
  79:Generated_Source\PSoC5/USBUART_hid.c **** 
  80:Generated_Source\PSoC5/USBUART_hid.c ****     if(USBUART_hidIdleRate[interface] != 0u)
  34              		.loc 1 80 0
ARM GAS  C:\Users\EA527~1.IVA\AppData\Local\Temp\ccVzyjha.s 			page 3


  35 0000 0C4B     		ldr	r3, .L5
  36 0002 1B5C     		ldrb	r3, [r3, r0]	@ zero_extendqisi2
  37 0004 13F0FF0F 		tst	r3, #255
  38 0008 12D0     		beq	.L4
  81:Generated_Source\PSoC5/USBUART_hid.c ****     {
  82:Generated_Source\PSoC5/USBUART_hid.c ****         if(USBUART_hidIdleTimer[interface] > 0u)
  39              		.loc 1 82 0
  40 000a 0B4B     		ldr	r3, .L5+4
  41 000c 1B5C     		ldrb	r3, [r3, r0]	@ zero_extendqisi2
  42 000e 13F0FF0F 		tst	r3, #255
  43 0012 06D0     		beq	.L3
  83:Generated_Source\PSoC5/USBUART_hid.c ****         {
  84:Generated_Source\PSoC5/USBUART_hid.c ****             USBUART_hidIdleTimer[interface]--;
  44              		.loc 1 84 0
  45 0014 084A     		ldr	r2, .L5+4
  46 0016 135C     		ldrb	r3, [r2, r0]	@ zero_extendqisi2
  47 0018 013B     		subs	r3, r3, #1
  48 001a DBB2     		uxtb	r3, r3
  49 001c 1354     		strb	r3, [r2, r0]
  50              	.LVL1:
  85:Generated_Source\PSoC5/USBUART_hid.c ****             stat = USBUART_IDLE_TIMER_RUNNING;
  51              		.loc 1 85 0
  52 001e 0220     		movs	r0, #2
  53              	.LVL2:
  54 0020 7047     		bx	lr
  55              	.LVL3:
  56              	.L3:
  86:Generated_Source\PSoC5/USBUART_hid.c ****         }
  87:Generated_Source\PSoC5/USBUART_hid.c ****         else
  88:Generated_Source\PSoC5/USBUART_hid.c ****         {
  89:Generated_Source\PSoC5/USBUART_hid.c ****             USBUART_hidIdleTimer[interface] = USBUART_hidIdleRate[interface];
  57              		.loc 1 89 0
  58 0022 044B     		ldr	r3, .L5
  59 0024 1B5C     		ldrb	r3, [r3, r0]	@ zero_extendqisi2
  60 0026 DBB2     		uxtb	r3, r3
  61 0028 034A     		ldr	r2, .L5+4
  62 002a 1354     		strb	r3, [r2, r0]
  63              	.LVL4:
  90:Generated_Source\PSoC5/USBUART_hid.c ****             stat = USBUART_IDLE_TIMER_EXPIRED;
  64              		.loc 1 90 0
  65 002c 0120     		movs	r0, #1
  66              	.LVL5:
  67 002e 7047     		bx	lr
  68              	.LVL6:
  69              	.L4:
  78:Generated_Source\PSoC5/USBUART_hid.c **** 
  70              		.loc 1 78 0
  71 0030 0020     		movs	r0, #0
  72              	.LVL7:
  91:Generated_Source\PSoC5/USBUART_hid.c ****         }
  92:Generated_Source\PSoC5/USBUART_hid.c ****     }
  93:Generated_Source\PSoC5/USBUART_hid.c **** 
  94:Generated_Source\PSoC5/USBUART_hid.c ****     return((uint8)stat);
  95:Generated_Source\PSoC5/USBUART_hid.c **** }
  73              		.loc 1 95 0
  74 0032 7047     		bx	lr
  75              	.L6:
ARM GAS  C:\Users\EA527~1.IVA\AppData\Local\Temp\ccVzyjha.s 			page 4


  76              		.align	2
  77              	.L5:
  78 0034 00000000 		.word	USBUART_hidIdleRate
  79 0038 00000000 		.word	USBUART_hidIdleTimer
  80              		.cfi_endproc
  81              	.LFE0:
  82              		.size	USBUART_UpdateHIDTimer, .-USBUART_UpdateHIDTimer
  83              		.section	.text.USBUART_GetProtocol,"ax",%progbits
  84              		.align	2
  85              		.global	USBUART_GetProtocol
  86              		.thumb
  87              		.thumb_func
  88              		.type	USBUART_GetProtocol, %function
  89              	USBUART_GetProtocol:
  90              	.LFB1:
  96:Generated_Source\PSoC5/USBUART_hid.c **** 
  97:Generated_Source\PSoC5/USBUART_hid.c **** 
  98:Generated_Source\PSoC5/USBUART_hid.c **** /*******************************************************************************
  99:Generated_Source\PSoC5/USBUART_hid.c **** * Function Name: USBUART_GetProtocol
 100:Generated_Source\PSoC5/USBUART_hid.c **** ****************************************************************************//**
 101:Generated_Source\PSoC5/USBUART_hid.c **** *
 102:Generated_Source\PSoC5/USBUART_hid.c **** *  This function returns the HID protocol value for the selected interface.
 103:Generated_Source\PSoC5/USBUART_hid.c **** *
 104:Generated_Source\PSoC5/USBUART_hid.c **** *  \param interface:  Contains the interface number.
 105:Generated_Source\PSoC5/USBUART_hid.c **** *
 106:Generated_Source\PSoC5/USBUART_hid.c **** *  \return
 107:Generated_Source\PSoC5/USBUART_hid.c **** *  Returns the protocol value. 
 108:Generated_Source\PSoC5/USBUART_hid.c **** *
 109:Generated_Source\PSoC5/USBUART_hid.c **** *******************************************************************************/
 110:Generated_Source\PSoC5/USBUART_hid.c **** uint8 USBUART_GetProtocol(uint8 interface) 
 111:Generated_Source\PSoC5/USBUART_hid.c **** {
  91              		.loc 1 111 0
  92              		.cfi_startproc
  93              		@ args = 0, pretend = 0, frame = 0
  94              		@ frame_needed = 0, uses_anonymous_args = 0
  95              		@ link register save eliminated.
  96              	.LVL8:
 112:Generated_Source\PSoC5/USBUART_hid.c ****     return(USBUART_hidProtocol[interface]);
  97              		.loc 1 112 0
  98 0000 014B     		ldr	r3, .L8
  99 0002 185C     		ldrb	r0, [r3, r0]	@ zero_extendqisi2
 100              	.LVL9:
 113:Generated_Source\PSoC5/USBUART_hid.c **** }
 101              		.loc 1 113 0
 102 0004 7047     		bx	lr
 103              	.L9:
 104 0006 00BF     		.align	2
 105              	.L8:
 106 0008 00000000 		.word	USBUART_hidProtocol
 107              		.cfi_endproc
 108              	.LFE1:
 109              		.size	USBUART_GetProtocol, .-USBUART_GetProtocol
 110              		.section	.text.USBUART_FindHidClassDecriptor,"ax",%progbits
 111              		.align	2
 112              		.global	USBUART_FindHidClassDecriptor
 113              		.thumb
 114              		.thumb_func
ARM GAS  C:\Users\EA527~1.IVA\AppData\Local\Temp\ccVzyjha.s 			page 5


 115              		.type	USBUART_FindHidClassDecriptor, %function
 116              	USBUART_FindHidClassDecriptor:
 117              	.LFB3:
 114:Generated_Source\PSoC5/USBUART_hid.c **** 
 115:Generated_Source\PSoC5/USBUART_hid.c **** 
 116:Generated_Source\PSoC5/USBUART_hid.c **** /*******************************************************************************
 117:Generated_Source\PSoC5/USBUART_hid.c **** * Function Name: USBUART_DispatchHIDClassRqst
 118:Generated_Source\PSoC5/USBUART_hid.c **** ****************************************************************************//**
 119:Generated_Source\PSoC5/USBUART_hid.c **** *
 120:Generated_Source\PSoC5/USBUART_hid.c **** *  This routine dispatches class requests
 121:Generated_Source\PSoC5/USBUART_hid.c **** *
 122:Generated_Source\PSoC5/USBUART_hid.c **** * \return
 123:Generated_Source\PSoC5/USBUART_hid.c **** *  Results of HID Class request handling: 
 124:Generated_Source\PSoC5/USBUART_hid.c **** *  - USBUART_TRUE  - request was handled without errors
 125:Generated_Source\PSoC5/USBUART_hid.c **** *  - USBUART_FALSE - error occurs during handling of request  
 126:Generated_Source\PSoC5/USBUART_hid.c **** *
 127:Generated_Source\PSoC5/USBUART_hid.c **** * \reentrant
 128:Generated_Source\PSoC5/USBUART_hid.c **** *  No.
 129:Generated_Source\PSoC5/USBUART_hid.c **** *
 130:Generated_Source\PSoC5/USBUART_hid.c **** *******************************************************************************/
 131:Generated_Source\PSoC5/USBUART_hid.c **** uint8 USBUART_DispatchHIDClassRqst(void) 
 132:Generated_Source\PSoC5/USBUART_hid.c **** {
 133:Generated_Source\PSoC5/USBUART_hid.c ****     uint8 requestHandled = USBUART_FALSE;
 134:Generated_Source\PSoC5/USBUART_hid.c **** 
 135:Generated_Source\PSoC5/USBUART_hid.c ****     uint8 interfaceNumber = (uint8) USBUART_wIndexLoReg;
 136:Generated_Source\PSoC5/USBUART_hid.c ****     
 137:Generated_Source\PSoC5/USBUART_hid.c ****     /* Check request direction: D2H or H2D. */
 138:Generated_Source\PSoC5/USBUART_hid.c ****     if (0u != (USBUART_bmRequestTypeReg & USBUART_RQST_DIR_D2H))
 139:Generated_Source\PSoC5/USBUART_hid.c ****     {
 140:Generated_Source\PSoC5/USBUART_hid.c ****         /* Handle direction from device to host. */
 141:Generated_Source\PSoC5/USBUART_hid.c ****         
 142:Generated_Source\PSoC5/USBUART_hid.c ****         switch (USBUART_bRequestReg)
 143:Generated_Source\PSoC5/USBUART_hid.c ****         {
 144:Generated_Source\PSoC5/USBUART_hid.c ****             case USBUART_GET_DESCRIPTOR:
 145:Generated_Source\PSoC5/USBUART_hid.c ****                 if (USBUART_wValueHiReg == USBUART_DESCR_HID_CLASS)
 146:Generated_Source\PSoC5/USBUART_hid.c ****                 {
 147:Generated_Source\PSoC5/USBUART_hid.c ****                     USBUART_FindHidClassDecriptor();
 148:Generated_Source\PSoC5/USBUART_hid.c ****                     if (USBUART_currentTD.count != 0u)
 149:Generated_Source\PSoC5/USBUART_hid.c ****                     {
 150:Generated_Source\PSoC5/USBUART_hid.c ****                         requestHandled = USBUART_InitControlRead();
 151:Generated_Source\PSoC5/USBUART_hid.c ****                     }
 152:Generated_Source\PSoC5/USBUART_hid.c ****                 }
 153:Generated_Source\PSoC5/USBUART_hid.c ****                 else if (USBUART_wValueHiReg == USBUART_DESCR_HID_REPORT)
 154:Generated_Source\PSoC5/USBUART_hid.c ****                 {
 155:Generated_Source\PSoC5/USBUART_hid.c ****                     USBUART_FindReportDescriptor();
 156:Generated_Source\PSoC5/USBUART_hid.c ****                     if (USBUART_currentTD.count != 0u)
 157:Generated_Source\PSoC5/USBUART_hid.c ****                     {
 158:Generated_Source\PSoC5/USBUART_hid.c ****                         requestHandled = USBUART_InitControlRead();
 159:Generated_Source\PSoC5/USBUART_hid.c ****                     }
 160:Generated_Source\PSoC5/USBUART_hid.c ****                 }
 161:Generated_Source\PSoC5/USBUART_hid.c ****                 else
 162:Generated_Source\PSoC5/USBUART_hid.c ****                 {   
 163:Generated_Source\PSoC5/USBUART_hid.c ****                     /* Do not handle this request. */
 164:Generated_Source\PSoC5/USBUART_hid.c ****                 }
 165:Generated_Source\PSoC5/USBUART_hid.c ****                 break;
 166:Generated_Source\PSoC5/USBUART_hid.c ****                 
 167:Generated_Source\PSoC5/USBUART_hid.c ****             case USBUART_HID_GET_REPORT:
ARM GAS  C:\Users\EA527~1.IVA\AppData\Local\Temp\ccVzyjha.s 			page 6


 168:Generated_Source\PSoC5/USBUART_hid.c ****                 USBUART_FindReport();
 169:Generated_Source\PSoC5/USBUART_hid.c ****                 if (USBUART_currentTD.count != 0u)
 170:Generated_Source\PSoC5/USBUART_hid.c ****                 {
 171:Generated_Source\PSoC5/USBUART_hid.c ****                     requestHandled = USBUART_InitControlRead();
 172:Generated_Source\PSoC5/USBUART_hid.c ****                 }
 173:Generated_Source\PSoC5/USBUART_hid.c ****                 break;
 174:Generated_Source\PSoC5/USBUART_hid.c **** 
 175:Generated_Source\PSoC5/USBUART_hid.c ****             case USBUART_HID_GET_IDLE:
 176:Generated_Source\PSoC5/USBUART_hid.c ****                 /* This function does not support multiple reports per interface*/
 177:Generated_Source\PSoC5/USBUART_hid.c ****                 /* Validate interfaceNumber and Report ID (should be 0): Do not support Idle per Re
 178:Generated_Source\PSoC5/USBUART_hid.c ****                 if ((interfaceNumber < USBUART_MAX_INTERFACES_NUMBER) && (USBUART_wValueLoReg == 0u
 179:Generated_Source\PSoC5/USBUART_hid.c ****                 {
 180:Generated_Source\PSoC5/USBUART_hid.c ****                     USBUART_currentTD.count = 1u;
 181:Generated_Source\PSoC5/USBUART_hid.c ****                     USBUART_currentTD.pData = &USBUART_hidIdleRate[interfaceNumber];
 182:Generated_Source\PSoC5/USBUART_hid.c ****                     requestHandled  = USBUART_InitControlRead();
 183:Generated_Source\PSoC5/USBUART_hid.c ****                 }
 184:Generated_Source\PSoC5/USBUART_hid.c ****                 break;
 185:Generated_Source\PSoC5/USBUART_hid.c ****                 
 186:Generated_Source\PSoC5/USBUART_hid.c ****             case USBUART_HID_GET_PROTOCOL:
 187:Generated_Source\PSoC5/USBUART_hid.c ****                 /* Validate interfaceNumber */
 188:Generated_Source\PSoC5/USBUART_hid.c ****                 if( interfaceNumber < USBUART_MAX_INTERFACES_NUMBER)
 189:Generated_Source\PSoC5/USBUART_hid.c ****                 {
 190:Generated_Source\PSoC5/USBUART_hid.c ****                     USBUART_currentTD.count = 1u;
 191:Generated_Source\PSoC5/USBUART_hid.c ****                     USBUART_currentTD.pData = &USBUART_hidProtocol[interfaceNumber];
 192:Generated_Source\PSoC5/USBUART_hid.c ****                     requestHandled  = USBUART_InitControlRead();
 193:Generated_Source\PSoC5/USBUART_hid.c ****                 }
 194:Generated_Source\PSoC5/USBUART_hid.c ****                 break;
 195:Generated_Source\PSoC5/USBUART_hid.c ****                 
 196:Generated_Source\PSoC5/USBUART_hid.c ****             default:    /* requestHandled is initialized as FALSE by default */
 197:Generated_Source\PSoC5/USBUART_hid.c ****                 break;
 198:Generated_Source\PSoC5/USBUART_hid.c ****         }
 199:Generated_Source\PSoC5/USBUART_hid.c ****     }
 200:Generated_Source\PSoC5/USBUART_hid.c ****     else
 201:Generated_Source\PSoC5/USBUART_hid.c ****     {   
 202:Generated_Source\PSoC5/USBUART_hid.c ****         /* Handle direction from host to device. */
 203:Generated_Source\PSoC5/USBUART_hid.c ****         
 204:Generated_Source\PSoC5/USBUART_hid.c ****         switch (USBUART_bRequestReg)
 205:Generated_Source\PSoC5/USBUART_hid.c ****         {
 206:Generated_Source\PSoC5/USBUART_hid.c ****             case USBUART_HID_SET_REPORT:
 207:Generated_Source\PSoC5/USBUART_hid.c ****                 USBUART_FindReport();
 208:Generated_Source\PSoC5/USBUART_hid.c ****                 if (USBUART_currentTD.count != 0u)
 209:Generated_Source\PSoC5/USBUART_hid.c ****                 {
 210:Generated_Source\PSoC5/USBUART_hid.c ****                     requestHandled = USBUART_InitControlWrite();
 211:Generated_Source\PSoC5/USBUART_hid.c ****                 }
 212:Generated_Source\PSoC5/USBUART_hid.c ****                 break;
 213:Generated_Source\PSoC5/USBUART_hid.c ****                 
 214:Generated_Source\PSoC5/USBUART_hid.c ****             case USBUART_HID_SET_IDLE:
 215:Generated_Source\PSoC5/USBUART_hid.c ****                 /* This function does not support multiple reports per interface */
 216:Generated_Source\PSoC5/USBUART_hid.c ****                 /* Validate interfaceNumber and Report ID (should be 0): Do not support Idle per Re
 217:Generated_Source\PSoC5/USBUART_hid.c ****                 if ((interfaceNumber < USBUART_MAX_INTERFACES_NUMBER) && (USBUART_wValueLoReg == 0u
 218:Generated_Source\PSoC5/USBUART_hid.c ****                 {
 219:Generated_Source\PSoC5/USBUART_hid.c ****                     USBUART_hidIdleRate[interfaceNumber] = (uint8)USBUART_wValueHiReg;
 220:Generated_Source\PSoC5/USBUART_hid.c ****                     /* With regards to HID spec: "7.2.4 Set_Idle Request"
 221:Generated_Source\PSoC5/USBUART_hid.c ****                     *  Latency. If the current period has gone past the
 222:Generated_Source\PSoC5/USBUART_hid.c ****                     *  newly proscribed time duration, then a report
 223:Generated_Source\PSoC5/USBUART_hid.c ****                     *  will be generated immediately.
 224:Generated_Source\PSoC5/USBUART_hid.c ****                     */
ARM GAS  C:\Users\EA527~1.IVA\AppData\Local\Temp\ccVzyjha.s 			page 7


 225:Generated_Source\PSoC5/USBUART_hid.c ****                     if(USBUART_hidIdleRate[interfaceNumber] <
 226:Generated_Source\PSoC5/USBUART_hid.c ****                        USBUART_hidIdleTimer[interfaceNumber])
 227:Generated_Source\PSoC5/USBUART_hid.c ****                     {
 228:Generated_Source\PSoC5/USBUART_hid.c ****                         /* Set the timer to zero and let the UpdateHIDTimer() API return IDLE_TIMER
 229:Generated_Source\PSoC5/USBUART_hid.c ****                         USBUART_hidIdleTimer[interfaceNumber] = 0u;
 230:Generated_Source\PSoC5/USBUART_hid.c ****                     }
 231:Generated_Source\PSoC5/USBUART_hid.c ****                     /* If the new request is received within 4 milliseconds
 232:Generated_Source\PSoC5/USBUART_hid.c ****                     *  (1 count) of the end of the current period, then the
 233:Generated_Source\PSoC5/USBUART_hid.c ****                     *  new request will have no effect until after the report.
 234:Generated_Source\PSoC5/USBUART_hid.c ****                     */
 235:Generated_Source\PSoC5/USBUART_hid.c ****                     else if(USBUART_hidIdleTimer[interfaceNumber] <= 1u)
 236:Generated_Source\PSoC5/USBUART_hid.c ****                     {
 237:Generated_Source\PSoC5/USBUART_hid.c ****                         /* Do nothing.
 238:Generated_Source\PSoC5/USBUART_hid.c ****                         *  Let the UpdateHIDTimer() API continue to work and
 239:Generated_Source\PSoC5/USBUART_hid.c ****                         *  return IDLE_TIMER_EXPIRED status
 240:Generated_Source\PSoC5/USBUART_hid.c ****                         */
 241:Generated_Source\PSoC5/USBUART_hid.c ****                     }
 242:Generated_Source\PSoC5/USBUART_hid.c ****                     else
 243:Generated_Source\PSoC5/USBUART_hid.c ****                     {   /* Reload the timer*/
 244:Generated_Source\PSoC5/USBUART_hid.c ****                         USBUART_hidIdleTimer[interfaceNumber] =
 245:Generated_Source\PSoC5/USBUART_hid.c ****                         USBUART_hidIdleRate[interfaceNumber];
 246:Generated_Source\PSoC5/USBUART_hid.c ****                     }
 247:Generated_Source\PSoC5/USBUART_hid.c ****                     requestHandled = USBUART_InitNoDataControlTransfer();
 248:Generated_Source\PSoC5/USBUART_hid.c ****                 }
 249:Generated_Source\PSoC5/USBUART_hid.c ****                 break;
 250:Generated_Source\PSoC5/USBUART_hid.c **** 
 251:Generated_Source\PSoC5/USBUART_hid.c ****             case USBUART_HID_SET_PROTOCOL:
 252:Generated_Source\PSoC5/USBUART_hid.c ****                 /* Validate interfaceNumber and protocol (must be 0 or 1) */
 253:Generated_Source\PSoC5/USBUART_hid.c ****                 if ((interfaceNumber < USBUART_MAX_INTERFACES_NUMBER) && (USBUART_wValueLoReg <= 1u
 254:Generated_Source\PSoC5/USBUART_hid.c ****                 {
 255:Generated_Source\PSoC5/USBUART_hid.c ****                     USBUART_hidProtocol[interfaceNumber] = (uint8)USBUART_wValueLoReg;
 256:Generated_Source\PSoC5/USBUART_hid.c ****                     requestHandled = USBUART_InitNoDataControlTransfer();
 257:Generated_Source\PSoC5/USBUART_hid.c ****                 }
 258:Generated_Source\PSoC5/USBUART_hid.c ****                 break;
 259:Generated_Source\PSoC5/USBUART_hid.c ****             
 260:Generated_Source\PSoC5/USBUART_hid.c ****             default:    
 261:Generated_Source\PSoC5/USBUART_hid.c ****                 /* Unknown class request is not handled. */
 262:Generated_Source\PSoC5/USBUART_hid.c ****                 break;
 263:Generated_Source\PSoC5/USBUART_hid.c ****         }
 264:Generated_Source\PSoC5/USBUART_hid.c ****     }
 265:Generated_Source\PSoC5/USBUART_hid.c **** 
 266:Generated_Source\PSoC5/USBUART_hid.c ****     return (requestHandled);
 267:Generated_Source\PSoC5/USBUART_hid.c **** }
 268:Generated_Source\PSoC5/USBUART_hid.c **** 
 269:Generated_Source\PSoC5/USBUART_hid.c **** 
 270:Generated_Source\PSoC5/USBUART_hid.c **** /*******************************************************************************
 271:Generated_Source\PSoC5/USBUART_hid.c **** * Function Name: USB_FindHidClassDescriptor
 272:Generated_Source\PSoC5/USBUART_hid.c **** ****************************************************************************//**
 273:Generated_Source\PSoC5/USBUART_hid.c **** *
 274:Generated_Source\PSoC5/USBUART_hid.c **** *  This routine find Hid Class Descriptor pointer based on the Interface number
 275:Generated_Source\PSoC5/USBUART_hid.c **** *  and Alternate setting then loads the currentTD structure with the address of
 276:Generated_Source\PSoC5/USBUART_hid.c **** *  the buffer and the size.
 277:Generated_Source\PSoC5/USBUART_hid.c **** *  The HID Class Descriptor resides inside the config descriptor.
 278:Generated_Source\PSoC5/USBUART_hid.c **** *
 279:Generated_Source\PSoC5/USBUART_hid.c **** * \return
 280:Generated_Source\PSoC5/USBUART_hid.c **** *  currentTD
 281:Generated_Source\PSoC5/USBUART_hid.c **** *
ARM GAS  C:\Users\EA527~1.IVA\AppData\Local\Temp\ccVzyjha.s 			page 8


 282:Generated_Source\PSoC5/USBUART_hid.c **** * \reentrant
 283:Generated_Source\PSoC5/USBUART_hid.c **** *  No.
 284:Generated_Source\PSoC5/USBUART_hid.c **** *
 285:Generated_Source\PSoC5/USBUART_hid.c **** *******************************************************************************/
 286:Generated_Source\PSoC5/USBUART_hid.c **** void USBUART_FindHidClassDecriptor(void) 
 287:Generated_Source\PSoC5/USBUART_hid.c **** {
 118              		.loc 1 287 0
 119              		.cfi_startproc
 120              		@ args = 0, pretend = 0, frame = 0
 121              		@ frame_needed = 0, uses_anonymous_args = 0
 122 0000 08B5     		push	{r3, lr}
 123              		.cfi_def_cfa_offset 8
 124              		.cfi_offset 3, -8
 125              		.cfi_offset 14, -4
 288:Generated_Source\PSoC5/USBUART_hid.c ****     const T_USBUART_LUT CYCODE *pTmp;
 289:Generated_Source\PSoC5/USBUART_hid.c ****     volatile uint8 *pDescr;
 290:Generated_Source\PSoC5/USBUART_hid.c ****     uint8 interfaceN;
 291:Generated_Source\PSoC5/USBUART_hid.c **** 
 292:Generated_Source\PSoC5/USBUART_hid.c ****     pTmp = USBUART_GetConfigTablePtr(USBUART_configuration - 1u);
 126              		.loc 1 292 0
 127 0002 0C4B     		ldr	r3, .L12
 128 0004 1878     		ldrb	r0, [r3]	@ zero_extendqisi2
 129 0006 0138     		subs	r0, r0, #1
 130 0008 C0B2     		uxtb	r0, r0
 131 000a FFF7FEFF 		bl	USBUART_GetConfigTablePtr
 132              	.LVL10:
 293:Generated_Source\PSoC5/USBUART_hid.c ****     
 294:Generated_Source\PSoC5/USBUART_hid.c ****     interfaceN = (uint8) USBUART_wIndexLoReg;
 133              		.loc 1 294 0
 134 000e 0A4B     		ldr	r3, .L12+4
 135 0010 1B79     		ldrb	r3, [r3, #4]	@ zero_extendqisi2
 136 0012 DBB2     		uxtb	r3, r3
 137              	.LVL11:
 295:Generated_Source\PSoC5/USBUART_hid.c ****     /* Third entry in the LUT starts the Interface Table pointers */
 296:Generated_Source\PSoC5/USBUART_hid.c ****     /* Now use the request interface number*/
 297:Generated_Source\PSoC5/USBUART_hid.c ****     pTmp = &pTmp[interfaceN + 2u];
 138              		.loc 1 297 0
 139 0014 9A1C     		adds	r2, r3, #2
 140 0016 00EBC200 		add	r0, r0, r2, lsl #3
 141              	.LVL12:
 298:Generated_Source\PSoC5/USBUART_hid.c ****     
 299:Generated_Source\PSoC5/USBUART_hid.c ****     /* USB_DEVICEx_CONFIGURATIONy_INTERFACEz_TABLE */
 300:Generated_Source\PSoC5/USBUART_hid.c ****     pTmp = (const T_USBUART_LUT CYCODE *) pTmp->p_list;
 142              		.loc 1 300 0
 143 001a 4268     		ldr	r2, [r0, #4]
 144              	.LVL13:
 301:Generated_Source\PSoC5/USBUART_hid.c ****     
 302:Generated_Source\PSoC5/USBUART_hid.c ****     /* Now use Alternate setting number */
 303:Generated_Source\PSoC5/USBUART_hid.c ****     pTmp = &pTmp[USBUART_interfaceSetting[interfaceN]];
 145              		.loc 1 303 0
 146 001c 0749     		ldr	r1, .L12+8
 147 001e CB5C     		ldrb	r3, [r1, r3]	@ zero_extendqisi2
 148              	.LVL14:
 149 0020 02EBC303 		add	r3, r2, r3, lsl #3
 150              	.LVL15:
 304:Generated_Source\PSoC5/USBUART_hid.c ****     
 305:Generated_Source\PSoC5/USBUART_hid.c ****     /* USB_DEVICEx_CONFIGURATIONy_INTERFACEz_ALTERNATEi_HID_TABLE */
ARM GAS  C:\Users\EA527~1.IVA\AppData\Local\Temp\ccVzyjha.s 			page 9


 306:Generated_Source\PSoC5/USBUART_hid.c ****     pTmp = (const T_USBUART_LUT CYCODE *) pTmp->p_list;
 151              		.loc 1 306 0
 152 0024 5B68     		ldr	r3, [r3, #4]
 153              	.LVL16:
 307:Generated_Source\PSoC5/USBUART_hid.c ****     
 308:Generated_Source\PSoC5/USBUART_hid.c ****     /* Fifth entry in the LUT points to Hid Class Descriptor in Configuration Descriptor */
 309:Generated_Source\PSoC5/USBUART_hid.c ****     pTmp = &pTmp[4u];
 310:Generated_Source\PSoC5/USBUART_hid.c ****     pDescr = (volatile uint8 *)pTmp->p_list;
 154              		.loc 1 310 0
 155 0026 596A     		ldr	r1, [r3, #36]
 156              	.LVL17:
 311:Generated_Source\PSoC5/USBUART_hid.c ****     
 312:Generated_Source\PSoC5/USBUART_hid.c ****     /* The first byte contains the descriptor length */
 313:Generated_Source\PSoC5/USBUART_hid.c ****     USBUART_currentTD.count = *pDescr;
 157              		.loc 1 313 0
 158 0028 0B78     		ldrb	r3, [r1]	@ zero_extendqisi2
 159              	.LVL18:
 160 002a 054A     		ldr	r2, .L12+12
 161 002c 1380     		strh	r3, [r2]	@ movhi
 314:Generated_Source\PSoC5/USBUART_hid.c ****     USBUART_currentTD.pData = pDescr;
 162              		.loc 1 314 0
 163 002e 5160     		str	r1, [r2, #4]
 164 0030 08BD     		pop	{r3, pc}
 165              	.L13:
 166 0032 00BF     		.align	2
 167              	.L12:
 168 0034 00000000 		.word	USBUART_configuration
 169 0038 00600040 		.word	1073766400
 170 003c 00000000 		.word	USBUART_interfaceSetting
 171 0040 00000000 		.word	USBUART_currentTD
 172              		.cfi_endproc
 173              	.LFE3:
 174              		.size	USBUART_FindHidClassDecriptor, .-USBUART_FindHidClassDecriptor
 175              		.section	.text.USBUART_FindReportDescriptor,"ax",%progbits
 176              		.align	2
 177              		.global	USBUART_FindReportDescriptor
 178              		.thumb
 179              		.thumb_func
 180              		.type	USBUART_FindReportDescriptor, %function
 181              	USBUART_FindReportDescriptor:
 182              	.LFB4:
 315:Generated_Source\PSoC5/USBUART_hid.c **** }
 316:Generated_Source\PSoC5/USBUART_hid.c **** 
 317:Generated_Source\PSoC5/USBUART_hid.c **** 
 318:Generated_Source\PSoC5/USBUART_hid.c **** /*******************************************************************************
 319:Generated_Source\PSoC5/USBUART_hid.c **** * Function Name: USB_FindReportDescriptor
 320:Generated_Source\PSoC5/USBUART_hid.c **** ****************************************************************************//**
 321:Generated_Source\PSoC5/USBUART_hid.c **** *
 322:Generated_Source\PSoC5/USBUART_hid.c **** *  This routine find Hid Report Descriptor pointer based on the Interface
 323:Generated_Source\PSoC5/USBUART_hid.c **** *  number, then loads the currentTD structure with the address of the buffer
 324:Generated_Source\PSoC5/USBUART_hid.c **** *  and the size.
 325:Generated_Source\PSoC5/USBUART_hid.c **** *  Hid Report Descriptor is located after IN/OUT/FEATURE reports.
 326:Generated_Source\PSoC5/USBUART_hid.c **** *
 327:Generated_Source\PSoC5/USBUART_hid.c **** * \return
 328:Generated_Source\PSoC5/USBUART_hid.c **** *  currentTD
 329:Generated_Source\PSoC5/USBUART_hid.c **** *
 330:Generated_Source\PSoC5/USBUART_hid.c **** * \reentrant
ARM GAS  C:\Users\EA527~1.IVA\AppData\Local\Temp\ccVzyjha.s 			page 10


 331:Generated_Source\PSoC5/USBUART_hid.c **** *  No.
 332:Generated_Source\PSoC5/USBUART_hid.c **** *
 333:Generated_Source\PSoC5/USBUART_hid.c **** *******************************************************************************/
 334:Generated_Source\PSoC5/USBUART_hid.c **** void USBUART_FindReportDescriptor(void) 
 335:Generated_Source\PSoC5/USBUART_hid.c **** {
 183              		.loc 1 335 0
 184              		.cfi_startproc
 185              		@ args = 0, pretend = 0, frame = 0
 186              		@ frame_needed = 0, uses_anonymous_args = 0
 187 0000 08B5     		push	{r3, lr}
 188              		.cfi_def_cfa_offset 8
 189              		.cfi_offset 3, -8
 190              		.cfi_offset 14, -4
 336:Generated_Source\PSoC5/USBUART_hid.c ****     const T_USBUART_LUT CYCODE *pTmp;
 337:Generated_Source\PSoC5/USBUART_hid.c ****     volatile uint8 *pDescr;
 338:Generated_Source\PSoC5/USBUART_hid.c ****     uint8 interfaceN;
 339:Generated_Source\PSoC5/USBUART_hid.c **** 
 340:Generated_Source\PSoC5/USBUART_hid.c ****     pTmp = USBUART_GetConfigTablePtr(USBUART_configuration - 1u);
 191              		.loc 1 340 0
 192 0002 0E4B     		ldr	r3, .L16
 193 0004 1878     		ldrb	r0, [r3]	@ zero_extendqisi2
 194 0006 0138     		subs	r0, r0, #1
 195 0008 C0B2     		uxtb	r0, r0
 196 000a FFF7FEFF 		bl	USBUART_GetConfigTablePtr
 197              	.LVL19:
 341:Generated_Source\PSoC5/USBUART_hid.c ****     interfaceN = (uint8) USBUART_wIndexLoReg;
 198              		.loc 1 341 0
 199 000e 0C4B     		ldr	r3, .L16+4
 200 0010 1B79     		ldrb	r3, [r3, #4]	@ zero_extendqisi2
 201 0012 DBB2     		uxtb	r3, r3
 202              	.LVL20:
 342:Generated_Source\PSoC5/USBUART_hid.c ****     
 343:Generated_Source\PSoC5/USBUART_hid.c ****     /* Third entry in the LUT starts the Interface Table pointers */
 344:Generated_Source\PSoC5/USBUART_hid.c ****     /* Now use the request interface number */
 345:Generated_Source\PSoC5/USBUART_hid.c ****     pTmp = &pTmp[interfaceN + 2u];
 203              		.loc 1 345 0
 204 0014 9A1C     		adds	r2, r3, #2
 205 0016 00EBC200 		add	r0, r0, r2, lsl #3
 206              	.LVL21:
 346:Generated_Source\PSoC5/USBUART_hid.c ****     
 347:Generated_Source\PSoC5/USBUART_hid.c ****     /* USB_DEVICEx_CONFIGURATIONy_INTERFACEz_TABLE */
 348:Generated_Source\PSoC5/USBUART_hid.c ****     pTmp = (const T_USBUART_LUT CYCODE *) pTmp->p_list;
 207              		.loc 1 348 0
 208 001a 4268     		ldr	r2, [r0, #4]
 209              	.LVL22:
 349:Generated_Source\PSoC5/USBUART_hid.c ****     
 350:Generated_Source\PSoC5/USBUART_hid.c ****     /* Now use Alternate setting number */
 351:Generated_Source\PSoC5/USBUART_hid.c ****     pTmp = &pTmp[USBUART_interfaceSetting[interfaceN]];
 210              		.loc 1 351 0
 211 001c 0949     		ldr	r1, .L16+8
 212 001e CB5C     		ldrb	r3, [r1, r3]	@ zero_extendqisi2
 213              	.LVL23:
 214 0020 02EBC303 		add	r3, r2, r3, lsl #3
 215              	.LVL24:
 352:Generated_Source\PSoC5/USBUART_hid.c ****     
 353:Generated_Source\PSoC5/USBUART_hid.c ****     /* USB_DEVICEx_CONFIGURATIONy_INTERFACEz_ALTERNATEi_HID_TABLE */
 354:Generated_Source\PSoC5/USBUART_hid.c ****     pTmp = (const T_USBUART_LUT CYCODE *) pTmp->p_list;
ARM GAS  C:\Users\EA527~1.IVA\AppData\Local\Temp\ccVzyjha.s 			page 11


 216              		.loc 1 354 0
 217 0024 5B68     		ldr	r3, [r3, #4]
 218              	.LVL25:
 355:Generated_Source\PSoC5/USBUART_hid.c ****     
 356:Generated_Source\PSoC5/USBUART_hid.c ****     /* Fourth entry in the LUT starts the Hid Report Descriptor */
 357:Generated_Source\PSoC5/USBUART_hid.c ****     pTmp = &pTmp[3u];
 358:Generated_Source\PSoC5/USBUART_hid.c ****     pDescr = (volatile uint8 *)pTmp->p_list;
 219              		.loc 1 358 0
 220 0026 DB69     		ldr	r3, [r3, #28]
 221              	.LVL26:
 359:Generated_Source\PSoC5/USBUART_hid.c ****     
 360:Generated_Source\PSoC5/USBUART_hid.c ****     /* The 1st and 2nd bytes of descriptor contain its length. LSB is 1st. */
 361:Generated_Source\PSoC5/USBUART_hid.c ****     USBUART_currentTD.count =  ((uint16)((uint16) pDescr[1u] << 8u) | pDescr[0u]);
 222              		.loc 1 361 0
 223 0028 5978     		ldrb	r1, [r3, #1]	@ zero_extendqisi2
 224 002a 13F8022B 		ldrb	r2, [r3], #2	@ zero_extendqisi2
 225              	.LVL27:
 226 002e 42EA0122 		orr	r2, r2, r1, lsl #8
 227 0032 0549     		ldr	r1, .L16+12
 228 0034 0A80     		strh	r2, [r1]	@ movhi
 362:Generated_Source\PSoC5/USBUART_hid.c ****     USBUART_currentTD.pData = &pDescr[2u];
 229              		.loc 1 362 0
 230 0036 4B60     		str	r3, [r1, #4]
 231 0038 08BD     		pop	{r3, pc}
 232              	.LVL28:
 233              	.L17:
 234 003a 00BF     		.align	2
 235              	.L16:
 236 003c 00000000 		.word	USBUART_configuration
 237 0040 00600040 		.word	1073766400
 238 0044 00000000 		.word	USBUART_interfaceSetting
 239 0048 00000000 		.word	USBUART_currentTD
 240              		.cfi_endproc
 241              	.LFE4:
 242              		.size	USBUART_FindReportDescriptor, .-USBUART_FindReportDescriptor
 243              		.section	.text.USBUART_FindReport,"ax",%progbits
 244              		.align	2
 245              		.global	USBUART_FindReport
 246              		.thumb
 247              		.thumb_func
 248              		.type	USBUART_FindReport, %function
 249              	USBUART_FindReport:
 250              	.LFB5:
 363:Generated_Source\PSoC5/USBUART_hid.c **** }
 364:Generated_Source\PSoC5/USBUART_hid.c **** 
 365:Generated_Source\PSoC5/USBUART_hid.c **** 
 366:Generated_Source\PSoC5/USBUART_hid.c **** /*******************************************************************************
 367:Generated_Source\PSoC5/USBUART_hid.c **** * Function Name: USBUART_FindReport
 368:Generated_Source\PSoC5/USBUART_hid.c **** ****************************************************************************//**
 369:Generated_Source\PSoC5/USBUART_hid.c **** *
 370:Generated_Source\PSoC5/USBUART_hid.c **** *  This routine sets up a transfer based on the Interface number, Report Type
 371:Generated_Source\PSoC5/USBUART_hid.c **** *  and Report ID, then loads the currentTD structure with the address of the
 372:Generated_Source\PSoC5/USBUART_hid.c **** *  buffer and the size.  The caller has to decide if it is a control read or
 373:Generated_Source\PSoC5/USBUART_hid.c **** *  control write.
 374:Generated_Source\PSoC5/USBUART_hid.c **** *
 375:Generated_Source\PSoC5/USBUART_hid.c **** * \return
 376:Generated_Source\PSoC5/USBUART_hid.c **** *  currentTD
ARM GAS  C:\Users\EA527~1.IVA\AppData\Local\Temp\ccVzyjha.s 			page 12


 377:Generated_Source\PSoC5/USBUART_hid.c **** *
 378:Generated_Source\PSoC5/USBUART_hid.c **** * \reentrant
 379:Generated_Source\PSoC5/USBUART_hid.c **** *  No.
 380:Generated_Source\PSoC5/USBUART_hid.c **** *
 381:Generated_Source\PSoC5/USBUART_hid.c **** *******************************************************************************/
 382:Generated_Source\PSoC5/USBUART_hid.c **** void USBUART_FindReport(void) 
 383:Generated_Source\PSoC5/USBUART_hid.c **** {
 251              		.loc 1 383 0
 252              		.cfi_startproc
 253              		@ args = 0, pretend = 0, frame = 0
 254              		@ frame_needed = 0, uses_anonymous_args = 0
 255 0000 10B5     		push	{r4, lr}
 256              		.cfi_def_cfa_offset 8
 257              		.cfi_offset 4, -8
 258              		.cfi_offset 14, -4
 384:Generated_Source\PSoC5/USBUART_hid.c ****     const T_USBUART_LUT CYCODE *pTmp;
 385:Generated_Source\PSoC5/USBUART_hid.c ****     T_USBUART_TD *pTD;
 386:Generated_Source\PSoC5/USBUART_hid.c ****     uint8 reportType;
 387:Generated_Source\PSoC5/USBUART_hid.c ****     uint8 interfaceN;
 388:Generated_Source\PSoC5/USBUART_hid.c ****  
 389:Generated_Source\PSoC5/USBUART_hid.c ****     /* `#START HID_FINDREPORT` Place custom handling here */
 390:Generated_Source\PSoC5/USBUART_hid.c **** 
 391:Generated_Source\PSoC5/USBUART_hid.c ****     /* `#END` */
 392:Generated_Source\PSoC5/USBUART_hid.c ****     
 393:Generated_Source\PSoC5/USBUART_hid.c **** #ifdef USBUART_FIND_REPORT_CALLBACK
 394:Generated_Source\PSoC5/USBUART_hid.c ****     USBUART_FindReport_Callback();
 395:Generated_Source\PSoC5/USBUART_hid.c **** #endif /* (USBUART_FIND_REPORT_CALLBACK) */
 396:Generated_Source\PSoC5/USBUART_hid.c ****     
 397:Generated_Source\PSoC5/USBUART_hid.c ****     USBUART_currentTD.count = 0u;   /* Init not supported condition */
 259              		.loc 1 397 0
 260 0002 0022     		movs	r2, #0
 261 0004 1A4B     		ldr	r3, .L21
 262 0006 1A80     		strh	r2, [r3]	@ movhi
 398:Generated_Source\PSoC5/USBUART_hid.c ****     pTmp = USBUART_GetConfigTablePtr(USBUART_configuration - 1u);
 263              		.loc 1 398 0
 264 0008 1A4B     		ldr	r3, .L21+4
 265 000a 1878     		ldrb	r0, [r3]	@ zero_extendqisi2
 266 000c 0138     		subs	r0, r0, #1
 267 000e C0B2     		uxtb	r0, r0
 268 0010 FFF7FEFF 		bl	USBUART_GetConfigTablePtr
 269              	.LVL29:
 399:Generated_Source\PSoC5/USBUART_hid.c ****     reportType = (uint8) USBUART_wValueHiReg;
 270              		.loc 1 399 0
 271 0014 1849     		ldr	r1, .L21+8
 272 0016 CB78     		ldrb	r3, [r1, #3]	@ zero_extendqisi2
 273 0018 DAB2     		uxtb	r2, r3
 274              	.LVL30:
 400:Generated_Source\PSoC5/USBUART_hid.c ****     interfaceN = (uint8) USBUART_wIndexLoReg;
 275              		.loc 1 400 0
 276 001a 0B79     		ldrb	r3, [r1, #4]	@ zero_extendqisi2
 277 001c DBB2     		uxtb	r3, r3
 278              	.LVL31:
 401:Generated_Source\PSoC5/USBUART_hid.c ****     
 402:Generated_Source\PSoC5/USBUART_hid.c ****     /* Third entry in the LUT Configuration Table starts the Interface Table pointers */
 403:Generated_Source\PSoC5/USBUART_hid.c ****     /* Now use the request interface number */
 404:Generated_Source\PSoC5/USBUART_hid.c ****     pTmp = &pTmp[interfaceN + 2u];
 279              		.loc 1 404 0
ARM GAS  C:\Users\EA527~1.IVA\AppData\Local\Temp\ccVzyjha.s 			page 13


 280 001e 991C     		adds	r1, r3, #2
 281 0020 00EBC100 		add	r0, r0, r1, lsl #3
 282              	.LVL32:
 405:Generated_Source\PSoC5/USBUART_hid.c ****     
 406:Generated_Source\PSoC5/USBUART_hid.c ****     /* USB_DEVICEx_CONFIGURATIONy_INTERFACEz_TABLE */
 407:Generated_Source\PSoC5/USBUART_hid.c ****     pTmp = (const T_USBUART_LUT CYCODE *) pTmp->p_list;
 283              		.loc 1 407 0
 284 0024 4168     		ldr	r1, [r0, #4]
 285              	.LVL33:
 408:Generated_Source\PSoC5/USBUART_hid.c ****     if (interfaceN < USBUART_MAX_INTERFACES_NUMBER)
 286              		.loc 1 408 0
 287 0026 012B     		cmp	r3, #1
 288 0028 20D8     		bhi	.L18
 409:Generated_Source\PSoC5/USBUART_hid.c ****     {
 410:Generated_Source\PSoC5/USBUART_hid.c ****         /* Now use Alternate setting number */
 411:Generated_Source\PSoC5/USBUART_hid.c ****         pTmp = &pTmp[USBUART_interfaceSetting[interfaceN]];
 289              		.loc 1 411 0
 290 002a 1448     		ldr	r0, .L21+12
 291 002c C35C     		ldrb	r3, [r0, r3]	@ zero_extendqisi2
 292              	.LVL34:
 293 002e 01EBC301 		add	r1, r1, r3, lsl #3
 294              	.LVL35:
 412:Generated_Source\PSoC5/USBUART_hid.c ****         
 413:Generated_Source\PSoC5/USBUART_hid.c ****         /* USB_DEVICEx_CONFIGURATIONy_INTERFACEz_ALTERNATEi_HID_TABLE */
 414:Generated_Source\PSoC5/USBUART_hid.c ****         pTmp = (const T_USBUART_LUT CYCODE *) pTmp->p_list;
 295              		.loc 1 414 0
 296 0032 4968     		ldr	r1, [r1, #4]
 297              	.LVL36:
 415:Generated_Source\PSoC5/USBUART_hid.c ****         
 416:Generated_Source\PSoC5/USBUART_hid.c ****         /* Validate reportType to comply with "7.2.1 Get_Report Request" */
 417:Generated_Source\PSoC5/USBUART_hid.c ****         if ((reportType >= USBUART_HID_GET_REPORT_INPUT) &&
 298              		.loc 1 417 0
 299 0034 531E     		subs	r3, r2, #1
 300 0036 DBB2     		uxtb	r3, r3
 301 0038 022B     		cmp	r3, #2
 302 003a 17D8     		bhi	.L18
 418:Generated_Source\PSoC5/USBUART_hid.c ****             (reportType <= USBUART_HID_GET_REPORT_FEATURE))
 419:Generated_Source\PSoC5/USBUART_hid.c ****         {
 420:Generated_Source\PSoC5/USBUART_hid.c ****             /* Get the entry proper TD (IN, OUT or Feature Report Table)*/
 421:Generated_Source\PSoC5/USBUART_hid.c ****             pTmp = &pTmp[reportType - 1u];
 303              		.loc 1 421 0
 304 003c 02F10053 		add	r3, r2, #536870912
 305 0040 013B     		subs	r3, r3, #1
 306 0042 01EBC300 		add	r0, r1, r3, lsl #3
 307              	.LVL37:
 422:Generated_Source\PSoC5/USBUART_hid.c ****             
 423:Generated_Source\PSoC5/USBUART_hid.c ****             /* Get reportID */
 424:Generated_Source\PSoC5/USBUART_hid.c ****             reportType = (uint8) USBUART_wValueLoReg;
 308              		.loc 1 424 0
 309 0046 0C4A     		ldr	r2, .L21+8
 310              	.LVL38:
 311 0048 9278     		ldrb	r2, [r2, #2]	@ zero_extendqisi2
 312 004a D2B2     		uxtb	r2, r2
 313              	.LVL39:
 425:Generated_Source\PSoC5/USBUART_hid.c ****             
 426:Generated_Source\PSoC5/USBUART_hid.c ****             /* Validate table support by the HID descriptor, compare table count with reportID */
 427:Generated_Source\PSoC5/USBUART_hid.c ****             if (pTmp->c >= reportType)
ARM GAS  C:\Users\EA527~1.IVA\AppData\Local\Temp\ccVzyjha.s 			page 14


 314              		.loc 1 427 0
 315 004c 11F83330 		ldrb	r3, [r1, r3, lsl #3]	@ zero_extendqisi2
 316 0050 9A42     		cmp	r2, r3
 317 0052 0BD8     		bhi	.L18
 428:Generated_Source\PSoC5/USBUART_hid.c ****             {
 429:Generated_Source\PSoC5/USBUART_hid.c ****                 pTD = (T_USBUART_TD *) pTmp->p_list;
 318              		.loc 1 429 0
 319 0054 4068     		ldr	r0, [r0, #4]
 320              	.LVL40:
 430:Generated_Source\PSoC5/USBUART_hid.c ****                 pTD = &pTD[reportType];                          /* select entry depend on report I
 321              		.loc 1 430 0
 322 0056 02EB4202 		add	r2, r2, r2, lsl #1
 323              	.LVL41:
 324 005a 9100     		lsls	r1, r2, #2
 325 005c 4218     		adds	r2, r0, r1
 326              	.LVL42:
 431:Generated_Source\PSoC5/USBUART_hid.c ****                 USBUART_currentTD.pData = pTD->pData;   /* Buffer pointer */
 327              		.loc 1 431 0
 328 005e 5468     		ldr	r4, [r2, #4]
 329 0060 034B     		ldr	r3, .L21
 330 0062 5C60     		str	r4, [r3, #4]
 432:Generated_Source\PSoC5/USBUART_hid.c ****                 USBUART_currentTD.count = pTD->count;   /* Buffer Size */
 331              		.loc 1 432 0
 332 0064 415A     		ldrh	r1, [r0, r1]
 333 0066 1980     		strh	r1, [r3]	@ movhi
 433:Generated_Source\PSoC5/USBUART_hid.c ****                 USBUART_currentTD.pStatusBlock = pTD->pStatusBlock;
 334              		.loc 1 433 0
 335 0068 9268     		ldr	r2, [r2, #8]
 336              	.LVL43:
 337 006a 9A60     		str	r2, [r3, #8]
 338              	.L18:
 339 006c 10BD     		pop	{r4, pc}
 340              	.L22:
 341 006e 00BF     		.align	2
 342              	.L21:
 343 0070 00000000 		.word	USBUART_currentTD
 344 0074 00000000 		.word	USBUART_configuration
 345 0078 00600040 		.word	1073766400
 346 007c 00000000 		.word	USBUART_interfaceSetting
 347              		.cfi_endproc
 348              	.LFE5:
 349              		.size	USBUART_FindReport, .-USBUART_FindReport
 350              		.section	.text.USBUART_DispatchHIDClassRqst,"ax",%progbits
 351              		.align	2
 352              		.global	USBUART_DispatchHIDClassRqst
 353              		.thumb
 354              		.thumb_func
 355              		.type	USBUART_DispatchHIDClassRqst, %function
 356              	USBUART_DispatchHIDClassRqst:
 357              	.LFB2:
 132:Generated_Source\PSoC5/USBUART_hid.c ****     uint8 requestHandled = USBUART_FALSE;
 358              		.loc 1 132 0
 359              		.cfi_startproc
 360              		@ args = 0, pretend = 0, frame = 0
 361              		@ frame_needed = 0, uses_anonymous_args = 0
 362 0000 08B5     		push	{r3, lr}
 363              		.cfi_def_cfa_offset 8
ARM GAS  C:\Users\EA527~1.IVA\AppData\Local\Temp\ccVzyjha.s 			page 15


 364              		.cfi_offset 3, -8
 365              		.cfi_offset 14, -4
 366              	.LVL44:
 135:Generated_Source\PSoC5/USBUART_hid.c ****     
 367              		.loc 1 135 0
 368 0002 5B4B     		ldr	r3, .L53
 369 0004 1A79     		ldrb	r2, [r3, #4]	@ zero_extendqisi2
 370 0006 D2B2     		uxtb	r2, r2
 371              	.LVL45:
 138:Generated_Source\PSoC5/USBUART_hid.c ****     {
 372              		.loc 1 138 0
 373 0008 1B78     		ldrb	r3, [r3]	@ zero_extendqisi2
 374 000a 13F0800F 		tst	r3, #128
 375 000e 4DD0     		beq	.L24
 142:Generated_Source\PSoC5/USBUART_hid.c ****         {
 376              		.loc 1 142 0
 377 0010 574B     		ldr	r3, .L53
 378 0012 5B78     		ldrb	r3, [r3, #1]	@ zero_extendqisi2
 379 0014 013B     		subs	r3, r3, #1
 380 0016 052B     		cmp	r3, #5
 381 0018 00F28E80 		bhi	.L37
 382 001c DFE803F0 		tbb	[pc, r3]
 383              	.L27:
 384 0020 21       		.byte	(.L26-.L27)/2
 385 0021 2B       		.byte	(.L28-.L27)/2
 386 0022 3B       		.byte	(.L29-.L27)/2
 387 0023 8C       		.byte	(.L37-.L27)/2
 388 0024 8C       		.byte	(.L37-.L27)/2
 389 0025 03       		.byte	(.L30-.L27)/2
 390              		.p2align 1
 391              	.L30:
 145:Generated_Source\PSoC5/USBUART_hid.c ****                 {
 392              		.loc 1 145 0
 393 0026 524B     		ldr	r3, .L53
 394 0028 DB78     		ldrb	r3, [r3, #3]	@ zero_extendqisi2
 395 002a DBB2     		uxtb	r3, r3
 396 002c 212B     		cmp	r3, #33
 397 002e 09D1     		bne	.L31
 147:Generated_Source\PSoC5/USBUART_hid.c ****                     if (USBUART_currentTD.count != 0u)
 398              		.loc 1 147 0
 399 0030 FFF7FEFF 		bl	USBUART_FindHidClassDecriptor
 400              	.LVL46:
 148:Generated_Source\PSoC5/USBUART_hid.c ****                     {
 401              		.loc 1 148 0
 402 0034 4F4B     		ldr	r3, .L53+4
 403 0036 1B88     		ldrh	r3, [r3]
 404 0038 9BB2     		uxth	r3, r3
 405 003a 002B     		cmp	r3, #0
 406 003c 7ED0     		beq	.L38
 150:Generated_Source\PSoC5/USBUART_hid.c ****                     }
 407              		.loc 1 150 0
 408 003e FFF7FEFF 		bl	USBUART_InitControlRead
 409              	.LVL47:
 410 0042 08BD     		pop	{r3, pc}
 411              	.LVL48:
 412              	.L31:
 153:Generated_Source\PSoC5/USBUART_hid.c ****                 {
ARM GAS  C:\Users\EA527~1.IVA\AppData\Local\Temp\ccVzyjha.s 			page 16


 413              		.loc 1 153 0
 414 0044 4A4B     		ldr	r3, .L53
 415 0046 DB78     		ldrb	r3, [r3, #3]	@ zero_extendqisi2
 416 0048 DBB2     		uxtb	r3, r3
 417 004a 222B     		cmp	r3, #34
 418 004c 78D1     		bne	.L39
 155:Generated_Source\PSoC5/USBUART_hid.c ****                     if (USBUART_currentTD.count != 0u)
 419              		.loc 1 155 0
 420 004e FFF7FEFF 		bl	USBUART_FindReportDescriptor
 421              	.LVL49:
 156:Generated_Source\PSoC5/USBUART_hid.c ****                     {
 422              		.loc 1 156 0
 423 0052 484B     		ldr	r3, .L53+4
 424 0054 1B88     		ldrh	r3, [r3]
 425 0056 9BB2     		uxth	r3, r3
 426 0058 002B     		cmp	r3, #0
 427 005a 73D0     		beq	.L40
 158:Generated_Source\PSoC5/USBUART_hid.c ****                     }
 428              		.loc 1 158 0
 429 005c FFF7FEFF 		bl	USBUART_InitControlRead
 430              	.LVL50:
 431 0060 08BD     		pop	{r3, pc}
 432              	.LVL51:
 433              	.L26:
 168:Generated_Source\PSoC5/USBUART_hid.c ****                 if (USBUART_currentTD.count != 0u)
 434              		.loc 1 168 0
 435 0062 FFF7FEFF 		bl	USBUART_FindReport
 436              	.LVL52:
 169:Generated_Source\PSoC5/USBUART_hid.c ****                 {
 437              		.loc 1 169 0
 438 0066 434B     		ldr	r3, .L53+4
 439 0068 1B88     		ldrh	r3, [r3]
 440 006a 9BB2     		uxth	r3, r3
 441 006c 002B     		cmp	r3, #0
 442 006e 6BD0     		beq	.L41
 171:Generated_Source\PSoC5/USBUART_hid.c ****                 }
 443              		.loc 1 171 0
 444 0070 FFF7FEFF 		bl	USBUART_InitControlRead
 445              	.LVL53:
 446 0074 08BD     		pop	{r3, pc}
 447              	.LVL54:
 448              	.L28:
 178:Generated_Source\PSoC5/USBUART_hid.c ****                 {
 449              		.loc 1 178 0
 450 0076 012A     		cmp	r2, #1
 451 0078 68D8     		bhi	.L42
 178:Generated_Source\PSoC5/USBUART_hid.c ****                 {
 452              		.loc 1 178 0 is_stmt 0 discriminator 1
 453 007a 3D4B     		ldr	r3, .L53
 454 007c 9B78     		ldrb	r3, [r3, #2]	@ zero_extendqisi2
 455 007e 13F0FF0F 		tst	r3, #255
 456 0082 65D1     		bne	.L43
 180:Generated_Source\PSoC5/USBUART_hid.c ****                     USBUART_currentTD.pData = &USBUART_hidIdleRate[interfaceNumber];
 457              		.loc 1 180 0 is_stmt 1
 458 0084 3B49     		ldr	r1, .L53+4
 459 0086 0123     		movs	r3, #1
 460 0088 0B80     		strh	r3, [r1]	@ movhi
ARM GAS  C:\Users\EA527~1.IVA\AppData\Local\Temp\ccVzyjha.s 			page 17


 181:Generated_Source\PSoC5/USBUART_hid.c ****                     requestHandled  = USBUART_InitControlRead();
 461              		.loc 1 181 0
 462 008a 3B4B     		ldr	r3, .L53+8
 463 008c 1A44     		add	r2, r2, r3
 464              	.LVL55:
 465 008e 4A60     		str	r2, [r1, #4]
 182:Generated_Source\PSoC5/USBUART_hid.c ****                 }
 466              		.loc 1 182 0
 467 0090 FFF7FEFF 		bl	USBUART_InitControlRead
 468              	.LVL56:
 469 0094 08BD     		pop	{r3, pc}
 470              	.LVL57:
 471              	.L29:
 188:Generated_Source\PSoC5/USBUART_hid.c ****                 {
 472              		.loc 1 188 0
 473 0096 012A     		cmp	r2, #1
 474 0098 5CD8     		bhi	.L44
 190:Generated_Source\PSoC5/USBUART_hid.c ****                     USBUART_currentTD.pData = &USBUART_hidProtocol[interfaceNumber];
 475              		.loc 1 190 0
 476 009a 3649     		ldr	r1, .L53+4
 477 009c 0123     		movs	r3, #1
 478 009e 0B80     		strh	r3, [r1]	@ movhi
 191:Generated_Source\PSoC5/USBUART_hid.c ****                     requestHandled  = USBUART_InitControlRead();
 479              		.loc 1 191 0
 480 00a0 364B     		ldr	r3, .L53+12
 481 00a2 1A44     		add	r2, r2, r3
 482              	.LVL58:
 483 00a4 4A60     		str	r2, [r1, #4]
 192:Generated_Source\PSoC5/USBUART_hid.c ****                 }
 484              		.loc 1 192 0
 485 00a6 FFF7FEFF 		bl	USBUART_InitControlRead
 486              	.LVL59:
 487 00aa 08BD     		pop	{r3, pc}
 488              	.LVL60:
 489              	.L24:
 204:Generated_Source\PSoC5/USBUART_hid.c ****         {
 490              		.loc 1 204 0
 491 00ac 304B     		ldr	r3, .L53
 492 00ae 5B78     		ldrb	r3, [r3, #1]	@ zero_extendqisi2
 493 00b0 DBB2     		uxtb	r3, r3
 494 00b2 0A2B     		cmp	r3, #10
 495 00b4 0DD0     		beq	.L32
 496 00b6 0B2B     		cmp	r3, #11
 497 00b8 2FD0     		beq	.L33
 498 00ba 092B     		cmp	r3, #9
 499 00bc 4CD1     		bne	.L51
 207:Generated_Source\PSoC5/USBUART_hid.c ****                 if (USBUART_currentTD.count != 0u)
 500              		.loc 1 207 0
 501 00be FFF7FEFF 		bl	USBUART_FindReport
 502              	.LVL61:
 208:Generated_Source\PSoC5/USBUART_hid.c ****                 {
 503              		.loc 1 208 0
 504 00c2 2C4B     		ldr	r3, .L53+4
 505 00c4 1B88     		ldrh	r3, [r3]
 506 00c6 9BB2     		uxth	r3, r3
 507 00c8 002B     		cmp	r3, #0
 508 00ca 47D0     		beq	.L46
ARM GAS  C:\Users\EA527~1.IVA\AppData\Local\Temp\ccVzyjha.s 			page 18


 210:Generated_Source\PSoC5/USBUART_hid.c ****                 }
 509              		.loc 1 210 0
 510 00cc FFF7FEFF 		bl	USBUART_InitControlWrite
 511              	.LVL62:
 512 00d0 08BD     		pop	{r3, pc}
 513              	.LVL63:
 514              	.L32:
 217:Generated_Source\PSoC5/USBUART_hid.c ****                 {
 515              		.loc 1 217 0
 516 00d2 012A     		cmp	r2, #1
 517 00d4 44D8     		bhi	.L47
 217:Generated_Source\PSoC5/USBUART_hid.c ****                 {
 518              		.loc 1 217 0 is_stmt 0 discriminator 1
 519 00d6 264B     		ldr	r3, .L53
 520 00d8 9B78     		ldrb	r3, [r3, #2]	@ zero_extendqisi2
 521 00da 13F0FF0F 		tst	r3, #255
 522 00de 41D1     		bne	.L48
 219:Generated_Source\PSoC5/USBUART_hid.c ****                     /* With regards to HID spec: "7.2.4 Set_Idle Request"
 523              		.loc 1 219 0 is_stmt 1
 524 00e0 234B     		ldr	r3, .L53
 525 00e2 DB78     		ldrb	r3, [r3, #3]	@ zero_extendqisi2
 526 00e4 DBB2     		uxtb	r3, r3
 527 00e6 2449     		ldr	r1, .L53+8
 528 00e8 8B54     		strb	r3, [r1, r2]
 225:Generated_Source\PSoC5/USBUART_hid.c ****                        USBUART_hidIdleTimer[interfaceNumber])
 529              		.loc 1 225 0
 530 00ea 895C     		ldrb	r1, [r1, r2]	@ zero_extendqisi2
 531 00ec C9B2     		uxtb	r1, r1
 226:Generated_Source\PSoC5/USBUART_hid.c ****                     {
 532              		.loc 1 226 0
 533 00ee 244B     		ldr	r3, .L53+16
 534 00f0 9B5C     		ldrb	r3, [r3, r2]	@ zero_extendqisi2
 535 00f2 DBB2     		uxtb	r3, r3
 225:Generated_Source\PSoC5/USBUART_hid.c ****                        USBUART_hidIdleTimer[interfaceNumber])
 536              		.loc 1 225 0
 537 00f4 9942     		cmp	r1, r3
 538 00f6 03D2     		bcs	.L35
 229:Generated_Source\PSoC5/USBUART_hid.c ****                     }
 539              		.loc 1 229 0
 540 00f8 0021     		movs	r1, #0
 541 00fa 214B     		ldr	r3, .L53+16
 542 00fc 9954     		strb	r1, [r3, r2]
 543 00fe 09E0     		b	.L36
 544              	.L35:
 235:Generated_Source\PSoC5/USBUART_hid.c ****                     {
 545              		.loc 1 235 0
 546 0100 1F4B     		ldr	r3, .L53+16
 547 0102 9B5C     		ldrb	r3, [r3, r2]	@ zero_extendqisi2
 548 0104 DBB2     		uxtb	r3, r3
 549 0106 012B     		cmp	r3, #1
 550 0108 04D9     		bls	.L36
 245:Generated_Source\PSoC5/USBUART_hid.c ****                     }
 551              		.loc 1 245 0
 552 010a 1B4B     		ldr	r3, .L53+8
 553 010c 9B5C     		ldrb	r3, [r3, r2]	@ zero_extendqisi2
 554 010e DBB2     		uxtb	r3, r3
 244:Generated_Source\PSoC5/USBUART_hid.c ****                         USBUART_hidIdleRate[interfaceNumber];
ARM GAS  C:\Users\EA527~1.IVA\AppData\Local\Temp\ccVzyjha.s 			page 19


 555              		.loc 1 244 0
 556 0110 1B49     		ldr	r1, .L53+16
 557 0112 8B54     		strb	r3, [r1, r2]
 558              	.L36:
 247:Generated_Source\PSoC5/USBUART_hid.c ****                 }
 559              		.loc 1 247 0
 560 0114 FFF7FEFF 		bl	USBUART_InitNoDataControlTransfer
 561              	.LVL64:
 562 0118 08BD     		pop	{r3, pc}
 563              	.LVL65:
 564              	.L33:
 253:Generated_Source\PSoC5/USBUART_hid.c ****                 {
 565              		.loc 1 253 0
 566 011a 012A     		cmp	r2, #1
 567 011c 24D8     		bhi	.L49
 253:Generated_Source\PSoC5/USBUART_hid.c ****                 {
 568              		.loc 1 253 0 is_stmt 0 discriminator 1
 569 011e 144B     		ldr	r3, .L53
 570 0120 9B78     		ldrb	r3, [r3, #2]	@ zero_extendqisi2
 571 0122 DBB2     		uxtb	r3, r3
 572 0124 012B     		cmp	r3, #1
 573 0126 21D8     		bhi	.L50
 255:Generated_Source\PSoC5/USBUART_hid.c ****                     requestHandled = USBUART_InitNoDataControlTransfer();
 574              		.loc 1 255 0 is_stmt 1
 575 0128 114B     		ldr	r3, .L53
 576 012a 9B78     		ldrb	r3, [r3, #2]	@ zero_extendqisi2
 577 012c DBB2     		uxtb	r3, r3
 578 012e 1349     		ldr	r1, .L53+12
 579 0130 8B54     		strb	r3, [r1, r2]
 256:Generated_Source\PSoC5/USBUART_hid.c ****                 }
 580              		.loc 1 256 0
 581 0132 FFF7FEFF 		bl	USBUART_InitNoDataControlTransfer
 582              	.LVL66:
 583 0136 08BD     		pop	{r3, pc}
 584              	.LVL67:
 585              	.L37:
 133:Generated_Source\PSoC5/USBUART_hid.c **** 
 586              		.loc 1 133 0
 587 0138 0020     		movs	r0, #0
 588 013a 08BD     		pop	{r3, pc}
 589              	.LVL68:
 590              	.L38:
 591 013c 0020     		movs	r0, #0
 592 013e 08BD     		pop	{r3, pc}
 593              	.LVL69:
 594              	.L39:
 595 0140 0020     		movs	r0, #0
 596 0142 08BD     		pop	{r3, pc}
 597              	.LVL70:
 598              	.L40:
 599 0144 0020     		movs	r0, #0
 600 0146 08BD     		pop	{r3, pc}
 601              	.L41:
 602 0148 0020     		movs	r0, #0
 603 014a 08BD     		pop	{r3, pc}
 604              	.LVL71:
 605              	.L42:
ARM GAS  C:\Users\EA527~1.IVA\AppData\Local\Temp\ccVzyjha.s 			page 20


 606 014c 0020     		movs	r0, #0
 607 014e 08BD     		pop	{r3, pc}
 608              	.L43:
 609 0150 0020     		movs	r0, #0
 610 0152 08BD     		pop	{r3, pc}
 611              	.L44:
 612 0154 0020     		movs	r0, #0
 613 0156 08BD     		pop	{r3, pc}
 614              	.L51:
 615 0158 0020     		movs	r0, #0
 616 015a 08BD     		pop	{r3, pc}
 617              	.LVL72:
 618              	.L46:
 619 015c 0020     		movs	r0, #0
 620 015e 08BD     		pop	{r3, pc}
 621              	.LVL73:
 622              	.L47:
 623 0160 0020     		movs	r0, #0
 624 0162 08BD     		pop	{r3, pc}
 625              	.L48:
 626 0164 0020     		movs	r0, #0
 627 0166 08BD     		pop	{r3, pc}
 628              	.L49:
 629 0168 0020     		movs	r0, #0
 630 016a 08BD     		pop	{r3, pc}
 631              	.L50:
 632 016c 0020     		movs	r0, #0
 633              	.LVL74:
 267:Generated_Source\PSoC5/USBUART_hid.c **** 
 634              		.loc 1 267 0
 635 016e 08BD     		pop	{r3, pc}
 636              	.L54:
 637              		.align	2
 638              	.L53:
 639 0170 00600040 		.word	1073766400
 640 0174 00000000 		.word	USBUART_currentTD
 641 0178 00000000 		.word	USBUART_hidIdleRate
 642 017c 00000000 		.word	USBUART_hidProtocol
 643 0180 00000000 		.word	USBUART_hidIdleTimer
 644              		.cfi_endproc
 645              	.LFE2:
 646              		.size	USBUART_DispatchHIDClassRqst, .-USBUART_DispatchHIDClassRqst
 647              		.comm	USBUART_hidIdleTimer,2,4
 648              		.comm	USBUART_hidIdleRate,2,4
 649              		.comm	USBUART_hidProtocol,2,4
 650              		.text
 651              	.Letext0:
 652              		.file 2 "Generated_Source\\PSoC5\\cytypes.h"
 653              		.file 3 "Generated_Source\\PSoC5\\USBUART.h"
 654              		.file 4 "Generated_Source\\PSoC5\\USBUART_pvt.h"