ARM GAS  C:\Users\EA527~1.IVA\AppData\Local\Temp\ccgQuQ5X.s 			page 1


   1              		.syntax unified
   2              		.cpu cortex-m3
   3              		.fpu softvfp
   4              		.eabi_attribute 20, 1
   5              		.eabi_attribute 21, 1
   6              		.eabi_attribute 23, 3
   7              		.eabi_attribute 24, 1
   8              		.eabi_attribute 25, 1
   9              		.eabi_attribute 26, 1
  10              		.eabi_attribute 30, 1
  11              		.eabi_attribute 34, 1
  12              		.eabi_attribute 18, 4
  13              		.thumb
  14              		.syntax unified
  15              		.file	"WordShifted.c"
  16              		.text
  17              	.Ltext0:
  18              		.cfi_sections	.debug_frame
  19              		.section	.text.WordShifted_SetVector,"ax",%progbits
  20              		.align	2
  21              		.global	WordShifted_SetVector
  22              		.thumb
  23              		.thumb_func
  24              		.type	WordShifted_SetVector, %function
  25              	WordShifted_SetVector:
  26              	.LFB4:
  27              		.file 1 "Generated_Source\\PSoC5\\WordShifted.c"
   1:Generated_Source\PSoC5/WordShifted.c **** /*******************************************************************************
   2:Generated_Source\PSoC5/WordShifted.c **** * File Name: WordShifted.c  
   3:Generated_Source\PSoC5/WordShifted.c **** * Version 1.70
   4:Generated_Source\PSoC5/WordShifted.c **** *
   5:Generated_Source\PSoC5/WordShifted.c **** *  Description:
   6:Generated_Source\PSoC5/WordShifted.c **** *   API for controlling the state of an interrupt.
   7:Generated_Source\PSoC5/WordShifted.c **** *
   8:Generated_Source\PSoC5/WordShifted.c **** *
   9:Generated_Source\PSoC5/WordShifted.c **** *  Note:
  10:Generated_Source\PSoC5/WordShifted.c **** *
  11:Generated_Source\PSoC5/WordShifted.c **** ********************************************************************************
  12:Generated_Source\PSoC5/WordShifted.c **** * Copyright 2008-2015, Cypress Semiconductor Corporation.  All rights reserved.
  13:Generated_Source\PSoC5/WordShifted.c **** * You may use this file only in accordance with the license, terms, conditions, 
  14:Generated_Source\PSoC5/WordShifted.c **** * disclaimers, and limitations in the end user license agreement accompanying 
  15:Generated_Source\PSoC5/WordShifted.c **** * the software package with which this file was provided.
  16:Generated_Source\PSoC5/WordShifted.c **** *******************************************************************************/
  17:Generated_Source\PSoC5/WordShifted.c **** 
  18:Generated_Source\PSoC5/WordShifted.c **** 
  19:Generated_Source\PSoC5/WordShifted.c **** #include <cydevice_trm.h>
  20:Generated_Source\PSoC5/WordShifted.c **** #include <CyLib.h>
  21:Generated_Source\PSoC5/WordShifted.c **** #include <WordShifted.h>
  22:Generated_Source\PSoC5/WordShifted.c **** #include "cyapicallbacks.h"
  23:Generated_Source\PSoC5/WordShifted.c **** 
  24:Generated_Source\PSoC5/WordShifted.c **** #if !defined(WordShifted__REMOVED) /* Check for removal by optimization */
  25:Generated_Source\PSoC5/WordShifted.c **** 
  26:Generated_Source\PSoC5/WordShifted.c **** /*******************************************************************************
  27:Generated_Source\PSoC5/WordShifted.c **** *  Place your includes, defines and code here 
  28:Generated_Source\PSoC5/WordShifted.c **** ********************************************************************************/
  29:Generated_Source\PSoC5/WordShifted.c **** /* `#START WordShifted_intc` */
  30:Generated_Source\PSoC5/WordShifted.c **** #include <BitCounterDec.h>
ARM GAS  C:\Users\EA527~1.IVA\AppData\Local\Temp\ccgQuQ5X.s 			page 2


  31:Generated_Source\PSoC5/WordShifted.c **** #include <RecieveShiftReg.h>
  32:Generated_Source\PSoC5/WordShifted.c **** #include <reciver.h>
  33:Generated_Source\PSoC5/WordShifted.c ****     #include <line_buf.h>
  34:Generated_Source\PSoC5/WordShifted.c ****     
  35:Generated_Source\PSoC5/WordShifted.c ****     extern volatile unsigned int first;
  36:Generated_Source\PSoC5/WordShifted.c ****     uint32 tmp;
  37:Generated_Source\PSoC5/WordShifted.c **** /* `#END` */
  38:Generated_Source\PSoC5/WordShifted.c **** 
  39:Generated_Source\PSoC5/WordShifted.c **** #ifndef CYINT_IRQ_BASE
  40:Generated_Source\PSoC5/WordShifted.c **** #define CYINT_IRQ_BASE      16
  41:Generated_Source\PSoC5/WordShifted.c **** #endif /* CYINT_IRQ_BASE */
  42:Generated_Source\PSoC5/WordShifted.c **** #ifndef CYINT_VECT_TABLE
  43:Generated_Source\PSoC5/WordShifted.c **** #define CYINT_VECT_TABLE    ((cyisraddress **) CYREG_NVIC_VECT_OFFSET)
  44:Generated_Source\PSoC5/WordShifted.c **** #endif /* CYINT_VECT_TABLE */
  45:Generated_Source\PSoC5/WordShifted.c **** 
  46:Generated_Source\PSoC5/WordShifted.c **** /* Declared in startup, used to set unused interrupts to. */
  47:Generated_Source\PSoC5/WordShifted.c **** CY_ISR_PROTO(IntDefaultHandler);
  48:Generated_Source\PSoC5/WordShifted.c **** 
  49:Generated_Source\PSoC5/WordShifted.c **** 
  50:Generated_Source\PSoC5/WordShifted.c **** /*******************************************************************************
  51:Generated_Source\PSoC5/WordShifted.c **** * Function Name: WordShifted_Start
  52:Generated_Source\PSoC5/WordShifted.c **** ********************************************************************************
  53:Generated_Source\PSoC5/WordShifted.c **** *
  54:Generated_Source\PSoC5/WordShifted.c **** * Summary:
  55:Generated_Source\PSoC5/WordShifted.c **** *  Set up the interrupt and enable it. This function disables the interrupt, 
  56:Generated_Source\PSoC5/WordShifted.c **** *  sets the default interrupt vector, sets the priority from the value in the
  57:Generated_Source\PSoC5/WordShifted.c **** *  Design Wide Resources Interrupt Editor, then enables the interrupt to the 
  58:Generated_Source\PSoC5/WordShifted.c **** *  interrupt controller.
  59:Generated_Source\PSoC5/WordShifted.c **** *
  60:Generated_Source\PSoC5/WordShifted.c **** * Parameters:  
  61:Generated_Source\PSoC5/WordShifted.c **** *   None
  62:Generated_Source\PSoC5/WordShifted.c **** *
  63:Generated_Source\PSoC5/WordShifted.c **** * Return:
  64:Generated_Source\PSoC5/WordShifted.c **** *   None
  65:Generated_Source\PSoC5/WordShifted.c **** *
  66:Generated_Source\PSoC5/WordShifted.c **** *******************************************************************************/
  67:Generated_Source\PSoC5/WordShifted.c **** void WordShifted_Start(void)
  68:Generated_Source\PSoC5/WordShifted.c **** {
  69:Generated_Source\PSoC5/WordShifted.c ****     /* For all we know the interrupt is active. */
  70:Generated_Source\PSoC5/WordShifted.c ****     WordShifted_Disable();
  71:Generated_Source\PSoC5/WordShifted.c **** 
  72:Generated_Source\PSoC5/WordShifted.c ****     /* Set the ISR to point to the WordShifted Interrupt. */
  73:Generated_Source\PSoC5/WordShifted.c ****     WordShifted_SetVector(&WordShifted_Interrupt);
  74:Generated_Source\PSoC5/WordShifted.c **** 
  75:Generated_Source\PSoC5/WordShifted.c ****     /* Set the priority. */
  76:Generated_Source\PSoC5/WordShifted.c ****     WordShifted_SetPriority((uint8)WordShifted_INTC_PRIOR_NUMBER);
  77:Generated_Source\PSoC5/WordShifted.c **** 
  78:Generated_Source\PSoC5/WordShifted.c ****     /* Enable it. */
  79:Generated_Source\PSoC5/WordShifted.c ****     WordShifted_Enable();
  80:Generated_Source\PSoC5/WordShifted.c **** }
  81:Generated_Source\PSoC5/WordShifted.c **** 
  82:Generated_Source\PSoC5/WordShifted.c **** 
  83:Generated_Source\PSoC5/WordShifted.c **** /*******************************************************************************
  84:Generated_Source\PSoC5/WordShifted.c **** * Function Name: WordShifted_StartEx
  85:Generated_Source\PSoC5/WordShifted.c **** ********************************************************************************
  86:Generated_Source\PSoC5/WordShifted.c **** *
  87:Generated_Source\PSoC5/WordShifted.c **** * Summary:
ARM GAS  C:\Users\EA527~1.IVA\AppData\Local\Temp\ccgQuQ5X.s 			page 3


  88:Generated_Source\PSoC5/WordShifted.c **** *  Sets up the interrupt and enables it. This function disables the interrupt,
  89:Generated_Source\PSoC5/WordShifted.c **** *  sets the interrupt vector based on the address passed in, sets the priority 
  90:Generated_Source\PSoC5/WordShifted.c **** *  from the value in the Design Wide Resources Interrupt Editor, then enables 
  91:Generated_Source\PSoC5/WordShifted.c **** *  the interrupt to the interrupt controller.
  92:Generated_Source\PSoC5/WordShifted.c **** *  
  93:Generated_Source\PSoC5/WordShifted.c **** *  When defining ISR functions, the CY_ISR and CY_ISR_PROTO macros should be 
  94:Generated_Source\PSoC5/WordShifted.c **** *  used to provide consistent definition across compilers:
  95:Generated_Source\PSoC5/WordShifted.c **** *  
  96:Generated_Source\PSoC5/WordShifted.c **** *  Function definition example:
  97:Generated_Source\PSoC5/WordShifted.c **** *   CY_ISR(MyISR)
  98:Generated_Source\PSoC5/WordShifted.c **** *   {
  99:Generated_Source\PSoC5/WordShifted.c **** *   }
 100:Generated_Source\PSoC5/WordShifted.c **** *   Function prototype example:
 101:Generated_Source\PSoC5/WordShifted.c **** *   CY_ISR_PROTO(MyISR);
 102:Generated_Source\PSoC5/WordShifted.c **** *
 103:Generated_Source\PSoC5/WordShifted.c **** * Parameters:  
 104:Generated_Source\PSoC5/WordShifted.c **** *   address: Address of the ISR to set in the interrupt vector table.
 105:Generated_Source\PSoC5/WordShifted.c **** *
 106:Generated_Source\PSoC5/WordShifted.c **** * Return:
 107:Generated_Source\PSoC5/WordShifted.c **** *   None
 108:Generated_Source\PSoC5/WordShifted.c **** *
 109:Generated_Source\PSoC5/WordShifted.c **** *******************************************************************************/
 110:Generated_Source\PSoC5/WordShifted.c **** void WordShifted_StartEx(cyisraddress address)
 111:Generated_Source\PSoC5/WordShifted.c **** {
 112:Generated_Source\PSoC5/WordShifted.c ****     /* For all we know the interrupt is active. */
 113:Generated_Source\PSoC5/WordShifted.c ****     WordShifted_Disable();
 114:Generated_Source\PSoC5/WordShifted.c **** 
 115:Generated_Source\PSoC5/WordShifted.c ****     /* Set the ISR to point to the WordShifted Interrupt. */
 116:Generated_Source\PSoC5/WordShifted.c ****     WordShifted_SetVector(address);
 117:Generated_Source\PSoC5/WordShifted.c **** 
 118:Generated_Source\PSoC5/WordShifted.c ****     /* Set the priority. */
 119:Generated_Source\PSoC5/WordShifted.c ****     WordShifted_SetPriority((uint8)WordShifted_INTC_PRIOR_NUMBER);
 120:Generated_Source\PSoC5/WordShifted.c **** 
 121:Generated_Source\PSoC5/WordShifted.c ****     /* Enable it. */
 122:Generated_Source\PSoC5/WordShifted.c ****     WordShifted_Enable();
 123:Generated_Source\PSoC5/WordShifted.c **** }
 124:Generated_Source\PSoC5/WordShifted.c **** 
 125:Generated_Source\PSoC5/WordShifted.c **** 
 126:Generated_Source\PSoC5/WordShifted.c **** /*******************************************************************************
 127:Generated_Source\PSoC5/WordShifted.c **** * Function Name: WordShifted_Stop
 128:Generated_Source\PSoC5/WordShifted.c **** ********************************************************************************
 129:Generated_Source\PSoC5/WordShifted.c **** *
 130:Generated_Source\PSoC5/WordShifted.c **** * Summary:
 131:Generated_Source\PSoC5/WordShifted.c **** *   Disables and removes the interrupt.
 132:Generated_Source\PSoC5/WordShifted.c **** *
 133:Generated_Source\PSoC5/WordShifted.c **** * Parameters:  
 134:Generated_Source\PSoC5/WordShifted.c **** *   None
 135:Generated_Source\PSoC5/WordShifted.c **** *
 136:Generated_Source\PSoC5/WordShifted.c **** * Return:
 137:Generated_Source\PSoC5/WordShifted.c **** *   None
 138:Generated_Source\PSoC5/WordShifted.c **** *
 139:Generated_Source\PSoC5/WordShifted.c **** *******************************************************************************/
 140:Generated_Source\PSoC5/WordShifted.c **** void WordShifted_Stop(void)
 141:Generated_Source\PSoC5/WordShifted.c **** {
 142:Generated_Source\PSoC5/WordShifted.c ****     /* Disable this interrupt. */
 143:Generated_Source\PSoC5/WordShifted.c ****     WordShifted_Disable();
 144:Generated_Source\PSoC5/WordShifted.c **** 
ARM GAS  C:\Users\EA527~1.IVA\AppData\Local\Temp\ccgQuQ5X.s 			page 4


 145:Generated_Source\PSoC5/WordShifted.c ****     /* Set the ISR to point to the passive one. */
 146:Generated_Source\PSoC5/WordShifted.c ****     WordShifted_SetVector(&IntDefaultHandler);
 147:Generated_Source\PSoC5/WordShifted.c **** }
 148:Generated_Source\PSoC5/WordShifted.c **** 
 149:Generated_Source\PSoC5/WordShifted.c **** 
 150:Generated_Source\PSoC5/WordShifted.c **** /*******************************************************************************
 151:Generated_Source\PSoC5/WordShifted.c **** * Function Name: WordShifted_Interrupt
 152:Generated_Source\PSoC5/WordShifted.c **** ********************************************************************************
 153:Generated_Source\PSoC5/WordShifted.c **** *
 154:Generated_Source\PSoC5/WordShifted.c **** * Summary:
 155:Generated_Source\PSoC5/WordShifted.c **** *   The default Interrupt Service Routine for WordShifted.
 156:Generated_Source\PSoC5/WordShifted.c **** *
 157:Generated_Source\PSoC5/WordShifted.c **** *   Add custom code between the coments to keep the next version of this file
 158:Generated_Source\PSoC5/WordShifted.c **** *   from over writting your code.
 159:Generated_Source\PSoC5/WordShifted.c **** *
 160:Generated_Source\PSoC5/WordShifted.c **** * Parameters:  
 161:Generated_Source\PSoC5/WordShifted.c **** *
 162:Generated_Source\PSoC5/WordShifted.c **** * Return:
 163:Generated_Source\PSoC5/WordShifted.c **** *   None
 164:Generated_Source\PSoC5/WordShifted.c **** *
 165:Generated_Source\PSoC5/WordShifted.c **** *******************************************************************************/
 166:Generated_Source\PSoC5/WordShifted.c **** CY_ISR(WordShifted_Interrupt)
 167:Generated_Source\PSoC5/WordShifted.c **** {
 168:Generated_Source\PSoC5/WordShifted.c ****     #ifdef WordShifted_INTERRUPT_INTERRUPT_CALLBACK
 169:Generated_Source\PSoC5/WordShifted.c ****         WordShifted_Interrupt_InterruptCallback();
 170:Generated_Source\PSoC5/WordShifted.c ****     #endif /* WordShifted_INTERRUPT_INTERRUPT_CALLBACK */ 
 171:Generated_Source\PSoC5/WordShifted.c **** 
 172:Generated_Source\PSoC5/WordShifted.c ****     /*  Place your Interrupt code here. */
 173:Generated_Source\PSoC5/WordShifted.c ****     /* `#START WordShifted_Interrupt` */
 174:Generated_Source\PSoC5/WordShifted.c ****     WordShifted_ClearPending();
 175:Generated_Source\PSoC5/WordShifted.c ****     tmp = RecieveShiftReg_SR_STATUS;
 176:Generated_Source\PSoC5/WordShifted.c **** //    while (RecieveShiftReg_OUT_FIFO_EMPTY != (RecieveShiftReg_SR_STATUS&RecieveShiftReg_OUT_FIFO_
 177:Generated_Source\PSoC5/WordShifted.c ****     while ((tmp&0x40)/*|(!(tmp&0x20))*/){
 178:Generated_Source\PSoC5/WordShifted.c ****         tmp = RecieveShiftReg_ReadData();
 179:Generated_Source\PSoC5/WordShifted.c ****         if(first == 0) first = 1;
 180:Generated_Source\PSoC5/WordShifted.c ****         else {
 181:Generated_Source\PSoC5/WordShifted.c ****             if(CountToRecieve){
 182:Generated_Source\PSoC5/WordShifted.c ****                 CountToRecieve--;
 183:Generated_Source\PSoC5/WordShifted.c ****                 *(current_write++) = tmp;
 184:Generated_Source\PSoC5/WordShifted.c ****             }
 185:Generated_Source\PSoC5/WordShifted.c ****         }
 186:Generated_Source\PSoC5/WordShifted.c ****         tmp = RecieveShiftReg_SR_STATUS;
 187:Generated_Source\PSoC5/WordShifted.c ****     //}while (RecieveShiftReg_OUT_FIFO_EMPTY != (RecieveShiftReg_SR_STATUS&RecieveShiftReg_OUT_FIFO
 188:Generated_Source\PSoC5/WordShifted.c ****     };
 189:Generated_Source\PSoC5/WordShifted.c **** 
 190:Generated_Source\PSoC5/WordShifted.c ****     /* `#END` */
 191:Generated_Source\PSoC5/WordShifted.c **** }
 192:Generated_Source\PSoC5/WordShifted.c **** 
 193:Generated_Source\PSoC5/WordShifted.c **** 
 194:Generated_Source\PSoC5/WordShifted.c **** /*******************************************************************************
 195:Generated_Source\PSoC5/WordShifted.c **** * Function Name: WordShifted_SetVector
 196:Generated_Source\PSoC5/WordShifted.c **** ********************************************************************************
 197:Generated_Source\PSoC5/WordShifted.c **** *
 198:Generated_Source\PSoC5/WordShifted.c **** * Summary:
 199:Generated_Source\PSoC5/WordShifted.c **** *   Change the ISR vector for the Interrupt. Note calling WordShifted_Start
 200:Generated_Source\PSoC5/WordShifted.c **** *   will override any effect this method would have had. To set the vector 
 201:Generated_Source\PSoC5/WordShifted.c **** *   before the component has been started use WordShifted_StartEx instead.
ARM GAS  C:\Users\EA527~1.IVA\AppData\Local\Temp\ccgQuQ5X.s 			page 5


 202:Generated_Source\PSoC5/WordShifted.c **** * 
 203:Generated_Source\PSoC5/WordShifted.c **** *   When defining ISR functions, the CY_ISR and CY_ISR_PROTO macros should be 
 204:Generated_Source\PSoC5/WordShifted.c **** *   used to provide consistent definition across compilers:
 205:Generated_Source\PSoC5/WordShifted.c **** *
 206:Generated_Source\PSoC5/WordShifted.c **** *   Function definition example:
 207:Generated_Source\PSoC5/WordShifted.c **** *   CY_ISR(MyISR)
 208:Generated_Source\PSoC5/WordShifted.c **** *   {
 209:Generated_Source\PSoC5/WordShifted.c **** *   }
 210:Generated_Source\PSoC5/WordShifted.c **** *
 211:Generated_Source\PSoC5/WordShifted.c **** *   Function prototype example:
 212:Generated_Source\PSoC5/WordShifted.c **** *     CY_ISR_PROTO(MyISR);
 213:Generated_Source\PSoC5/WordShifted.c **** *
 214:Generated_Source\PSoC5/WordShifted.c **** * Parameters:
 215:Generated_Source\PSoC5/WordShifted.c **** *   address: Address of the ISR to set in the interrupt vector table.
 216:Generated_Source\PSoC5/WordShifted.c **** *
 217:Generated_Source\PSoC5/WordShifted.c **** * Return:
 218:Generated_Source\PSoC5/WordShifted.c **** *   None
 219:Generated_Source\PSoC5/WordShifted.c **** *
 220:Generated_Source\PSoC5/WordShifted.c **** *******************************************************************************/
 221:Generated_Source\PSoC5/WordShifted.c **** void WordShifted_SetVector(cyisraddress address)
 222:Generated_Source\PSoC5/WordShifted.c **** {
  28              		.loc 1 222 0
  29              		.cfi_startproc
  30              		@ args = 0, pretend = 0, frame = 0
  31              		@ frame_needed = 0, uses_anonymous_args = 0
  32              		@ link register save eliminated.
  33              	.LVL0:
 223:Generated_Source\PSoC5/WordShifted.c ****     cyisraddress * ramVectorTable;
 224:Generated_Source\PSoC5/WordShifted.c **** 
 225:Generated_Source\PSoC5/WordShifted.c ****     ramVectorTable = (cyisraddress *) *CYINT_VECT_TABLE;
  34              		.loc 1 225 0
  35 0000 014B     		ldr	r3, .L2
  36 0002 1B68     		ldr	r3, [r3]
  37              	.LVL1:
 226:Generated_Source\PSoC5/WordShifted.c **** 
 227:Generated_Source\PSoC5/WordShifted.c ****     ramVectorTable[CYINT_IRQ_BASE + (uint32)WordShifted__INTC_NUMBER] = address;
  38              		.loc 1 227 0
  39 0004 5864     		str	r0, [r3, #68]
  40 0006 7047     		bx	lr
  41              	.L3:
  42              		.align	2
  43              	.L2:
  44 0008 08ED00E0 		.word	-536810232
  45              		.cfi_endproc
  46              	.LFE4:
  47              		.size	WordShifted_SetVector, .-WordShifted_SetVector
  48              		.section	.text.WordShifted_GetVector,"ax",%progbits
  49              		.align	2
  50              		.global	WordShifted_GetVector
  51              		.thumb
  52              		.thumb_func
  53              		.type	WordShifted_GetVector, %function
  54              	WordShifted_GetVector:
  55              	.LFB5:
 228:Generated_Source\PSoC5/WordShifted.c **** }
 229:Generated_Source\PSoC5/WordShifted.c **** 
 230:Generated_Source\PSoC5/WordShifted.c **** 
ARM GAS  C:\Users\EA527~1.IVA\AppData\Local\Temp\ccgQuQ5X.s 			page 6


 231:Generated_Source\PSoC5/WordShifted.c **** /*******************************************************************************
 232:Generated_Source\PSoC5/WordShifted.c **** * Function Name: WordShifted_GetVector
 233:Generated_Source\PSoC5/WordShifted.c **** ********************************************************************************
 234:Generated_Source\PSoC5/WordShifted.c **** *
 235:Generated_Source\PSoC5/WordShifted.c **** * Summary:
 236:Generated_Source\PSoC5/WordShifted.c **** *   Gets the "address" of the current ISR vector for the Interrupt.
 237:Generated_Source\PSoC5/WordShifted.c **** *
 238:Generated_Source\PSoC5/WordShifted.c **** * Parameters:
 239:Generated_Source\PSoC5/WordShifted.c **** *   None
 240:Generated_Source\PSoC5/WordShifted.c **** *
 241:Generated_Source\PSoC5/WordShifted.c **** * Return:
 242:Generated_Source\PSoC5/WordShifted.c **** *   Address of the ISR in the interrupt vector table.
 243:Generated_Source\PSoC5/WordShifted.c **** *
 244:Generated_Source\PSoC5/WordShifted.c **** *******************************************************************************/
 245:Generated_Source\PSoC5/WordShifted.c **** cyisraddress WordShifted_GetVector(void)
 246:Generated_Source\PSoC5/WordShifted.c **** {
  56              		.loc 1 246 0
  57              		.cfi_startproc
  58              		@ args = 0, pretend = 0, frame = 0
  59              		@ frame_needed = 0, uses_anonymous_args = 0
  60              		@ link register save eliminated.
 247:Generated_Source\PSoC5/WordShifted.c ****     cyisraddress * ramVectorTable;
 248:Generated_Source\PSoC5/WordShifted.c **** 
 249:Generated_Source\PSoC5/WordShifted.c ****     ramVectorTable = (cyisraddress *) *CYINT_VECT_TABLE;
  61              		.loc 1 249 0
  62 0000 014B     		ldr	r3, .L5
  63 0002 1B68     		ldr	r3, [r3]
  64              	.LVL2:
 250:Generated_Source\PSoC5/WordShifted.c **** 
 251:Generated_Source\PSoC5/WordShifted.c ****     return ramVectorTable[CYINT_IRQ_BASE + (uint32)WordShifted__INTC_NUMBER];
 252:Generated_Source\PSoC5/WordShifted.c **** }
  65              		.loc 1 252 0
  66 0004 586C     		ldr	r0, [r3, #68]
  67 0006 7047     		bx	lr
  68              	.L6:
  69              		.align	2
  70              	.L5:
  71 0008 08ED00E0 		.word	-536810232
  72              		.cfi_endproc
  73              	.LFE5:
  74              		.size	WordShifted_GetVector, .-WordShifted_GetVector
  75              		.section	.text.WordShifted_SetPriority,"ax",%progbits
  76              		.align	2
  77              		.global	WordShifted_SetPriority
  78              		.thumb
  79              		.thumb_func
  80              		.type	WordShifted_SetPriority, %function
  81              	WordShifted_SetPriority:
  82              	.LFB6:
 253:Generated_Source\PSoC5/WordShifted.c **** 
 254:Generated_Source\PSoC5/WordShifted.c **** 
 255:Generated_Source\PSoC5/WordShifted.c **** /*******************************************************************************
 256:Generated_Source\PSoC5/WordShifted.c **** * Function Name: WordShifted_SetPriority
 257:Generated_Source\PSoC5/WordShifted.c **** ********************************************************************************
 258:Generated_Source\PSoC5/WordShifted.c **** *
 259:Generated_Source\PSoC5/WordShifted.c **** * Summary:
 260:Generated_Source\PSoC5/WordShifted.c **** *   Sets the Priority of the Interrupt. 
ARM GAS  C:\Users\EA527~1.IVA\AppData\Local\Temp\ccgQuQ5X.s 			page 7


 261:Generated_Source\PSoC5/WordShifted.c **** *
 262:Generated_Source\PSoC5/WordShifted.c **** *   Note calling WordShifted_Start or WordShifted_StartEx will 
 263:Generated_Source\PSoC5/WordShifted.c **** *   override any effect this API would have had. This API should only be called
 264:Generated_Source\PSoC5/WordShifted.c **** *   after WordShifted_Start or WordShifted_StartEx has been called. 
 265:Generated_Source\PSoC5/WordShifted.c **** *   To set the initial priority for the component, use the Design-Wide Resources
 266:Generated_Source\PSoC5/WordShifted.c **** *   Interrupt Editor.
 267:Generated_Source\PSoC5/WordShifted.c **** *
 268:Generated_Source\PSoC5/WordShifted.c **** *   Note This API has no effect on Non-maskable interrupt NMI).
 269:Generated_Source\PSoC5/WordShifted.c **** *
 270:Generated_Source\PSoC5/WordShifted.c **** * Parameters:
 271:Generated_Source\PSoC5/WordShifted.c **** *   priority: Priority of the interrupt, 0 being the highest priority
 272:Generated_Source\PSoC5/WordShifted.c **** *             PSoC 3 and PSoC 5LP: Priority is from 0 to 7.
 273:Generated_Source\PSoC5/WordShifted.c **** *             PSoC 4: Priority is from 0 to 3.
 274:Generated_Source\PSoC5/WordShifted.c **** *
 275:Generated_Source\PSoC5/WordShifted.c **** * Return:
 276:Generated_Source\PSoC5/WordShifted.c **** *   None
 277:Generated_Source\PSoC5/WordShifted.c **** *
 278:Generated_Source\PSoC5/WordShifted.c **** *******************************************************************************/
 279:Generated_Source\PSoC5/WordShifted.c **** void WordShifted_SetPriority(uint8 priority)
 280:Generated_Source\PSoC5/WordShifted.c **** {
  83              		.loc 1 280 0
  84              		.cfi_startproc
  85              		@ args = 0, pretend = 0, frame = 0
  86              		@ frame_needed = 0, uses_anonymous_args = 0
  87              		@ link register save eliminated.
  88              	.LVL3:
 281:Generated_Source\PSoC5/WordShifted.c ****     *WordShifted_INTC_PRIOR = priority << 5;
  89              		.loc 1 281 0
  90 0000 4001     		lsls	r0, r0, #5
  91              	.LVL4:
  92 0002 C0B2     		uxtb	r0, r0
  93 0004 014B     		ldr	r3, .L8
  94 0006 1870     		strb	r0, [r3]
  95 0008 7047     		bx	lr
  96              	.L9:
  97 000a 00BF     		.align	2
  98              	.L8:
  99 000c 01E400E0 		.word	-536812543
 100              		.cfi_endproc
 101              	.LFE6:
 102              		.size	WordShifted_SetPriority, .-WordShifted_SetPriority
 103              		.section	.text.WordShifted_GetPriority,"ax",%progbits
 104              		.align	2
 105              		.global	WordShifted_GetPriority
 106              		.thumb
 107              		.thumb_func
 108              		.type	WordShifted_GetPriority, %function
 109              	WordShifted_GetPriority:
 110              	.LFB7:
 282:Generated_Source\PSoC5/WordShifted.c **** }
 283:Generated_Source\PSoC5/WordShifted.c **** 
 284:Generated_Source\PSoC5/WordShifted.c **** 
 285:Generated_Source\PSoC5/WordShifted.c **** /*******************************************************************************
 286:Generated_Source\PSoC5/WordShifted.c **** * Function Name: WordShifted_GetPriority
 287:Generated_Source\PSoC5/WordShifted.c **** ********************************************************************************
 288:Generated_Source\PSoC5/WordShifted.c **** *
 289:Generated_Source\PSoC5/WordShifted.c **** * Summary:
ARM GAS  C:\Users\EA527~1.IVA\AppData\Local\Temp\ccgQuQ5X.s 			page 8


 290:Generated_Source\PSoC5/WordShifted.c **** *   Gets the Priority of the Interrupt.
 291:Generated_Source\PSoC5/WordShifted.c **** *
 292:Generated_Source\PSoC5/WordShifted.c **** * Parameters:
 293:Generated_Source\PSoC5/WordShifted.c **** *   None
 294:Generated_Source\PSoC5/WordShifted.c **** *
 295:Generated_Source\PSoC5/WordShifted.c **** * Return:
 296:Generated_Source\PSoC5/WordShifted.c **** *   Priority of the interrupt, 0 being the highest priority
 297:Generated_Source\PSoC5/WordShifted.c **** *    PSoC 3 and PSoC 5LP: Priority is from 0 to 7.
 298:Generated_Source\PSoC5/WordShifted.c **** *    PSoC 4: Priority is from 0 to 3.
 299:Generated_Source\PSoC5/WordShifted.c **** *
 300:Generated_Source\PSoC5/WordShifted.c **** *******************************************************************************/
 301:Generated_Source\PSoC5/WordShifted.c **** uint8 WordShifted_GetPriority(void)
 302:Generated_Source\PSoC5/WordShifted.c **** {
 111              		.loc 1 302 0
 112              		.cfi_startproc
 113              		@ args = 0, pretend = 0, frame = 0
 114              		@ frame_needed = 0, uses_anonymous_args = 0
 115              		@ link register save eliminated.
 303:Generated_Source\PSoC5/WordShifted.c ****     uint8 priority;
 304:Generated_Source\PSoC5/WordShifted.c **** 
 305:Generated_Source\PSoC5/WordShifted.c **** 
 306:Generated_Source\PSoC5/WordShifted.c ****     priority = *WordShifted_INTC_PRIOR >> 5;
 116              		.loc 1 306 0
 117 0000 014B     		ldr	r3, .L11
 118 0002 1878     		ldrb	r0, [r3]	@ zero_extendqisi2
 119              	.LVL5:
 307:Generated_Source\PSoC5/WordShifted.c **** 
 308:Generated_Source\PSoC5/WordShifted.c ****     return priority;
 309:Generated_Source\PSoC5/WordShifted.c **** }
 120              		.loc 1 309 0
 121 0004 4009     		lsrs	r0, r0, #5
 122              	.LVL6:
 123 0006 7047     		bx	lr
 124              	.L12:
 125              		.align	2
 126              	.L11:
 127 0008 01E400E0 		.word	-536812543
 128              		.cfi_endproc
 129              	.LFE7:
 130              		.size	WordShifted_GetPriority, .-WordShifted_GetPriority
 131              		.section	.text.WordShifted_Enable,"ax",%progbits
 132              		.align	2
 133              		.global	WordShifted_Enable
 134              		.thumb
 135              		.thumb_func
 136              		.type	WordShifted_Enable, %function
 137              	WordShifted_Enable:
 138              	.LFB8:
 310:Generated_Source\PSoC5/WordShifted.c **** 
 311:Generated_Source\PSoC5/WordShifted.c **** 
 312:Generated_Source\PSoC5/WordShifted.c **** /*******************************************************************************
 313:Generated_Source\PSoC5/WordShifted.c **** * Function Name: WordShifted_Enable
 314:Generated_Source\PSoC5/WordShifted.c **** ********************************************************************************
 315:Generated_Source\PSoC5/WordShifted.c **** *
 316:Generated_Source\PSoC5/WordShifted.c **** * Summary:
 317:Generated_Source\PSoC5/WordShifted.c **** *   Enables the interrupt to the interrupt controller. Do not call this function
 318:Generated_Source\PSoC5/WordShifted.c **** *   unless ISR_Start() has been called or the functionality of the ISR_Start() 
ARM GAS  C:\Users\EA527~1.IVA\AppData\Local\Temp\ccgQuQ5X.s 			page 9


 319:Generated_Source\PSoC5/WordShifted.c **** *   function, which sets the vector and the priority, has been called.
 320:Generated_Source\PSoC5/WordShifted.c **** *
 321:Generated_Source\PSoC5/WordShifted.c **** * Parameters:
 322:Generated_Source\PSoC5/WordShifted.c **** *   None
 323:Generated_Source\PSoC5/WordShifted.c **** *
 324:Generated_Source\PSoC5/WordShifted.c **** * Return:
 325:Generated_Source\PSoC5/WordShifted.c **** *   None
 326:Generated_Source\PSoC5/WordShifted.c **** *
 327:Generated_Source\PSoC5/WordShifted.c **** *******************************************************************************/
 328:Generated_Source\PSoC5/WordShifted.c **** void WordShifted_Enable(void)
 329:Generated_Source\PSoC5/WordShifted.c **** {
 139              		.loc 1 329 0
 140              		.cfi_startproc
 141              		@ args = 0, pretend = 0, frame = 0
 142              		@ frame_needed = 0, uses_anonymous_args = 0
 143              		@ link register save eliminated.
 330:Generated_Source\PSoC5/WordShifted.c ****     /* Enable the general interrupt. */
 331:Generated_Source\PSoC5/WordShifted.c ****     *WordShifted_INTC_SET_EN = WordShifted__INTC_MASK;
 144              		.loc 1 331 0
 145 0000 0222     		movs	r2, #2
 146 0002 014B     		ldr	r3, .L14
 147 0004 1A60     		str	r2, [r3]
 148 0006 7047     		bx	lr
 149              	.L15:
 150              		.align	2
 151              	.L14:
 152 0008 00E100E0 		.word	-536813312
 153              		.cfi_endproc
 154              	.LFE8:
 155              		.size	WordShifted_Enable, .-WordShifted_Enable
 156              		.section	.text.WordShifted_GetState,"ax",%progbits
 157              		.align	2
 158              		.global	WordShifted_GetState
 159              		.thumb
 160              		.thumb_func
 161              		.type	WordShifted_GetState, %function
 162              	WordShifted_GetState:
 163              	.LFB9:
 332:Generated_Source\PSoC5/WordShifted.c **** }
 333:Generated_Source\PSoC5/WordShifted.c **** 
 334:Generated_Source\PSoC5/WordShifted.c **** 
 335:Generated_Source\PSoC5/WordShifted.c **** /*******************************************************************************
 336:Generated_Source\PSoC5/WordShifted.c **** * Function Name: WordShifted_GetState
 337:Generated_Source\PSoC5/WordShifted.c **** ********************************************************************************
 338:Generated_Source\PSoC5/WordShifted.c **** *
 339:Generated_Source\PSoC5/WordShifted.c **** * Summary:
 340:Generated_Source\PSoC5/WordShifted.c **** *   Gets the state (enabled, disabled) of the Interrupt.
 341:Generated_Source\PSoC5/WordShifted.c **** *
 342:Generated_Source\PSoC5/WordShifted.c **** * Parameters:
 343:Generated_Source\PSoC5/WordShifted.c **** *   None
 344:Generated_Source\PSoC5/WordShifted.c **** *
 345:Generated_Source\PSoC5/WordShifted.c **** * Return:
 346:Generated_Source\PSoC5/WordShifted.c **** *   1 if enabled, 0 if disabled.
 347:Generated_Source\PSoC5/WordShifted.c **** *
 348:Generated_Source\PSoC5/WordShifted.c **** *******************************************************************************/
 349:Generated_Source\PSoC5/WordShifted.c **** uint8 WordShifted_GetState(void)
 350:Generated_Source\PSoC5/WordShifted.c **** {
ARM GAS  C:\Users\EA527~1.IVA\AppData\Local\Temp\ccgQuQ5X.s 			page 10


 164              		.loc 1 350 0
 165              		.cfi_startproc
 166              		@ args = 0, pretend = 0, frame = 0
 167              		@ frame_needed = 0, uses_anonymous_args = 0
 168              		@ link register save eliminated.
 351:Generated_Source\PSoC5/WordShifted.c ****     /* Get the state of the general interrupt. */
 352:Generated_Source\PSoC5/WordShifted.c ****     return ((*WordShifted_INTC_SET_EN & (uint32)WordShifted__INTC_MASK) != 0u) ? 1u:0u;
 169              		.loc 1 352 0
 170 0000 044B     		ldr	r3, .L19
 171 0002 1B68     		ldr	r3, [r3]
 172 0004 13F0020F 		tst	r3, #2
 173 0008 01D0     		beq	.L18
 174 000a 0120     		movs	r0, #1
 175 000c 7047     		bx	lr
 176              	.L18:
 177 000e 0020     		movs	r0, #0
 353:Generated_Source\PSoC5/WordShifted.c **** }
 178              		.loc 1 353 0
 179 0010 7047     		bx	lr
 180              	.L20:
 181 0012 00BF     		.align	2
 182              	.L19:
 183 0014 00E100E0 		.word	-536813312
 184              		.cfi_endproc
 185              	.LFE9:
 186              		.size	WordShifted_GetState, .-WordShifted_GetState
 187              		.section	.text.WordShifted_Disable,"ax",%progbits
 188              		.align	2
 189              		.global	WordShifted_Disable
 190              		.thumb
 191              		.thumb_func
 192              		.type	WordShifted_Disable, %function
 193              	WordShifted_Disable:
 194              	.LFB10:
 354:Generated_Source\PSoC5/WordShifted.c **** 
 355:Generated_Source\PSoC5/WordShifted.c **** 
 356:Generated_Source\PSoC5/WordShifted.c **** /*******************************************************************************
 357:Generated_Source\PSoC5/WordShifted.c **** * Function Name: WordShifted_Disable
 358:Generated_Source\PSoC5/WordShifted.c **** ********************************************************************************
 359:Generated_Source\PSoC5/WordShifted.c **** *
 360:Generated_Source\PSoC5/WordShifted.c **** * Summary:
 361:Generated_Source\PSoC5/WordShifted.c **** *   Disables the Interrupt in the interrupt controller.
 362:Generated_Source\PSoC5/WordShifted.c **** *
 363:Generated_Source\PSoC5/WordShifted.c **** * Parameters:
 364:Generated_Source\PSoC5/WordShifted.c **** *   None
 365:Generated_Source\PSoC5/WordShifted.c **** *
 366:Generated_Source\PSoC5/WordShifted.c **** * Return:
 367:Generated_Source\PSoC5/WordShifted.c **** *   None
 368:Generated_Source\PSoC5/WordShifted.c **** *
 369:Generated_Source\PSoC5/WordShifted.c **** *******************************************************************************/
 370:Generated_Source\PSoC5/WordShifted.c **** void WordShifted_Disable(void)
 371:Generated_Source\PSoC5/WordShifted.c **** {
 195              		.loc 1 371 0
 196              		.cfi_startproc
 197              		@ args = 0, pretend = 0, frame = 0
 198              		@ frame_needed = 0, uses_anonymous_args = 0
 199              		@ link register save eliminated.
ARM GAS  C:\Users\EA527~1.IVA\AppData\Local\Temp\ccgQuQ5X.s 			page 11


 372:Generated_Source\PSoC5/WordShifted.c ****     /* Disable the general interrupt. */
 373:Generated_Source\PSoC5/WordShifted.c ****     *WordShifted_INTC_CLR_EN = WordShifted__INTC_MASK;
 200              		.loc 1 373 0
 201 0000 0222     		movs	r2, #2
 202 0002 014B     		ldr	r3, .L22
 203 0004 1A60     		str	r2, [r3]
 204 0006 7047     		bx	lr
 205              	.L23:
 206              		.align	2
 207              	.L22:
 208 0008 80E100E0 		.word	-536813184
 209              		.cfi_endproc
 210              	.LFE10:
 211              		.size	WordShifted_Disable, .-WordShifted_Disable
 212              		.section	.text.WordShifted_Start,"ax",%progbits
 213              		.align	2
 214              		.global	WordShifted_Start
 215              		.thumb
 216              		.thumb_func
 217              		.type	WordShifted_Start, %function
 218              	WordShifted_Start:
 219              	.LFB0:
  68:Generated_Source\PSoC5/WordShifted.c ****     /* For all we know the interrupt is active. */
 220              		.loc 1 68 0
 221              		.cfi_startproc
 222              		@ args = 0, pretend = 0, frame = 0
 223              		@ frame_needed = 0, uses_anonymous_args = 0
 224 0000 08B5     		push	{r3, lr}
 225              		.cfi_def_cfa_offset 8
 226              		.cfi_offset 3, -8
 227              		.cfi_offset 14, -4
  70:Generated_Source\PSoC5/WordShifted.c **** 
 228              		.loc 1 70 0
 229 0002 FFF7FEFF 		bl	WordShifted_Disable
 230              	.LVL7:
  73:Generated_Source\PSoC5/WordShifted.c **** 
 231              		.loc 1 73 0
 232 0006 0448     		ldr	r0, .L26
 233 0008 FFF7FEFF 		bl	WordShifted_SetVector
 234              	.LVL8:
  76:Generated_Source\PSoC5/WordShifted.c **** 
 235              		.loc 1 76 0
 236 000c 0420     		movs	r0, #4
 237 000e FFF7FEFF 		bl	WordShifted_SetPriority
 238              	.LVL9:
  79:Generated_Source\PSoC5/WordShifted.c **** }
 239              		.loc 1 79 0
 240 0012 FFF7FEFF 		bl	WordShifted_Enable
 241              	.LVL10:
 242 0016 08BD     		pop	{r3, pc}
 243              	.L27:
 244              		.align	2
 245              	.L26:
 246 0018 00000000 		.word	WordShifted_Interrupt
 247              		.cfi_endproc
 248              	.LFE0:
 249              		.size	WordShifted_Start, .-WordShifted_Start
ARM GAS  C:\Users\EA527~1.IVA\AppData\Local\Temp\ccgQuQ5X.s 			page 12


 250              		.section	.text.WordShifted_StartEx,"ax",%progbits
 251              		.align	2
 252              		.global	WordShifted_StartEx
 253              		.thumb
 254              		.thumb_func
 255              		.type	WordShifted_StartEx, %function
 256              	WordShifted_StartEx:
 257              	.LFB1:
 111:Generated_Source\PSoC5/WordShifted.c ****     /* For all we know the interrupt is active. */
 258              		.loc 1 111 0
 259              		.cfi_startproc
 260              		@ args = 0, pretend = 0, frame = 0
 261              		@ frame_needed = 0, uses_anonymous_args = 0
 262              	.LVL11:
 263 0000 10B5     		push	{r4, lr}
 264              		.cfi_def_cfa_offset 8
 265              		.cfi_offset 4, -8
 266              		.cfi_offset 14, -4
 267 0002 0446     		mov	r4, r0
 113:Generated_Source\PSoC5/WordShifted.c **** 
 268              		.loc 1 113 0
 269 0004 FFF7FEFF 		bl	WordShifted_Disable
 270              	.LVL12:
 116:Generated_Source\PSoC5/WordShifted.c **** 
 271              		.loc 1 116 0
 272 0008 2046     		mov	r0, r4
 273 000a FFF7FEFF 		bl	WordShifted_SetVector
 274              	.LVL13:
 119:Generated_Source\PSoC5/WordShifted.c **** 
 275              		.loc 1 119 0
 276 000e 0420     		movs	r0, #4
 277 0010 FFF7FEFF 		bl	WordShifted_SetPriority
 278              	.LVL14:
 122:Generated_Source\PSoC5/WordShifted.c **** }
 279              		.loc 1 122 0
 280 0014 FFF7FEFF 		bl	WordShifted_Enable
 281              	.LVL15:
 282 0018 10BD     		pop	{r4, pc}
 283              		.cfi_endproc
 284              	.LFE1:
 285              		.size	WordShifted_StartEx, .-WordShifted_StartEx
 286 001a 00BF     		.section	.text.WordShifted_Stop,"ax",%progbits
 287              		.align	2
 288              		.global	WordShifted_Stop
 289              		.thumb
 290              		.thumb_func
 291              		.type	WordShifted_Stop, %function
 292              	WordShifted_Stop:
 293              	.LFB2:
 141:Generated_Source\PSoC5/WordShifted.c ****     /* Disable this interrupt. */
 294              		.loc 1 141 0
 295              		.cfi_startproc
 296              		@ args = 0, pretend = 0, frame = 0
 297              		@ frame_needed = 0, uses_anonymous_args = 0
 298 0000 08B5     		push	{r3, lr}
 299              		.cfi_def_cfa_offset 8
 300              		.cfi_offset 3, -8
ARM GAS  C:\Users\EA527~1.IVA\AppData\Local\Temp\ccgQuQ5X.s 			page 13


 301              		.cfi_offset 14, -4
 143:Generated_Source\PSoC5/WordShifted.c **** 
 302              		.loc 1 143 0
 303 0002 FFF7FEFF 		bl	WordShifted_Disable
 304              	.LVL16:
 146:Generated_Source\PSoC5/WordShifted.c **** }
 305              		.loc 1 146 0
 306 0006 0248     		ldr	r0, .L32
 307 0008 FFF7FEFF 		bl	WordShifted_SetVector
 308              	.LVL17:
 309 000c 08BD     		pop	{r3, pc}
 310              	.L33:
 311 000e 00BF     		.align	2
 312              	.L32:
 313 0010 00000000 		.word	IntDefaultHandler
 314              		.cfi_endproc
 315              	.LFE2:
 316              		.size	WordShifted_Stop, .-WordShifted_Stop
 317              		.section	.text.WordShifted_SetPending,"ax",%progbits
 318              		.align	2
 319              		.global	WordShifted_SetPending
 320              		.thumb
 321              		.thumb_func
 322              		.type	WordShifted_SetPending, %function
 323              	WordShifted_SetPending:
 324              	.LFB11:
 374:Generated_Source\PSoC5/WordShifted.c **** }
 375:Generated_Source\PSoC5/WordShifted.c **** 
 376:Generated_Source\PSoC5/WordShifted.c **** 
 377:Generated_Source\PSoC5/WordShifted.c **** /*******************************************************************************
 378:Generated_Source\PSoC5/WordShifted.c **** * Function Name: WordShifted_SetPending
 379:Generated_Source\PSoC5/WordShifted.c **** ********************************************************************************
 380:Generated_Source\PSoC5/WordShifted.c **** *
 381:Generated_Source\PSoC5/WordShifted.c **** * Summary:
 382:Generated_Source\PSoC5/WordShifted.c **** *   Causes the Interrupt to enter the pending state, a software method of
 383:Generated_Source\PSoC5/WordShifted.c **** *   generating the interrupt.
 384:Generated_Source\PSoC5/WordShifted.c **** *
 385:Generated_Source\PSoC5/WordShifted.c **** * Parameters:
 386:Generated_Source\PSoC5/WordShifted.c **** *   None
 387:Generated_Source\PSoC5/WordShifted.c **** *
 388:Generated_Source\PSoC5/WordShifted.c **** * Return:
 389:Generated_Source\PSoC5/WordShifted.c **** *   None
 390:Generated_Source\PSoC5/WordShifted.c **** *
 391:Generated_Source\PSoC5/WordShifted.c **** * Side Effects:
 392:Generated_Source\PSoC5/WordShifted.c **** *   If interrupts are enabled and the interrupt is set up properly, the ISR is
 393:Generated_Source\PSoC5/WordShifted.c **** *   entered (depending on the priority of this interrupt and other pending 
 394:Generated_Source\PSoC5/WordShifted.c **** *   interrupts).
 395:Generated_Source\PSoC5/WordShifted.c **** *
 396:Generated_Source\PSoC5/WordShifted.c **** *******************************************************************************/
 397:Generated_Source\PSoC5/WordShifted.c **** void WordShifted_SetPending(void)
 398:Generated_Source\PSoC5/WordShifted.c **** {
 325              		.loc 1 398 0
 326              		.cfi_startproc
 327              		@ args = 0, pretend = 0, frame = 0
 328              		@ frame_needed = 0, uses_anonymous_args = 0
 329              		@ link register save eliminated.
 399:Generated_Source\PSoC5/WordShifted.c ****     *WordShifted_INTC_SET_PD = WordShifted__INTC_MASK;
ARM GAS  C:\Users\EA527~1.IVA\AppData\Local\Temp\ccgQuQ5X.s 			page 14


 330              		.loc 1 399 0
 331 0000 0222     		movs	r2, #2
 332 0002 014B     		ldr	r3, .L35
 333 0004 1A60     		str	r2, [r3]
 334 0006 7047     		bx	lr
 335              	.L36:
 336              		.align	2
 337              	.L35:
 338 0008 00E200E0 		.word	-536813056
 339              		.cfi_endproc
 340              	.LFE11:
 341              		.size	WordShifted_SetPending, .-WordShifted_SetPending
 342              		.section	.text.WordShifted_ClearPending,"ax",%progbits
 343              		.align	2
 344              		.global	WordShifted_ClearPending
 345              		.thumb
 346              		.thumb_func
 347              		.type	WordShifted_ClearPending, %function
 348              	WordShifted_ClearPending:
 349              	.LFB12:
 400:Generated_Source\PSoC5/WordShifted.c **** }
 401:Generated_Source\PSoC5/WordShifted.c **** 
 402:Generated_Source\PSoC5/WordShifted.c **** 
 403:Generated_Source\PSoC5/WordShifted.c **** /*******************************************************************************
 404:Generated_Source\PSoC5/WordShifted.c **** * Function Name: WordShifted_ClearPending
 405:Generated_Source\PSoC5/WordShifted.c **** ********************************************************************************
 406:Generated_Source\PSoC5/WordShifted.c **** *
 407:Generated_Source\PSoC5/WordShifted.c **** * Summary:
 408:Generated_Source\PSoC5/WordShifted.c **** *   Clears a pending interrupt in the interrupt controller.
 409:Generated_Source\PSoC5/WordShifted.c **** *
 410:Generated_Source\PSoC5/WordShifted.c **** *   Note Some interrupt sources are clear-on-read and require the block 
 411:Generated_Source\PSoC5/WordShifted.c **** *   interrupt/status register to be read/cleared with the appropriate block API 
 412:Generated_Source\PSoC5/WordShifted.c **** *   (GPIO, UART, and so on). Otherwise the ISR will continue to remain in 
 413:Generated_Source\PSoC5/WordShifted.c **** *   pending state even though the interrupt itself is cleared using this API.
 414:Generated_Source\PSoC5/WordShifted.c **** *
 415:Generated_Source\PSoC5/WordShifted.c **** * Parameters:
 416:Generated_Source\PSoC5/WordShifted.c **** *   None
 417:Generated_Source\PSoC5/WordShifted.c **** *
 418:Generated_Source\PSoC5/WordShifted.c **** * Return:
 419:Generated_Source\PSoC5/WordShifted.c **** *   None
 420:Generated_Source\PSoC5/WordShifted.c **** *
 421:Generated_Source\PSoC5/WordShifted.c **** *******************************************************************************/
 422:Generated_Source\PSoC5/WordShifted.c **** void WordShifted_ClearPending(void)
 423:Generated_Source\PSoC5/WordShifted.c **** {
 350              		.loc 1 423 0
 351              		.cfi_startproc
 352              		@ args = 0, pretend = 0, frame = 0
 353              		@ frame_needed = 0, uses_anonymous_args = 0
 354              		@ link register save eliminated.
 424:Generated_Source\PSoC5/WordShifted.c ****     *WordShifted_INTC_CLR_PD = WordShifted__INTC_MASK;
 355              		.loc 1 424 0
 356 0000 0222     		movs	r2, #2
 357 0002 014B     		ldr	r3, .L38
 358 0004 1A60     		str	r2, [r3]
 359 0006 7047     		bx	lr
 360              	.L39:
 361              		.align	2
ARM GAS  C:\Users\EA527~1.IVA\AppData\Local\Temp\ccgQuQ5X.s 			page 15


 362              	.L38:
 363 0008 80E200E0 		.word	-536812928
 364              		.cfi_endproc
 365              	.LFE12:
 366              		.size	WordShifted_ClearPending, .-WordShifted_ClearPending
 367              		.section	.text.WordShifted_Interrupt,"ax",%progbits
 368              		.align	2
 369              		.global	WordShifted_Interrupt
 370              		.thumb
 371              		.thumb_func
 372              		.type	WordShifted_Interrupt, %function
 373              	WordShifted_Interrupt:
 374              	.LFB3:
 167:Generated_Source\PSoC5/WordShifted.c ****     #ifdef WordShifted_INTERRUPT_INTERRUPT_CALLBACK
 375              		.loc 1 167 0
 376              		.cfi_startproc
 377              		@ args = 0, pretend = 0, frame = 0
 378              		@ frame_needed = 0, uses_anonymous_args = 0
 379 0000 08B5     		push	{r3, lr}
 380              		.cfi_def_cfa_offset 8
 381              		.cfi_offset 3, -8
 382              		.cfi_offset 14, -4
 174:Generated_Source\PSoC5/WordShifted.c ****     tmp = RecieveShiftReg_SR_STATUS;
 383              		.loc 1 174 0
 384 0002 FFF7FEFF 		bl	WordShifted_ClearPending
 385              	.LVL18:
 175:Generated_Source\PSoC5/WordShifted.c **** //    while (RecieveShiftReg_OUT_FIFO_EMPTY != (RecieveShiftReg_SR_STATUS&RecieveShiftReg_OUT_FIFO_
 386              		.loc 1 175 0
 387 0006 134B     		ldr	r3, .L46
 388 0008 1A78     		ldrb	r2, [r3]	@ zero_extendqisi2
 389 000a 134B     		ldr	r3, .L46+4
 390 000c 1A60     		str	r2, [r3]
 177:Generated_Source\PSoC5/WordShifted.c ****         tmp = RecieveShiftReg_ReadData();
 391              		.loc 1 177 0
 392 000e 1AE0     		b	.L41
 393              	.L44:
 178:Generated_Source\PSoC5/WordShifted.c ****         if(first == 0) first = 1;
 394              		.loc 1 178 0
 395 0010 FFF7FEFF 		bl	RecieveShiftReg_ReadData
 396              	.LVL19:
 397 0014 104B     		ldr	r3, .L46+4
 398 0016 1860     		str	r0, [r3]
 179:Generated_Source\PSoC5/WordShifted.c ****         else {
 399              		.loc 1 179 0
 400 0018 104B     		ldr	r3, .L46+8
 401 001a 1B68     		ldr	r3, [r3]
 402 001c 1BB9     		cbnz	r3, .L42
 179:Generated_Source\PSoC5/WordShifted.c ****         else {
 403              		.loc 1 179 0 is_stmt 0 discriminator 1
 404 001e 0122     		movs	r2, #1
 405 0020 0E4B     		ldr	r3, .L46+8
 406 0022 1A60     		str	r2, [r3]
 407 0024 0BE0     		b	.L43
 408              	.L42:
 181:Generated_Source\PSoC5/WordShifted.c ****                 CountToRecieve--;
 409              		.loc 1 181 0 is_stmt 1
 410 0026 0E4B     		ldr	r3, .L46+12
ARM GAS  C:\Users\EA527~1.IVA\AppData\Local\Temp\ccgQuQ5X.s 			page 16


 411 0028 1B68     		ldr	r3, [r3]
 412 002a 43B1     		cbz	r3, .L43
 182:Generated_Source\PSoC5/WordShifted.c ****                 *(current_write++) = tmp;
 413              		.loc 1 182 0
 414 002c 0C4A     		ldr	r2, .L46+12
 415 002e 1368     		ldr	r3, [r2]
 416 0030 013B     		subs	r3, r3, #1
 417 0032 1360     		str	r3, [r2]
 183:Generated_Source\PSoC5/WordShifted.c ****             }
 418              		.loc 1 183 0
 419 0034 0B4A     		ldr	r2, .L46+16
 420 0036 1368     		ldr	r3, [r2]
 421 0038 191D     		adds	r1, r3, #4
 422 003a 1160     		str	r1, [r2]
 423 003c 1860     		str	r0, [r3]
 424              	.L43:
 186:Generated_Source\PSoC5/WordShifted.c ****     //}while (RecieveShiftReg_OUT_FIFO_EMPTY != (RecieveShiftReg_SR_STATUS&RecieveShiftReg_OUT_FIFO
 425              		.loc 1 186 0
 426 003e 054B     		ldr	r3, .L46
 427 0040 1A78     		ldrb	r2, [r3]	@ zero_extendqisi2
 428 0042 054B     		ldr	r3, .L46+4
 429 0044 1A60     		str	r2, [r3]
 430              	.L41:
 177:Generated_Source\PSoC5/WordShifted.c ****         tmp = RecieveShiftReg_ReadData();
 431              		.loc 1 177 0
 432 0046 044B     		ldr	r3, .L46+4
 433 0048 1B68     		ldr	r3, [r3]
 434 004a 13F0400F 		tst	r3, #64
 435 004e DFD1     		bne	.L44
 191:Generated_Source\PSoC5/WordShifted.c **** 
 436              		.loc 1 191 0
 437 0050 08BD     		pop	{r3, pc}
 438              	.L47:
 439 0052 00BF     		.align	2
 440              	.L46:
 441 0054 6A650040 		.word	1073767786
 442 0058 00000000 		.word	tmp
 443 005c 00000000 		.word	first
 444 0060 00000000 		.word	CountToRecieve
 445 0064 00000000 		.word	current_write
 446              		.cfi_endproc
 447              	.LFE3:
 448              		.size	WordShifted_Interrupt, .-WordShifted_Interrupt
 449              		.comm	tmp,4,4
 450              		.text
 451              	.Letext0:
 452              		.file 2 "Generated_Source\\PSoC5/cytypes.h"
 453              		.file 3 "./reciver.h"
 454              		.file 4 "./line_buf.h"
 455              		.file 5 "Generated_Source\\PSoC5/RecieveShiftReg.h"